ARM GAS  C:\Users\TOMAS~1.GEC\AppData\Local\Temp\ccOfFsJz.s 			page 1


   1              		.syntax unified
   2              		.cpu cortex-m3
   3              		.fpu softvfp
   4              		.eabi_attribute 20, 1
   5              		.eabi_attribute 21, 1
   6              		.eabi_attribute 23, 3
   7              		.eabi_attribute 24, 1
   8              		.eabi_attribute 25, 1
   9              		.eabi_attribute 26, 1
  10              		.eabi_attribute 30, 6
  11              		.eabi_attribute 34, 1
  12              		.eabi_attribute 18, 4
  13              		.thumb
  14              		.syntax unified
  15              		.file	"main.c"
  16              		.text
  17              	.Ltext0:
  18              		.cfi_sections	.debug_frame
  19              		.comm	txt,500,4
  20              		.comm	buffer,4,4
  21              		.comm	checksum,1,1
  22              		.section	.rodata
  23              		.align	2
  24              	.LC0:
  25 0000 53472053 		.ascii	"SG START \015\012\015\012\000"
  25      54415254 
  25      200D0A0D 
  25      0A00
  26              		.section	.text.isr_START_handler,"ax",%progbits
  27              		.align	2
  28              		.global	isr_START_handler
  29              		.thumb
  30              		.thumb_func
  31              		.type	isr_START_handler, %function
  32              	isr_START_handler:
  33              	.LFB64:
  34              		.file 1 "main.c"
   1:main.c        **** /******************************************************************************
   2:main.c        **** * Project Name		: MinUnit -- a minimal unit testing framework for C
   3:main.c        **** * File Name			: main.c
   4:main.c        **** * Version 			: **
   5:main.c        **** * Device Used		: CY8C5888LTI-LP097
   6:main.c        **** * Software Used		: PSoC Creator 3.1 SP2
   7:main.c        **** * Compiler    		: ARM GCC 4.8.4, ARM RVDS Generic, ARM MDK Generic
   8:main.c        **** * Related Hardware	: CY8CKIT059 PSoC 5 LP Prototyping Kit 
   9:main.c        **** *******************************************************************************/
  10:main.c        **** 
  11:main.c        **** #include <device.h>
  12:main.c        **** #include <stdio.h>
  13:main.c        **** #include <string.h>
  14:main.c        **** #include "assert.h"
  15:main.c        **** #include "mis.h"
  16:main.c        **** #include "SPI.h"
  17:main.c        **** 
  18:main.c        **** char txt[500];
  19:main.c        **** uint32 buffer;
  20:main.c        **** uint8 checksum;
ARM GAS  C:\Users\TOMAS~1.GEC\AppData\Local\Temp\ccOfFsJz.s 			page 2


  21:main.c        **** 
  22:main.c        **** CY_ISR(isr_START_handler)
  23:main.c        **** {
  35              		.loc 1 23 0
  36              		.cfi_startproc
  37              		@ args = 0, pretend = 0, frame = 0
  38              		@ frame_needed = 1, uses_anonymous_args = 0
  39 0000 80B5     		push	{r7, lr}
  40              		.cfi_def_cfa_offset 8
  41              		.cfi_offset 7, -8
  42              		.cfi_offset 14, -4
  43 0002 00AF     		add	r7, sp, #0
  44              		.cfi_def_cfa_register 7
  24:main.c        ****    UART_1_PutString("SG START \r\n\r\n");
  45              		.loc 1 24 0
  46 0004 0348     		ldr	r0, .L2
  47 0006 FFF7FEFF 		bl	UART_1_PutString
  25:main.c        ****    MIS_Start();
  48              		.loc 1 25 0
  49 000a FFF7FEFF 		bl	MIS_Start
  26:main.c        **** }
  50              		.loc 1 26 0
  51 000e 00BF     		nop
  52 0010 80BD     		pop	{r7, pc}
  53              	.L3:
  54 0012 00BF     		.align	2
  55              	.L2:
  56 0014 00000000 		.word	.LC0
  57              		.cfi_endproc
  58              	.LFE64:
  59              		.size	isr_START_handler, .-isr_START_handler
  60              		.section	.rodata
  61 000e 0000     		.align	2
  62              	.LC1:
  63 0010 53472053 		.ascii	"SG STOP \015\012\015\012\000"
  63      544F5020 
  63      0D0A0D0A 
  63      00
  64              		.section	.text.isr_STOP_handler,"ax",%progbits
  65              		.align	2
  66              		.global	isr_STOP_handler
  67              		.thumb
  68              		.thumb_func
  69              		.type	isr_STOP_handler, %function
  70              	isr_STOP_handler:
  71              	.LFB65:
  27:main.c        **** 
  28:main.c        **** CY_ISR(isr_STOP_handler)
  29:main.c        **** {
  72              		.loc 1 29 0
  73              		.cfi_startproc
  74              		@ args = 0, pretend = 0, frame = 0
  75              		@ frame_needed = 1, uses_anonymous_args = 0
  76 0000 80B5     		push	{r7, lr}
  77              		.cfi_def_cfa_offset 8
  78              		.cfi_offset 7, -8
  79              		.cfi_offset 14, -4
ARM GAS  C:\Users\TOMAS~1.GEC\AppData\Local\Temp\ccOfFsJz.s 			page 3


  80 0002 00AF     		add	r7, sp, #0
  81              		.cfi_def_cfa_register 7
  30:main.c        ****    UART_1_PutString("SG STOP \r\n\r\n"); 
  82              		.loc 1 30 0
  83 0004 0348     		ldr	r0, .L5
  84 0006 FFF7FEFF 		bl	UART_1_PutString
  31:main.c        ****    MIS_Stop();
  85              		.loc 1 31 0
  86 000a FFF7FEFF 		bl	MIS_Stop
  32:main.c        ****   
  33:main.c        **** }
  87              		.loc 1 33 0
  88 000e 00BF     		nop
  89 0010 80BD     		pop	{r7, pc}
  90              	.L6:
  91 0012 00BF     		.align	2
  92              	.L5:
  93 0014 10000000 		.word	.LC1
  94              		.cfi_endproc
  95              	.LFE65:
  96              		.size	isr_STOP_handler, .-isr_STOP_handler
  97              		.section	.rodata
  98 001d 000000   		.align	2
  99              	.LC2:
 100 0020 52582025 		.ascii	"RX %d \012\000"
 100      64200A00 
 101              		.align	2
 102              	.LC3:
 103 0028 6D61696E 		.ascii	"main.c\000"
 103      2E6300
 104 002f 00       		.align	2
 105              	.LC4:
 106 0030 54582025 		.ascii	"TX %x %x %x %x \012\000"
 106      78202578 
 106      20257820 
 106      2578200A 
 106      00
 107              		.section	.text.isr_CS_Rise_handler,"ax",%progbits
 108              		.align	2
 109              		.global	isr_CS_Rise_handler
 110              		.thumb
 111              		.thumb_func
 112              		.type	isr_CS_Rise_handler, %function
 113              	isr_CS_Rise_handler:
 114              	.LFB66:
  34:main.c        **** 
  35:main.c        **** CY_ISR(isr_CS_Rise_handler)
  36:main.c        **** {
 115              		.loc 1 36 0
 116              		.cfi_startproc
 117              		@ args = 0, pretend = 0, frame = 8
 118              		@ frame_needed = 1, uses_anonymous_args = 0
 119 0000 80B5     		push	{r7, lr}
 120              		.cfi_def_cfa_offset 8
 121              		.cfi_offset 7, -8
 122              		.cfi_offset 14, -4
 123 0002 84B0     		sub	sp, sp, #16
ARM GAS  C:\Users\TOMAS~1.GEC\AppData\Local\Temp\ccOfFsJz.s 			page 4


 124              		.cfi_def_cfa_offset 24
 125 0004 02AF     		add	r7, sp, #8
 126              		.cfi_def_cfa 7, 16
  37:main.c        ****     uint8 b = SPIS_ReadRxData();
 127              		.loc 1 37 0
 128 0006 FFF7FEFF 		bl	SPIS_ReadRxData
 129 000a 0346     		mov	r3, r0
 130 000c FB71     		strb	r3, [r7, #7]
  38:main.c        ****     LED1_Write(1);
 131              		.loc 1 38 0
 132 000e 0120     		movs	r0, #1
 133 0010 FFF7FEFF 		bl	LED1_Write
  39:main.c        ****     sprintf(txt,"RX %d \n",b); 
 134              		.loc 1 39 0
 135 0014 FB79     		ldrb	r3, [r7, #7]	@ zero_extendqisi2
 136 0016 1A46     		mov	r2, r3
 137 0018 5B49     		ldr	r1, .L21
 138 001a 5C48     		ldr	r0, .L21+4
 139 001c FFF7FEFF 		bl	sprintf
  40:main.c        ****     assert(0 == 0, txt);
 140              		.loc 1 40 0
 141 0020 2823     		movs	r3, #40
 142 0022 5B4A     		ldr	r2, .L21+8
 143 0024 5949     		ldr	r1, .L21+4
 144 0026 0120     		movs	r0, #1
 145 0028 FFF7FEFF 		bl	__assert__
  41:main.c        ****     switch(b)
 146              		.loc 1 41 0
 147 002c FB79     		ldrb	r3, [r7, #7]	@ zero_extendqisi2
 148 002e 013B     		subs	r3, r3, #1
 149 0030 0E2B     		cmp	r3, #14
 150 0032 66D8     		bhi	.L8
 151 0034 01A2     		adr	r2, .L10
 152 0036 52F823F0 		ldr	pc, [r2, r3, lsl #2]
 153 003a 00BF     		.p2align 2
 154              	.L10:
 155 003c 79000000 		.word	.L9+1
 156 0040 85000000 		.word	.L11+1
 157 0044 91000000 		.word	.L12+1
 158 0048 9D000000 		.word	.L13+1
 159 004c 03010000 		.word	.L8+1
 160 0050 03010000 		.word	.L8+1
 161 0054 03010000 		.word	.L8+1
 162 0058 03010000 		.word	.L8+1
 163 005c A9000000 		.word	.L14+1
 164 0060 B5000000 		.word	.L15+1
 165 0064 C1000000 		.word	.L16+1
 166 0068 CD000000 		.word	.L17+1
 167 006c D9000000 		.word	.L18+1
 168 0070 E7000000 		.word	.L19+1
 169 0074 F5000000 		.word	.L20+1
 170              		.p2align 1
 171              	.L9:
  42:main.c        ****         {
  43:main.c        ****             case 0x01:
  44:main.c        ****                buffer = MIS1_ReadCount();
 172              		.loc 1 44 0
ARM GAS  C:\Users\TOMAS~1.GEC\AppData\Local\Temp\ccOfFsJz.s 			page 5


 173 0078 FFF7FEFF 		bl	MIS1_ReadCount
 174 007c 0246     		mov	r2, r0
 175 007e 454B     		ldr	r3, .L21+12
 176 0080 1A60     		str	r2, [r3]
  45:main.c        ****              //buffer = 286331153;
  46:main.c        ****             break;
 177              		.loc 1 46 0
 178 0082 3EE0     		b	.L8
 179              	.L11:
  47:main.c        ****              case 0x02:
  48:main.c        ****                buffer = MIS1_ReadCurTime();
 180              		.loc 1 48 0
 181 0084 FFF7FEFF 		bl	MIS1_ReadCurTime
 182 0088 0246     		mov	r2, r0
 183 008a 424B     		ldr	r3, .L21+12
 184 008c 1A60     		str	r2, [r3]
  49:main.c        ****           //  buffer = 572662306;
  50:main.c        ****             break;
 185              		.loc 1 50 0
 186 008e 38E0     		b	.L8
 187              	.L12:
  51:main.c        ****             case 0x03:
  52:main.c        ****                buffer = MIS2_ReadCount();
 188              		.loc 1 52 0
 189 0090 FFF7FEFF 		bl	MIS2_ReadCount
 190 0094 0246     		mov	r2, r0
 191 0096 3F4B     		ldr	r3, .L21+12
 192 0098 1A60     		str	r2, [r3]
  53:main.c        ****             break;
 193              		.loc 1 53 0
 194 009a 32E0     		b	.L8
 195              	.L13:
  54:main.c        ****              case 0x04:
  55:main.c        ****                buffer = MIS2_ReadCurTime();
 196              		.loc 1 55 0
 197 009c FFF7FEFF 		bl	MIS2_ReadCurTime
 198 00a0 0246     		mov	r2, r0
 199 00a2 3C4B     		ldr	r3, .L21+12
 200 00a4 1A60     		str	r2, [r3]
  56:main.c        ****                break;         
 201              		.loc 1 56 0
 202 00a6 2CE0     		b	.L8
 203              	.L14:
  57:main.c        ****             case 0x09:
  58:main.c        ****                buffer = MIS3_ReadCount();
 204              		.loc 1 58 0
 205 00a8 FFF7FEFF 		bl	MIS3_ReadCount
 206 00ac 0246     		mov	r2, r0
 207 00ae 394B     		ldr	r3, .L21+12
 208 00b0 1A60     		str	r2, [r3]
  59:main.c        ****                break;
 209              		.loc 1 59 0
 210 00b2 26E0     		b	.L8
 211              	.L15:
  60:main.c        ****             case 0x0A:
  61:main.c        ****                buffer = MIS3_ReadCurTime();
 212              		.loc 1 61 0
ARM GAS  C:\Users\TOMAS~1.GEC\AppData\Local\Temp\ccOfFsJz.s 			page 6


 213 00b4 FFF7FEFF 		bl	MIS3_ReadCurTime
 214 00b8 0246     		mov	r2, r0
 215 00ba 364B     		ldr	r3, .L21+12
 216 00bc 1A60     		str	r2, [r3]
  62:main.c        ****                break;
 217              		.loc 1 62 0
 218 00be 20E0     		b	.L8
 219              	.L16:
  63:main.c        ****             case 0x0B:
  64:main.c        ****                buffer = MIS4_ReadCount();
 220              		.loc 1 64 0
 221 00c0 FFF7FEFF 		bl	MIS4_ReadCount
 222 00c4 0246     		mov	r2, r0
 223 00c6 334B     		ldr	r3, .L21+12
 224 00c8 1A60     		str	r2, [r3]
  65:main.c        ****                break;
 225              		.loc 1 65 0
 226 00ca 1AE0     		b	.L8
 227              	.L17:
  66:main.c        ****             case 0x0C:
  67:main.c        ****                buffer = MIS4_ReadCurTime();
 228              		.loc 1 67 0
 229 00cc FFF7FEFF 		bl	MIS4_ReadCurTime
 230 00d0 0246     		mov	r2, r0
 231 00d2 304B     		ldr	r3, .L21+12
 232 00d4 1A60     		str	r2, [r3]
  68:main.c        ****                break;
 233              		.loc 1 68 0
 234 00d6 14E0     		b	.L8
 235              	.L18:
  69:main.c        ****             
  70:main.c        ****             case 0x0D:   //  1 - 2 QuadDecoder
  71:main.c        ****                buffer = QuadDec_1_GetCounter();
 236              		.loc 1 71 0
 237 00d8 FFF7FEFF 		bl	QuadDec_1_GetCounter
 238 00dc 0346     		mov	r3, r0
 239 00de 1A46     		mov	r2, r3
 240 00e0 2C4B     		ldr	r3, .L21+12
 241 00e2 1A60     		str	r2, [r3]
  72:main.c        ****                break;
 242              		.loc 1 72 0
 243 00e4 0DE0     		b	.L8
 244              	.L19:
  73:main.c        ****             
  74:main.c        ****             case 0x0E:   //  3 - 4 QuadDecoder
  75:main.c        ****                buffer = QuadDec_2_GetCounter();
 245              		.loc 1 75 0
 246 00e6 FFF7FEFF 		bl	QuadDec_2_GetCounter
 247 00ea 0346     		mov	r3, r0
 248 00ec 1A46     		mov	r2, r3
 249 00ee 294B     		ldr	r3, .L21+12
 250 00f0 1A60     		str	r2, [r3]
  76:main.c        ****                break;
 251              		.loc 1 76 0
 252 00f2 06E0     		b	.L8
 253              	.L20:
  77:main.c        ****             
ARM GAS  C:\Users\TOMAS~1.GEC\AppData\Local\Temp\ccOfFsJz.s 			page 7


  78:main.c        ****             case 0x0F:   //  Read MIS 1-4 Pulse Counter Enable status
  79:main.c        ****                buffer = MIS_PulseCounterStatus();
 254              		.loc 1 79 0
 255 00f4 FFF7FEFF 		bl	MIS_PulseCounterStatus
 256 00f8 0346     		mov	r3, r0
 257 00fa 1A46     		mov	r2, r3
 258 00fc 254B     		ldr	r3, .L21+12
 259 00fe 1A60     		str	r2, [r3]
  80:main.c        ****                break;
 260              		.loc 1 80 0
 261 0100 00BF     		nop
 262              	.L8:
  81:main.c        ****         }
  82:main.c        ****         
  83:main.c        ****     SPIS_ClearRxBuffer();
 263              		.loc 1 83 0
 264 0102 FFF7FEFF 		bl	SPIS_ClearRxBuffer
  84:main.c        ****     SPIS_ClearTxBuffer();
 265              		.loc 1 84 0
 266 0106 FFF7FEFF 		bl	SPIS_ClearTxBuffer
  85:main.c        ****     
  86:main.c        ****     uint8 * p = (uint8 *)&buffer;
 267              		.loc 1 86 0
 268 010a 224B     		ldr	r3, .L21+12
 269 010c 3B60     		str	r3, [r7]
  87:main.c        ****     SPIS_WriteTxDataZero(0x5Au);
 270              		.loc 1 87 0
 271 010e 5A20     		movs	r0, #90
 272 0110 FFF7FEFF 		bl	SPIS_WriteTxDataZero
  88:main.c        ****     /* Other 7 bytes are written to the SPIS Tx software buffer */
  89:main.c        ****     SPIS_WriteTxData(p[0]);
 273              		.loc 1 89 0
 274 0114 3B68     		ldr	r3, [r7]
 275 0116 1B78     		ldrb	r3, [r3]	@ zero_extendqisi2
 276 0118 1846     		mov	r0, r3
 277 011a FFF7FEFF 		bl	SPIS_WriteTxData
  90:main.c        ****     SPIS_WriteTxData(p[1]);
 278              		.loc 1 90 0
 279 011e 3B68     		ldr	r3, [r7]
 280 0120 0133     		adds	r3, r3, #1
 281 0122 1B78     		ldrb	r3, [r3]	@ zero_extendqisi2
 282 0124 1846     		mov	r0, r3
 283 0126 FFF7FEFF 		bl	SPIS_WriteTxData
  91:main.c        ****     SPIS_WriteTxData(p[2]);
 284              		.loc 1 91 0
 285 012a 3B68     		ldr	r3, [r7]
 286 012c 0233     		adds	r3, r3, #2
 287 012e 1B78     		ldrb	r3, [r3]	@ zero_extendqisi2
 288 0130 1846     		mov	r0, r3
 289 0132 FFF7FEFF 		bl	SPIS_WriteTxData
  92:main.c        ****     SPIS_WriteTxData(p[3]);
 290              		.loc 1 92 0
 291 0136 3B68     		ldr	r3, [r7]
 292 0138 0333     		adds	r3, r3, #3
 293 013a 1B78     		ldrb	r3, [r3]	@ zero_extendqisi2
 294 013c 1846     		mov	r0, r3
 295 013e FFF7FEFF 		bl	SPIS_WriteTxData
ARM GAS  C:\Users\TOMAS~1.GEC\AppData\Local\Temp\ccOfFsJz.s 			page 8


  93:main.c        ****     LED1_Write(0);
 296              		.loc 1 93 0
 297 0142 0020     		movs	r0, #0
 298 0144 FFF7FEFF 		bl	LED1_Write
  94:main.c        ****     sprintf(txt,"TX %x %x %x %x \n",p[0],p[1],p[2],p[3]); 
 299              		.loc 1 94 0
 300 0148 3B68     		ldr	r3, [r7]
 301 014a 1B78     		ldrb	r3, [r3]	@ zero_extendqisi2
 302 014c 1946     		mov	r1, r3
 303 014e 3B68     		ldr	r3, [r7]
 304 0150 0133     		adds	r3, r3, #1
 305 0152 1B78     		ldrb	r3, [r3]	@ zero_extendqisi2
 306 0154 1846     		mov	r0, r3
 307 0156 3B68     		ldr	r3, [r7]
 308 0158 0233     		adds	r3, r3, #2
 309 015a 1B78     		ldrb	r3, [r3]	@ zero_extendqisi2
 310 015c 1A46     		mov	r2, r3
 311 015e 3B68     		ldr	r3, [r7]
 312 0160 0333     		adds	r3, r3, #3
 313 0162 1B78     		ldrb	r3, [r3]	@ zero_extendqisi2
 314 0164 0193     		str	r3, [sp, #4]
 315 0166 0092     		str	r2, [sp]
 316 0168 0346     		mov	r3, r0
 317 016a 0A46     		mov	r2, r1
 318 016c 0A49     		ldr	r1, .L21+16
 319 016e 0748     		ldr	r0, .L21+4
 320 0170 FFF7FEFF 		bl	sprintf
  95:main.c        ****     assert(0 == 0, txt);
 321              		.loc 1 95 0
 322 0174 5F23     		movs	r3, #95
 323 0176 064A     		ldr	r2, .L21+8
 324 0178 0449     		ldr	r1, .L21+4
 325 017a 0120     		movs	r0, #1
 326 017c FFF7FEFF 		bl	__assert__
  96:main.c        ****     
  97:main.c        **** }
 327              		.loc 1 97 0
 328 0180 00BF     		nop
 329 0182 0837     		adds	r7, r7, #8
 330              		.cfi_def_cfa_offset 8
 331 0184 BD46     		mov	sp, r7
 332              		.cfi_def_cfa_register 13
 333              		@ sp needed
 334 0186 80BD     		pop	{r7, pc}
 335              	.L22:
 336              		.align	2
 337              	.L21:
 338 0188 20000000 		.word	.LC2
 339 018c 00000000 		.word	txt
 340 0190 28000000 		.word	.LC3
 341 0194 00000000 		.word	buffer
 342 0198 30000000 		.word	.LC4
 343              		.cfi_endproc
 344              	.LFE66:
 345              		.size	isr_CS_Rise_handler, .-isr_CS_Rise_handler
 346              		.section	.text.isr_QuadDec_1_handler,"ax",%progbits
 347              		.align	2
ARM GAS  C:\Users\TOMAS~1.GEC\AppData\Local\Temp\ccOfFsJz.s 			page 9


 348              		.global	isr_QuadDec_1_handler
 349              		.thumb
 350              		.thumb_func
 351              		.type	isr_QuadDec_1_handler, %function
 352              	isr_QuadDec_1_handler:
 353              	.LFB67:
  98:main.c        **** 
  99:main.c        **** CY_ISR(isr_QuadDec_1_handler)
 100:main.c        **** {
 354              		.loc 1 100 0
 355              		.cfi_startproc
 356              		@ args = 0, pretend = 0, frame = 0
 357              		@ frame_needed = 1, uses_anonymous_args = 0
 358 0000 80B5     		push	{r7, lr}
 359              		.cfi_def_cfa_offset 8
 360              		.cfi_offset 7, -8
 361              		.cfi_offset 14, -4
 362 0002 00AF     		add	r7, sp, #0
 363              		.cfi_def_cfa_register 7
 101:main.c        ****     /* Clear Inerrupt */
 102:main.c        ****    	QuadDec_1_Init(); //Initializes or restores default configuration provided with the customizer
 364              		.loc 1 102 0
 365 0004 FFF7FEFF 		bl	QuadDec_1_Init
 103:main.c        **** }    
 366              		.loc 1 103 0
 367 0008 00BF     		nop
 368 000a 80BD     		pop	{r7, pc}
 369              		.cfi_endproc
 370              	.LFE67:
 371              		.size	isr_QuadDec_1_handler, .-isr_QuadDec_1_handler
 372              		.section	.text.isr_QuadDec_2_handler,"ax",%progbits
 373              		.align	2
 374              		.global	isr_QuadDec_2_handler
 375              		.thumb
 376              		.thumb_func
 377              		.type	isr_QuadDec_2_handler, %function
 378              	isr_QuadDec_2_handler:
 379              	.LFB68:
 104:main.c        **** 
 105:main.c        **** CY_ISR(isr_QuadDec_2_handler)
 106:main.c        **** {
 380              		.loc 1 106 0
 381              		.cfi_startproc
 382              		@ args = 0, pretend = 0, frame = 0
 383              		@ frame_needed = 1, uses_anonymous_args = 0
 384 0000 80B5     		push	{r7, lr}
 385              		.cfi_def_cfa_offset 8
 386              		.cfi_offset 7, -8
 387              		.cfi_offset 14, -4
 388 0002 00AF     		add	r7, sp, #0
 389              		.cfi_def_cfa_register 7
 107:main.c        ****     QuadDec_2_Init();
 390              		.loc 1 107 0
 391 0004 FFF7FEFF 		bl	QuadDec_2_Init
 108:main.c        **** }  
 392              		.loc 1 108 0
 393 0008 00BF     		nop
ARM GAS  C:\Users\TOMAS~1.GEC\AppData\Local\Temp\ccOfFsJz.s 			page 10


 394 000a 80BD     		pop	{r7, pc}
 395              		.cfi_endproc
 396              	.LFE68:
 397              		.size	isr_QuadDec_2_handler, .-isr_QuadDec_2_handler
 398              		.section	.text.debug_master_cmd,"ax",%progbits
 399              		.align	2
 400              		.global	debug_master_cmd
 401              		.thumb
 402              		.thumb_func
 403              		.type	debug_master_cmd, %function
 404              	debug_master_cmd:
 405              	.LFB69:
 109:main.c        **** 
 110:main.c        **** 
 111:main.c        **** void debug_master_cmd(uint8 cmd)
 112:main.c        **** {
 406              		.loc 1 112 0
 407              		.cfi_startproc
 408              		@ args = 0, pretend = 0, frame = 24
 409              		@ frame_needed = 1, uses_anonymous_args = 0
 410 0000 90B5     		push	{r4, r7, lr}
 411              		.cfi_def_cfa_offset 12
 412              		.cfi_offset 4, -12
 413              		.cfi_offset 7, -8
 414              		.cfi_offset 14, -4
 415 0002 87B0     		sub	sp, sp, #28
 416              		.cfi_def_cfa_offset 40
 417 0004 00AF     		add	r7, sp, #0
 418              		.cfi_def_cfa_register 7
 419 0006 0346     		mov	r3, r0
 420 0008 FB71     		strb	r3, [r7, #7]
 113:main.c        ****     uint8 spi_data[16];
 114:main.c        ****     SPIM_ClearRxBuffer();
 421              		.loc 1 114 0
 422 000a FFF7FEFF 		bl	SPIM_ClearRxBuffer
 115:main.c        ****     SPIM_ClearTxBuffer();
 423              		.loc 1 115 0
 424 000e FFF7FEFF 		bl	SPIM_ClearTxBuffer
 116:main.c        ****     memcpy(spi_data,0,sizeof(spi_data));
 425              		.loc 1 116 0
 426 0012 0023     		movs	r3, #0
 427 0014 07F10804 		add	r4, r7, #8
 428 0018 0FCB     		ldmia	r3, {r0, r1, r2, r3}
 429 001a 84E80F00 		stmia	r4, {r0, r1, r2, r3}
 117:main.c        ****     spi_data[0] = cmd;
 430              		.loc 1 117 0
 431 001e FB79     		ldrb	r3, [r7, #7]
 432 0020 3B72     		strb	r3, [r7, #8]
 118:main.c        ****    // SPIM_CS_Write(0);
 119:main.c        ****     SPIM_PutArray(spi_data, 5);
 433              		.loc 1 119 0
 434 0022 07F10803 		add	r3, r7, #8
 435 0026 0521     		movs	r1, #5
 436 0028 1846     		mov	r0, r3
 437 002a FFF7FEFF 		bl	SPIM_PutArray
 120:main.c        ****     CyDelay(1);
 438              		.loc 1 120 0
ARM GAS  C:\Users\TOMAS~1.GEC\AppData\Local\Temp\ccOfFsJz.s 			page 11


 439 002e 0120     		movs	r0, #1
 440 0030 FFF7FEFF 		bl	CyDelay
 121:main.c        ****     //SPIM_CS_Write(1);
 122:main.c        **** }
 441              		.loc 1 122 0
 442 0034 00BF     		nop
 443 0036 1C37     		adds	r7, r7, #28
 444              		.cfi_def_cfa_offset 12
 445 0038 BD46     		mov	sp, r7
 446              		.cfi_def_cfa_register 13
 447              		@ sp needed
 448 003a 90BD     		pop	{r4, r7, pc}
 449              		.cfi_endproc
 450              	.LFE69:
 451              		.size	debug_master_cmd, .-debug_master_cmd
 452              		.section	.text.debug_master_read,"ax",%progbits
 453              		.align	2
 454              		.global	debug_master_read
 455              		.thumb
 456              		.thumb_func
 457              		.type	debug_master_read, %function
 458              	debug_master_read:
 459              	.LFB70:
 123:main.c        **** 
 124:main.c        **** uint32 debug_master_read(uint8 cmd)
 125:main.c        **** {
 460              		.loc 1 125 0
 461              		.cfi_startproc
 462              		@ args = 0, pretend = 0, frame = 48
 463              		@ frame_needed = 1, uses_anonymous_args = 0
 464 0000 90B5     		push	{r4, r7, lr}
 465              		.cfi_def_cfa_offset 12
 466              		.cfi_offset 4, -12
 467              		.cfi_offset 7, -8
 468              		.cfi_offset 14, -4
 469 0002 8DB0     		sub	sp, sp, #52
 470              		.cfi_def_cfa_offset 64
 471 0004 00AF     		add	r7, sp, #0
 472              		.cfi_def_cfa_register 7
 473 0006 0346     		mov	r3, r0
 474 0008 FB71     		strb	r3, [r7, #7]
 126:main.c        ****     uint8 spi_data[16];
 127:main.c        ****     uint32 result = 0xFFFFFFFF;
 475              		.loc 1 127 0
 476 000a 4FF0FF33 		mov	r3, #-1
 477 000e FB60     		str	r3, [r7, #12]
 128:main.c        ****     uint8 *p = (uint8 *)&result;
 478              		.loc 1 128 0
 479 0010 07F10C03 		add	r3, r7, #12
 480 0014 BB62     		str	r3, [r7, #40]
 129:main.c        ****     
 130:main.c        ****     SPIM_ClearRxBuffer();
 481              		.loc 1 130 0
 482 0016 FFF7FEFF 		bl	SPIM_ClearRxBuffer
 131:main.c        ****     SPIM_ClearTxBuffer();
 483              		.loc 1 131 0
 484 001a FFF7FEFF 		bl	SPIM_ClearTxBuffer
ARM GAS  C:\Users\TOMAS~1.GEC\AppData\Local\Temp\ccOfFsJz.s 			page 12


 132:main.c        ****     memcpy(spi_data,0,sizeof(spi_data));
 485              		.loc 1 132 0
 486 001e 0023     		movs	r3, #0
 487 0020 07F11004 		add	r4, r7, #16
 488 0024 0FCB     		ldmia	r3, {r0, r1, r2, r3}
 489 0026 84E80F00 		stmia	r4, {r0, r1, r2, r3}
 133:main.c        ****     spi_data[0] = cmd;
 490              		.loc 1 133 0
 491 002a FB79     		ldrb	r3, [r7, #7]
 492 002c 3B74     		strb	r3, [r7, #16]
 134:main.c        ****   //  SPIM_CS_Write(0);
 135:main.c        ****     SPIM_PutArray(spi_data, 5);
 493              		.loc 1 135 0
 494 002e 07F11003 		add	r3, r7, #16
 495 0032 0521     		movs	r1, #5
 496 0034 1846     		mov	r0, r3
 497 0036 FFF7FEFF 		bl	SPIM_PutArray
 136:main.c        ****     CyDelay(1);
 498              		.loc 1 136 0
 499 003a 0120     		movs	r0, #1
 500 003c FFF7FEFF 		bl	CyDelay
 137:main.c        ****    // SPIM_CS_Write(1);
 138:main.c        ****     int b_cnt = SPIM_GetRxBufferSize();
 501              		.loc 1 138 0
 502 0040 FFF7FEFF 		bl	SPIM_GetRxBufferSize
 503 0044 0346     		mov	r3, r0
 504 0046 7B62     		str	r3, [r7, #36]
 139:main.c        ****     if (b_cnt == 5)
 505              		.loc 1 139 0
 506 0048 7B6A     		ldr	r3, [r7, #36]
 507 004a 052B     		cmp	r3, #5
 508 004c 18D1     		bne	.L27
 509              	.LBB2:
 140:main.c        ****     {
 141:main.c        ****         int i;
 142:main.c        ****         uint8 signature = SPIM_ReadByte();
 510              		.loc 1 142 0
 511 004e FFF7FEFF 		bl	SPIM_ReadRxData
 512 0052 0346     		mov	r3, r0
 513 0054 87F82330 		strb	r3, [r7, #35]
 143:main.c        ****         if (signature == 0x5A)
 514              		.loc 1 143 0
 515 0058 97F82330 		ldrb	r3, [r7, #35]	@ zero_extendqisi2
 516 005c 5A2B     		cmp	r3, #90
 517 005e 0FD1     		bne	.L27
 144:main.c        ****         {
 145:main.c        ****             for (i=0; i < 4; i++)
 518              		.loc 1 145 0
 519 0060 0023     		movs	r3, #0
 520 0062 FB62     		str	r3, [r7, #44]
 521 0064 09E0     		b	.L28
 522              	.L29:
 146:main.c        ****             {
 147:main.c        ****                 p[i] = SPIM_ReadByte();
 523              		.loc 1 147 0 discriminator 3
 524 0066 FB6A     		ldr	r3, [r7, #44]
 525 0068 BA6A     		ldr	r2, [r7, #40]
ARM GAS  C:\Users\TOMAS~1.GEC\AppData\Local\Temp\ccOfFsJz.s 			page 13


 526 006a D418     		adds	r4, r2, r3
 527 006c FFF7FEFF 		bl	SPIM_ReadRxData
 528 0070 0346     		mov	r3, r0
 529 0072 2370     		strb	r3, [r4]
 145:main.c        ****             {
 530              		.loc 1 145 0 discriminator 3
 531 0074 FB6A     		ldr	r3, [r7, #44]
 532 0076 0133     		adds	r3, r3, #1
 533 0078 FB62     		str	r3, [r7, #44]
 534              	.L28:
 145:main.c        ****             {
 535              		.loc 1 145 0 is_stmt 0 discriminator 1
 536 007a FB6A     		ldr	r3, [r7, #44]
 537 007c 032B     		cmp	r3, #3
 538 007e F2DD     		ble	.L29
 539              	.L27:
 540              	.LBE2:
 148:main.c        ****             }
 149:main.c        ****         }
 150:main.c        ****     }
 151:main.c        ****     return  result;
 541              		.loc 1 151 0 is_stmt 1
 542 0080 FB68     		ldr	r3, [r7, #12]
 152:main.c        **** }
 543              		.loc 1 152 0
 544 0082 1846     		mov	r0, r3
 545 0084 3437     		adds	r7, r7, #52
 546              		.cfi_def_cfa_offset 12
 547 0086 BD46     		mov	sp, r7
 548              		.cfi_def_cfa_register 13
 549              		@ sp needed
 550 0088 90BD     		pop	{r4, r7, pc}
 551              		.cfi_endproc
 552              	.LFE70:
 553              		.size	debug_master_read, .-debug_master_read
 554 008a 00BF     		.section	.rodata
 555 0041 000000   		.align	2
 556              	.LC5:
 557 0044 1B5B324A 		.ascii	"\033[2J\033[H\000"
 557      1B5B4800 
 558              		.align	2
 559              	.LC6:
 560 004c 41206D69 		.ascii	"A minimal unit testing framework for C\015\012\015\012"
 560      6E696D61 
 560      6C20756E 
 560      69742074 
 560      65737469 
 561 0076 00       		.ascii	"\000"
 562              		.section	.text.main,"ax",%progbits
 563              		.align	2
 564              		.global	main
 565              		.thumb
 566              		.thumb_func
 567              		.type	main, %function
 568              	main:
 569              	.LFB71:
 153:main.c        ****     
ARM GAS  C:\Users\TOMAS~1.GEC\AppData\Local\Temp\ccOfFsJz.s 			page 14


 154:main.c        **** int main()
 155:main.c        **** {    
 570              		.loc 1 155 0
 571              		.cfi_startproc
 572              		@ args = 0, pretend = 0, frame = 48
 573              		@ frame_needed = 1, uses_anonymous_args = 0
 574 0000 80B5     		push	{r7, lr}
 575              		.cfi_def_cfa_offset 8
 576              		.cfi_offset 7, -8
 577              		.cfi_offset 14, -4
 578 0002 8CB0     		sub	sp, sp, #48
 579              		.cfi_def_cfa_offset 56
 580 0004 00AF     		add	r7, sp, #0
 581              		.cfi_def_cfa_register 7
 156:main.c        ****     CyGlobalIntEnable; /* Enable global interrupts. */
 582              		.loc 1 156 0
 583              		.syntax unified
 584              	@ 156 "main.c" 1
 585 0006 62B6     		CPSIE   i
 586              	@ 0 "" 2
 157:main.c        ****     /* Start the components */
 158:main.c        ****     
 159:main.c        ****     SPIM_Start();
 587              		.loc 1 159 0
 588              		.thumb
 589              		.syntax unified
 590 0008 FFF7FEFF 		bl	SPIM_Start
 160:main.c        ****     SPIS_Start();
 591              		.loc 1 160 0
 592 000c FFF7FEFF 		bl	SPIS_Start
 161:main.c        ****     UART_1_Start();
 593              		.loc 1 161 0
 594 0010 FFF7FEFF 		bl	UART_1_Start
 162:main.c        ****     QuadDec_1_Start();
 595              		.loc 1 162 0
 596 0014 FFF7FEFF 		bl	QuadDec_1_Start
 163:main.c        ****     QuadDec_2_Start();
 597              		.loc 1 163 0
 598 0018 FFF7FEFF 		bl	QuadDec_2_Start
 164:main.c        **** 
 165:main.c        ****   //  isr_SPI_StartEx(isr_SPI_handler);
 166:main.c        ****     isr_CS_Rise_StartEx(isr_CS_Rise_handler);
 599              		.loc 1 166 0
 600 001c 6048     		ldr	r0, .L38
 601 001e FFF7FEFF 		bl	isr_CS_Rise_StartEx
 167:main.c        ****         
 168:main.c        ****     isr_START_StartEx(isr_START_handler);
 602              		.loc 1 168 0
 603 0022 6048     		ldr	r0, .L38+4
 604 0024 FFF7FEFF 		bl	isr_START_StartEx
 169:main.c        ****     isr_STOP_StartEx(isr_STOP_handler);
 605              		.loc 1 169 0
 606 0028 5F48     		ldr	r0, .L38+8
 607 002a FFF7FEFF 		bl	isr_STOP_StartEx
 170:main.c        ****     
 171:main.c        ****     
 172:main.c        ****     
ARM GAS  C:\Users\TOMAS~1.GEC\AppData\Local\Temp\ccOfFsJz.s 			page 15


 173:main.c        **** 
 174:main.c        ****     /* Quadrature Decoder isr */
 175:main.c        ****     isr_QuadDec_1_StartEx(isr_QuadDec_1_handler);
 608              		.loc 1 175 0
 609 002e 5F48     		ldr	r0, .L38+12
 610 0030 FFF7FEFF 		bl	isr_QuadDec_1_StartEx
 176:main.c        ****     isr_QuadDec_2_StartEx(isr_QuadDec_2_handler);
 611              		.loc 1 176 0
 612 0034 5E48     		ldr	r0, .L38+16
 613 0036 FFF7FEFF 		bl	isr_QuadDec_2_StartEx
 177:main.c        ****    
 178:main.c        ****     
 179:main.c        ****     
 180:main.c        ****     /* MIS 1------------------------------------------ */
 181:main.c        ****     isr_PulseCounter_1_StartEx(isr_PulseCounter_1_handler);
 614              		.loc 1 181 0
 615 003a 5E48     		ldr	r0, .L38+20
 616 003c FFF7FEFF 		bl	isr_PulseCounter_1_StartEx
 182:main.c        ****     isr_Capture_1_StartEx(isr_Capture_1);
 617              		.loc 1 182 0
 618 0040 5D48     		ldr	r0, .L38+24
 619 0042 FFF7FEFF 		bl	isr_Capture_1_StartEx
 183:main.c        ****      BurstTimeout_1_Start();
 620              		.loc 1 183 0
 621 0046 FFF7FEFF 		bl	BurstTimeout_1_Start
 184:main.c        ****     PulseCounter_1_Start();
 622              		.loc 1 184 0
 623 004a FFF7FEFF 		bl	PulseCounter_1_Start
 185:main.c        ****    
 186:main.c        ****     /* MIS 2------------------------------------------ */
 187:main.c        ****     isr_PulseCounter_2_StartEx(isr_PulseCounter_2_handler);
 624              		.loc 1 187 0
 625 004e 5B48     		ldr	r0, .L38+28
 626 0050 FFF7FEFF 		bl	isr_PulseCounter_2_StartEx
 188:main.c        ****     isr_Capture_2_StartEx(isr_Capture_2);
 627              		.loc 1 188 0
 628 0054 5A48     		ldr	r0, .L38+32
 629 0056 FFF7FEFF 		bl	isr_Capture_2_StartEx
 189:main.c        ****     PulseCounter_2_Start();
 630              		.loc 1 189 0
 631 005a FFF7FEFF 		bl	PulseCounter_2_Start
 190:main.c        ****     BurstTimeout_2_Start();
 632              		.loc 1 190 0
 633 005e FFF7FEFF 		bl	BurstTimeout_2_Start
 191:main.c        ****     
 192:main.c        ****     /* MIS 3------------------------------------------ */
 193:main.c        ****     isr_PulseCounter_3_StartEx(isr_PulseCounter_3_handler);
 634              		.loc 1 193 0
 635 0062 5848     		ldr	r0, .L38+36
 636 0064 FFF7FEFF 		bl	isr_PulseCounter_3_StartEx
 194:main.c        ****     isr_Capture_3_StartEx(isr_Capture_3);
 637              		.loc 1 194 0
 638 0068 5748     		ldr	r0, .L38+40
 639 006a FFF7FEFF 		bl	isr_Capture_3_StartEx
 195:main.c        ****     PulseCounter_3_Start();
 640              		.loc 1 195 0
 641 006e FFF7FEFF 		bl	PulseCounter_3_Start
ARM GAS  C:\Users\TOMAS~1.GEC\AppData\Local\Temp\ccOfFsJz.s 			page 16


 196:main.c        ****     BurstTimeout_3_Start();
 642              		.loc 1 196 0
 643 0072 FFF7FEFF 		bl	BurstTimeout_3_Start
 197:main.c        ****     
 198:main.c        ****     /* MIS 4------------------------------------------ */
 199:main.c        ****     isr_PulseCounter_4_StartEx(isr_PulseCounter_4_handler);
 644              		.loc 1 199 0
 645 0076 5548     		ldr	r0, .L38+44
 646 0078 FFF7FEFF 		bl	isr_PulseCounter_4_StartEx
 200:main.c        ****     isr_Capture_4_StartEx(isr_Capture_4);
 647              		.loc 1 200 0
 648 007c 5448     		ldr	r0, .L38+48
 649 007e FFF7FEFF 		bl	isr_Capture_4_StartEx
 201:main.c        ****     PulseCounter_4_Start();
 650              		.loc 1 201 0
 651 0082 FFF7FEFF 		bl	PulseCounter_4_Start
 202:main.c        ****     BurstTimeout_4_Start();
 652              		.loc 1 202 0
 653 0086 FFF7FEFF 		bl	BurstTimeout_4_Start
 203:main.c        ****     
 204:main.c        ****     
 205:main.c        ****     isr_Timestamp_StartEx(isr_Timestamp_handler);
 654              		.loc 1 205 0
 655 008a 5248     		ldr	r0, .L38+52
 656 008c FFF7FEFF 		bl	isr_Timestamp_StartEx
 206:main.c        ****     Timestamp_Start();
 657              		.loc 1 206 0
 658 0090 FFF7FEFF 		bl	Timestamp_Start
 207:main.c        ****   //  EdgeDetect_1_Start();
 208:main.c        **** 
 209:main.c        ****     
 210:main.c        ****     UART_1_PutString("\x1b[2J\x1b[H"); //erase screen and go home
 659              		.loc 1 210 0
 660 0094 5048     		ldr	r0, .L38+56
 661 0096 FFF7FEFF 		bl	UART_1_PutString
 211:main.c        ****     UART_1_PutString("A minimal unit testing framework for C\r\n\r\n");
 662              		.loc 1 211 0
 663 009a 5048     		ldr	r0, .L38+60
 664 009c FFF7FEFF 		bl	UART_1_PutString
 212:main.c        **** 
 213:main.c        ****     //test_X10();
 214:main.c        ****     MIS1_SetBurstTimeout(5000);
 665              		.loc 1 214 0
 666 00a0 41F28830 		movw	r0, #5000
 667 00a4 FFF7FEFF 		bl	MIS1_SetBurstTimeout
 215:main.c        ****     MIS2_SetBurstTimeout(5000); /* 5ms pulse timeout in packet */
 668              		.loc 1 215 0
 669 00a8 41F28830 		movw	r0, #5000
 670 00ac FFF7FEFF 		bl	MIS2_SetBurstTimeout
 216:main.c        ****     MIS3_SetBurstTimeout(5000);
 671              		.loc 1 216 0
 672 00b0 41F28830 		movw	r0, #5000
 673 00b4 FFF7FEFF 		bl	MIS3_SetBurstTimeout
 217:main.c        ****     MIS4_SetBurstTimeout(5000);
 674              		.loc 1 217 0
 675 00b8 41F28830 		movw	r0, #5000
 676 00bc FFF7FEFF 		bl	MIS4_SetBurstTimeout
ARM GAS  C:\Users\TOMAS~1.GEC\AppData\Local\Temp\ccOfFsJz.s 			page 17


 677              	.L32:
 678              	.LBB3:
 218:main.c        ****     do
 219:main.c        ****     {
 220:main.c        ****    //     MIS_Debug_Write(1);
 221:main.c        ****      //   UART_1_PutString("DEBUG 1 \r\n\r\n");
 222:main.c        ****     //    CyDelay(60000);
 223:main.c        ****         
 224:main.c        ****     //    MIS_Debug_Write(0);
 225:main.c        ****     //    UART_1_PutString("DEBUG 0 \r\n\r\n");
 226:main.c        **** 
 227:main.c        ****         
 228:main.c        ****         /* --- MIS 1 --- */
 229:main.c        ****         uint32 MIS1_pulse_count;
 230:main.c        ****         uint32 MIS1_pulse_time;
 231:main.c        ****         do
 232:main.c        ****         {
 233:main.c        ****             debug_master_cmd(1);
 679              		.loc 1 233 0 discriminator 1
 680 00c0 0120     		movs	r0, #1
 681 00c2 FFF7FEFF 		bl	debug_master_cmd
 234:main.c        ****             MIS1_pulse_count = debug_master_read(1);
 682              		.loc 1 234 0 discriminator 1
 683 00c6 0120     		movs	r0, #1
 684 00c8 FFF7FEFF 		bl	debug_master_read
 685 00cc F862     		str	r0, [r7, #44]
 235:main.c        ****             
 236:main.c        ****             debug_master_cmd(2);
 686              		.loc 1 236 0 discriminator 1
 687 00ce 0220     		movs	r0, #2
 688 00d0 FFF7FEFF 		bl	debug_master_cmd
 237:main.c        ****             MIS1_pulse_time = debug_master_read(2);            
 689              		.loc 1 237 0 discriminator 1
 690 00d4 0220     		movs	r0, #2
 691 00d6 FFF7FEFF 		bl	debug_master_read
 692 00da B862     		str	r0, [r7, #40]
 238:main.c        ****         } while (MIS1_pulse_time == 0);
 693              		.loc 1 238 0 discriminator 1
 694 00dc BB6A     		ldr	r3, [r7, #40]
 695 00de 002B     		cmp	r3, #0
 696 00e0 EED0     		beq	.L32
 697              	.L33:
 239:main.c        ****         //////////////////////////////////////////
 240:main.c        ****         
 241:main.c        ****         /* --- MIS 2 --- */
 242:main.c        ****         uint32 MIS2_pulse_count;
 243:main.c        ****         uint32 MIS2_pulse_time;
 244:main.c        ****         do
 245:main.c        ****         {
 246:main.c        ****             debug_master_cmd(3);
 698              		.loc 1 246 0 discriminator 1
 699 00e2 0320     		movs	r0, #3
 700 00e4 FFF7FEFF 		bl	debug_master_cmd
 247:main.c        ****             MIS2_pulse_count = debug_master_read(3);
 701              		.loc 1 247 0 discriminator 1
 702 00e8 0320     		movs	r0, #3
 703 00ea FFF7FEFF 		bl	debug_master_read
ARM GAS  C:\Users\TOMAS~1.GEC\AppData\Local\Temp\ccOfFsJz.s 			page 18


 704 00ee 7862     		str	r0, [r7, #36]
 248:main.c        **** 
 249:main.c        ****             debug_master_cmd(4);
 705              		.loc 1 249 0 discriminator 1
 706 00f0 0420     		movs	r0, #4
 707 00f2 FFF7FEFF 		bl	debug_master_cmd
 250:main.c        ****             MIS2_pulse_time = debug_master_read(4);
 708              		.loc 1 250 0 discriminator 1
 709 00f6 0420     		movs	r0, #4
 710 00f8 FFF7FEFF 		bl	debug_master_read
 711 00fc 3862     		str	r0, [r7, #32]
 251:main.c        ****         } while (MIS2_pulse_time == 0);
 712              		.loc 1 251 0 discriminator 1
 713 00fe 3B6A     		ldr	r3, [r7, #32]
 714 0100 002B     		cmp	r3, #0
 715 0102 EED0     		beq	.L33
 716              	.L34:
 252:main.c        ****          //////////////////////////////////////////
 253:main.c        ****         
 254:main.c        ****         /* --- MIS 3 --- */
 255:main.c        ****         uint32 MIS3_pulse_count;
 256:main.c        ****         uint32 MIS3_pulse_time;
 257:main.c        ****         do
 258:main.c        ****         {
 259:main.c        ****             debug_master_cmd(9);
 717              		.loc 1 259 0 discriminator 1
 718 0104 0920     		movs	r0, #9
 719 0106 FFF7FEFF 		bl	debug_master_cmd
 260:main.c        ****             MIS3_pulse_count = debug_master_read(9);
 720              		.loc 1 260 0 discriminator 1
 721 010a 0920     		movs	r0, #9
 722 010c FFF7FEFF 		bl	debug_master_read
 723 0110 F861     		str	r0, [r7, #28]
 261:main.c        ****             
 262:main.c        ****             debug_master_cmd(0x0A);
 724              		.loc 1 262 0 discriminator 1
 725 0112 0A20     		movs	r0, #10
 726 0114 FFF7FEFF 		bl	debug_master_cmd
 263:main.c        ****             MIS3_pulse_time = debug_master_read(0x0A);            
 727              		.loc 1 263 0 discriminator 1
 728 0118 0A20     		movs	r0, #10
 729 011a FFF7FEFF 		bl	debug_master_read
 730 011e B861     		str	r0, [r7, #24]
 264:main.c        ****         } while (MIS3_pulse_time == 0);
 731              		.loc 1 264 0 discriminator 1
 732 0120 BB69     		ldr	r3, [r7, #24]
 733 0122 002B     		cmp	r3, #0
 734 0124 EED0     		beq	.L34
 735              	.L35:
 265:main.c        ****          //////////////////////////////////////////
 266:main.c        ****         
 267:main.c        ****         /* --- MIS 4 --- */
 268:main.c        ****         uint32 MIS4_pulse_count;
 269:main.c        ****         uint32 MIS4_pulse_time;
 270:main.c        ****         do
 271:main.c        ****         {
 272:main.c        ****             debug_master_cmd(0x0B);
ARM GAS  C:\Users\TOMAS~1.GEC\AppData\Local\Temp\ccOfFsJz.s 			page 19


 736              		.loc 1 272 0 discriminator 1
 737 0126 0B20     		movs	r0, #11
 738 0128 FFF7FEFF 		bl	debug_master_cmd
 273:main.c        ****             MIS4_pulse_count = debug_master_read(0x0B);
 739              		.loc 1 273 0 discriminator 1
 740 012c 0B20     		movs	r0, #11
 741 012e FFF7FEFF 		bl	debug_master_read
 742 0132 7861     		str	r0, [r7, #20]
 274:main.c        ****             
 275:main.c        ****             debug_master_cmd(0x0C);
 743              		.loc 1 275 0 discriminator 1
 744 0134 0C20     		movs	r0, #12
 745 0136 FFF7FEFF 		bl	debug_master_cmd
 276:main.c        ****             MIS4_pulse_time = debug_master_read(0x0C);            
 746              		.loc 1 276 0 discriminator 1
 747 013a 0C20     		movs	r0, #12
 748 013c FFF7FEFF 		bl	debug_master_read
 749 0140 3861     		str	r0, [r7, #16]
 277:main.c        ****         } while (MIS4_pulse_time == 0);
 750              		.loc 1 277 0 discriminator 1
 751 0142 3B69     		ldr	r3, [r7, #16]
 752 0144 002B     		cmp	r3, #0
 753 0146 EED0     		beq	.L35
 754              	.L36:
 278:main.c        ****          //////////////////////////////////////////
 279:main.c        ****         
 280:main.c        ****         /* --- MIS Quad 1-2 --- */
 281:main.c        ****         uint32 Quad_dec_1_count;
 282:main.c        ****         uint8 Quad_Dec_1_Event;
 283:main.c        ****         
 284:main.c        ****         do
 285:main.c        ****         {
 286:main.c        ****             debug_master_cmd(0x0D);
 755              		.loc 1 286 0 discriminator 1
 756 0148 0D20     		movs	r0, #13
 757 014a FFF7FEFF 		bl	debug_master_cmd
 287:main.c        ****             Quad_dec_1_count = debug_master_read(0x0D);
 758              		.loc 1 287 0 discriminator 1
 759 014e 0D20     		movs	r0, #13
 760 0150 FFF7FEFF 		bl	debug_master_read
 761 0154 F860     		str	r0, [r7, #12]
 288:main.c        ****             Quad_Dec_1_Event = QuadDec_1_GetEvents();
 762              		.loc 1 288 0 discriminator 1
 763 0156 FFF7FEFF 		bl	QuadDec_1_GetEvents
 764 015a 0346     		mov	r3, r0
 765 015c FB72     		strb	r3, [r7, #11]
 289:main.c        ****             
 290:main.c        ****             debug_master_cmd(2);
 766              		.loc 1 290 0 discriminator 1
 767 015e 0220     		movs	r0, #2
 768 0160 FFF7FEFF 		bl	debug_master_cmd
 291:main.c        ****             MIS1_pulse_time = debug_master_read(2);  
 769              		.loc 1 291 0 discriminator 1
 770 0164 0220     		movs	r0, #2
 771 0166 FFF7FEFF 		bl	debug_master_read
 772 016a B862     		str	r0, [r7, #40]
 292:main.c        ****             
ARM GAS  C:\Users\TOMAS~1.GEC\AppData\Local\Temp\ccOfFsJz.s 			page 20


 293:main.c        ****         } while (MIS1_pulse_time == 0);
 773              		.loc 1 293 0 discriminator 1
 774 016c BB6A     		ldr	r3, [r7, #40]
 775 016e 002B     		cmp	r3, #0
 776 0170 EAD0     		beq	.L36
 777              	.L37:
 294:main.c        ****         //////////////////////////////////////////
 295:main.c        ****         
 296:main.c        ****         /* --- MIS Quad 3-4 --- */
 297:main.c        ****         uint32 Quad_dec_2_count;
 298:main.c        ****         uint8 Quad_Dec_2_Event;
 299:main.c        ****         
 300:main.c        ****         do
 301:main.c        ****         {
 302:main.c        ****             debug_master_cmd(0x0E);
 778              		.loc 1 302 0 discriminator 1
 779 0172 0E20     		movs	r0, #14
 780 0174 FFF7FEFF 		bl	debug_master_cmd
 303:main.c        ****             Quad_dec_2_count = debug_master_read(0x0E);
 781              		.loc 1 303 0 discriminator 1
 782 0178 0E20     		movs	r0, #14
 783 017a FFF7FEFF 		bl	debug_master_read
 784 017e 7860     		str	r0, [r7, #4]
 304:main.c        ****             Quad_Dec_2_Event = QuadDec_2_GetEvents();
 785              		.loc 1 304 0 discriminator 1
 786 0180 FFF7FEFF 		bl	QuadDec_2_GetEvents
 787 0184 0346     		mov	r3, r0
 788 0186 FB70     		strb	r3, [r7, #3]
 305:main.c        ****             
 306:main.c        ****             debug_master_cmd(0x0A);
 789              		.loc 1 306 0 discriminator 1
 790 0188 0A20     		movs	r0, #10
 791 018a FFF7FEFF 		bl	debug_master_cmd
 307:main.c        ****             MIS3_pulse_time = debug_master_read(0x0A);            
 792              		.loc 1 307 0 discriminator 1
 793 018e 0A20     		movs	r0, #10
 794 0190 FFF7FEFF 		bl	debug_master_read
 795 0194 B861     		str	r0, [r7, #24]
 308:main.c        ****         } while (MIS3_pulse_time == 0);
 796              		.loc 1 308 0 discriminator 1
 797 0196 BB69     		ldr	r3, [r7, #24]
 798 0198 002B     		cmp	r3, #0
 799 019a EAD0     		beq	.L37
 800              	.LBE3:
 309:main.c        ****         //////////////////////////////////////////
 310:main.c        ****         
 311:main.c        ****          /*
 312:main.c        ****         sprintf(txt, "MIS1 PulseCounter = %ld TotTime = %ld", MIS1_pulse_count, MIS1_pulse_time);
 313:main.c        ****         assert(0 == 0, txt);
 314:main.c        ****         CyDelay(1000);
 315:main.c        ****             
 316:main.c        ****         sprintf(txt, "MIS2 PulseCounter = %ld TotTime = %ld", MIS2_pulse_count, MIS2_pulse_time);
 317:main.c        ****         assert(0 == 0, txt);
 318:main.c        ****         
 319:main.c        ****         sprintf(txt, "MIS3 PulseCounter = %ld TotTime = %ld", MIS3_pulse_count, MIS3_pulse_time);
 320:main.c        ****         assert(0 == 0, txt);
 321:main.c        ****              
ARM GAS  C:\Users\TOMAS~1.GEC\AppData\Local\Temp\ccOfFsJz.s 			page 21


 322:main.c        ****         sprintf(txt, "MIS4 PulseCounter = %ld TotTime = %ld", MIS4_pulse_count, MIS4_pulse_time);
 323:main.c        ****         assert(0 == 0, txt);
 324:main.c        ****         
 325:main.c        ****         sprintf(txt, "MIS 1-2 QuadCounter = %ld TotTime = %ld Event = %d", Quad_dec_1_count, MIS1_p
 326:main.c        ****         assert(0 == 0, txt);
 327:main.c        ****         
 328:main.c        ****         sprintf(txt, "MIS 3-4 QuadCounter = %ld TotTime = %ld Event = %d", Quad_dec_2_count, MIS3_p
 329:main.c        ****         assert(0 == 0, txt);
 330:main.c        ****        */
 331:main.c        ****         
 332:main.c        ****     } while (1);
 801              		.loc 1 332 0
 802 019c 90E7     		b	.L32
 803              	.L39:
 804 019e 00BF     		.align	2
 805              	.L38:
 806 01a0 00000000 		.word	isr_CS_Rise_handler
 807 01a4 00000000 		.word	isr_START_handler
 808 01a8 00000000 		.word	isr_STOP_handler
 809 01ac 00000000 		.word	isr_QuadDec_1_handler
 810 01b0 00000000 		.word	isr_QuadDec_2_handler
 811 01b4 00000000 		.word	isr_PulseCounter_1_handler
 812 01b8 00000000 		.word	isr_Capture_1
 813 01bc 00000000 		.word	isr_PulseCounter_2_handler
 814 01c0 00000000 		.word	isr_Capture_2
 815 01c4 00000000 		.word	isr_PulseCounter_3_handler
 816 01c8 00000000 		.word	isr_Capture_3
 817 01cc 00000000 		.word	isr_PulseCounter_4_handler
 818 01d0 00000000 		.word	isr_Capture_4
 819 01d4 00000000 		.word	isr_Timestamp_handler
 820 01d8 44000000 		.word	.LC5
 821 01dc 4C000000 		.word	.LC6
 822              		.cfi_endproc
 823              	.LFE71:
 824              		.size	main, .-main
 825              		.text
 826              	.Letext0:
 827              		.file 2 "c:\\program files (x86)\\cypress\\psoc creator\\4.1\\psoc creator\\import\\gnu\\arm\\5.4.
 828              		.file 3 "c:\\program files (x86)\\cypress\\psoc creator\\4.1\\psoc creator\\import\\gnu\\arm\\5.4.
 829              		.file 4 "Generated_Source\\PSoC5/cytypes.h"
 830              		.file 5 "Generated_Source\\PSoC5/core_cm3.h"