ARM GAS  C:\Users\TOMAS~1.GEC\AppData\Local\Temp\ccAktOyX.s 			page 1


   1              		.syntax unified
   2              		.cpu cortex-m3
   3              		.fpu softvfp
   4              		.eabi_attribute 20, 1
   5              		.eabi_attribute 21, 1
   6              		.eabi_attribute 23, 3
   7              		.eabi_attribute 24, 1
   8              		.eabi_attribute 25, 1
   9              		.eabi_attribute 26, 1
  10              		.eabi_attribute 30, 6
  11              		.eabi_attribute 34, 1
  12              		.eabi_attribute 18, 4
  13              		.thumb
  14              		.syntax unified
  15              		.file	"SPI.c"
  16              		.text
  17              	.Ltext0:
  18              		.cfi_sections	.debug_frame
  19              		.section	.rodata
  20              		.align	2
  21              	.LC0:
  22 0000 5350494D 		.ascii	"SPIM Rx data: \015\012\015\012\000"
  22      20527820 
  22      64617461 
  22      3A200D0A 
  22      0D0A00
  23 0013 00       		.align	2
  24              	.LC1:
  25 0014 25782000 		.ascii	"%x \000"
  26              		.align	2
  27              	.LC2:
  28 0018 0D0A0D0A 		.ascii	"\015\012\015\012\000"
  28      00
  29 001d 000000   		.align	2
  30              	.LC3:
  31 0020 53504953 		.ascii	"SPIS Rx data: \015\012\015\012\000"
  31      20527820 
  31      64617461 
  31      3A200D0A 
  31      0D0A00
  32              		.section	.text.SPI_main,"ax",%progbits
  33              		.align	2
  34              		.global	SPI_main
  35              		.thumb
  36              		.thumb_func
  37              		.type	SPI_main, %function
  38              	SPI_main:
  39              	.LFB64:
  40              		.file 1 "SPI.c"
   1:SPI.c         **** /*******************************************************************************
   2:SPI.c         **** * File Name: main.c
   3:SPI.c         **** *
   4:SPI.c         **** * Version: 1.0
   5:SPI.c         **** *
   6:SPI.c         **** * Description:
   7:SPI.c         **** *  This is source code for example project of the SPI
   8:SPI.c         **** *  (Master, Slave) components.
ARM GAS  C:\Users\TOMAS~1.GEC\AppData\Local\Temp\ccAktOyX.s 			page 2


   9:SPI.c         **** *  Parameters used:
  10:SPI.c         **** *   Mode                0(CPHA ==0, CPOL ==0)                
  11:SPI.c         **** *   Data lines          MOSI+MISO
  12:SPI.c         **** *   Shift direction     MSB First
  13:SPI.c         **** *   DataBits:           8 
  14:SPI.c         **** *   Bit Rate            1Mbit/s
  15:SPI.c         **** *   Clock source        External 
  16:SPI.c         **** *
  17:SPI.c         **** *  SPI communication test using software buffer. 8 bytes are transmitted
  18:SPI.c         **** *  between SPI Master and SPI Slave.
  19:SPI.c         **** *  Received data are displayed on LCD. 
  20:SPI.c         **** *
  21:SPI.c         **** ********************************************************************************
  22:SPI.c         **** * Copyright 2012, Cypress Semiconductor Corporation. All rights reserved.
  23:SPI.c         **** * This software is owned by Cypress Semiconductor Corporation and is protected
  24:SPI.c         **** * by and subject to worldwide patent and copyright laws and treaties.
  25:SPI.c         **** * Therefore, you may use this software only as provided in the license agreement
  26:SPI.c         **** * accompanying the software package from which you obtained this software.
  27:SPI.c         **** * CYPRESS AND ITS SUPPLIERS MAKE NO WARRANTY OF ANY KIND, EXPRESS OR IMPLIED,
  28:SPI.c         **** * WITH REGARD TO THIS SOFTWARE, INCLUDING, BUT NOT LIMITED TO, NONINFRINGEMENT,
  29:SPI.c         **** * IMPLIED WARRANTIES OF MERCHANTABILITY AND FITNESS FOR A PARTICULAR PURPOSE.
  30:SPI.c         **** *******************************************************************************/
  31:SPI.c         **** 
  32:SPI.c         **** #include <device.h>
  33:SPI.c         **** #include "SPI.h"
  34:SPI.c         **** #include "stdio.h"
  35:SPI.c         **** 
  36:SPI.c         **** 
  37:SPI.c         **** /*******************************************************************************
  38:SPI.c         **** * Function Name: main
  39:SPI.c         **** ********************************************************************************
  40:SPI.c         **** *
  41:SPI.c         **** * Summary:
  42:SPI.c         **** *  Main function performs following functions:
  43:SPI.c         **** *   1. Declares cycle counter variable.
  44:SPI.c         **** *   2. Enables interrupts.
  45:SPI.c         **** *   3. Starts all used components.
  46:SPI.c         **** *   3. Writes values to be sent into the SPI Slave's and Master's input buffers.
  47:SPI.c         **** *   4. Waits for the Slave's SPI Done state generation.
  48:SPI.c         **** *   5. Displays SPI Master and Slave received data.
  49:SPI.c         **** *
  50:SPI.c         **** * Parameters:
  51:SPI.c         **** *  None.
  52:SPI.c         **** *
  53:SPI.c         **** * Return:
  54:SPI.c         **** *  None.
  55:SPI.c         **** *
  56:SPI.c         **** *******************************************************************************/
  57:SPI.c         **** void SPI_main(uint32 TotCounter)
  58:SPI.c         **** {
  41              		.loc 1 58 0
  42              		.cfi_startproc
  43              		@ args = 0, pretend = 0, frame = 24
  44              		@ frame_needed = 1, uses_anonymous_args = 0
  45 0000 80B5     		push	{r7, lr}
  46              		.cfi_def_cfa_offset 8
  47              		.cfi_offset 7, -8
ARM GAS  C:\Users\TOMAS~1.GEC\AppData\Local\Temp\ccAktOyX.s 			page 3


  48              		.cfi_offset 14, -4
  49 0002 86B0     		sub	sp, sp, #24
  50              		.cfi_def_cfa_offset 32
  51 0004 00AF     		add	r7, sp, #0
  52              		.cfi_def_cfa_register 7
  53 0006 7860     		str	r0, [r7, #4]
  59:SPI.c         ****     uint8 i = 0u;
  54              		.loc 1 59 0
  55 0008 0023     		movs	r3, #0
  56 000a FB75     		strb	r3, [r7, #23]
  60:SPI.c         ****     
  61:SPI.c         ****     /* Software buffers use internal interrupt functionality to interact with
  62:SPI.c         ****     * hardware buffers. Thus global interrupt enable command should be called 
  63:SPI.c         ****     */
  64:SPI.c         ****     CyGlobalIntEnable;
  57              		.loc 1 64 0
  58              		.syntax unified
  59              	@ 64 "SPI.c" 1
  60 000c 62B6     		CPSIE   i
  61              	@ 0 "" 2
  65:SPI.c         ****     
  66:SPI.c         ****     /* We need to start Character LCD, SPI Master and Slave components */
  67:SPI.c         ****   //  LCD_Start();
  68:SPI.c         ****    
  69:SPI.c         ****    // SPIM_Start();
  70:SPI.c         ****    // SPIS_Start();
  71:SPI.c         ****     
  72:SPI.c         ****     /* SPI communication is provided in Mode 0. So, the first byte
  73:SPI.c         ****     * should be written directly to the SPI Slave 
  74:SPI.c         ****     */
  75:SPI.c         ****     SPIS_WriteTxDataZero(0x01u);
  62              		.loc 1 75 0
  63              		.thumb
  64              		.syntax unified
  65 000e 0120     		movs	r0, #1
  66 0010 FFF7FEFF 		bl	SPIS_WriteTxDataZero
  76:SPI.c         ****     
  77:SPI.c         ****     /* Other 7 bytes are written to the SPIS Tx software buffer */
  78:SPI.c         ****    SPIS_WriteTxData(TotCounter>>24);
  67              		.loc 1 78 0
  68 0014 7B68     		ldr	r3, [r7, #4]
  69 0016 1B0E     		lsrs	r3, r3, #24
  70 0018 DBB2     		uxtb	r3, r3
  71 001a 1846     		mov	r0, r3
  72 001c FFF7FEFF 		bl	SPIS_WriteTxData
  79:SPI.c         ****    SPIS_WriteTxData(TotCounter>>16);
  73              		.loc 1 79 0
  74 0020 7B68     		ldr	r3, [r7, #4]
  75 0022 1B0C     		lsrs	r3, r3, #16
  76 0024 DBB2     		uxtb	r3, r3
  77 0026 1846     		mov	r0, r3
  78 0028 FFF7FEFF 		bl	SPIS_WriteTxData
  80:SPI.c         ****    SPIS_WriteTxData(TotCounter>>8);
  79              		.loc 1 80 0
  80 002c 7B68     		ldr	r3, [r7, #4]
  81 002e 1B0A     		lsrs	r3, r3, #8
  82 0030 DBB2     		uxtb	r3, r3
ARM GAS  C:\Users\TOMAS~1.GEC\AppData\Local\Temp\ccAktOyX.s 			page 4


  83 0032 1846     		mov	r0, r3
  84 0034 FFF7FEFF 		bl	SPIS_WriteTxData
  81:SPI.c         ****    SPIS_WriteTxData(TotCounter);
  85              		.loc 1 81 0
  86 0038 7B68     		ldr	r3, [r7, #4]
  87 003a DBB2     		uxtb	r3, r3
  88 003c 1846     		mov	r0, r3
  89 003e FFF7FEFF 		bl	SPIS_WriteTxData
  82:SPI.c         ****    
  83:SPI.c         ****    //SPIS_WriteTxData(0x66u);
  84:SPI.c         ****    //SPIS_WriteTxData(0x77u);
  85:SPI.c         ****    // SPIS_WriteTxData(0x88u);
  86:SPI.c         **** 
  87:SPI.c         ****     /* writing data to the SPIM software buffer */
  88:SPI.c         ****     SPIM_WriteTxData(0x99u); /* initiates data transmission */
  90              		.loc 1 88 0
  91 0042 9920     		movs	r0, #153
  92 0044 FFF7FEFF 		bl	SPIM_WriteTxData
  89:SPI.c         ****     SPIM_WriteTxData(0xAAu);
  93              		.loc 1 89 0
  94 0048 AA20     		movs	r0, #170
  95 004a FFF7FEFF 		bl	SPIM_WriteTxData
  90:SPI.c         ****     SPIM_WriteTxData(0xBBu);
  96              		.loc 1 90 0
  97 004e BB20     		movs	r0, #187
  98 0050 FFF7FEFF 		bl	SPIM_WriteTxData
  91:SPI.c         ****     SPIM_WriteTxData(0xCCu);
  99              		.loc 1 91 0
 100 0054 CC20     		movs	r0, #204
 101 0056 FFF7FEFF 		bl	SPIM_WriteTxData
  92:SPI.c         ****     SPIM_WriteTxData(0xDDu);
 102              		.loc 1 92 0
 103 005a DD20     		movs	r0, #221
 104 005c FFF7FEFF 		bl	SPIM_WriteTxData
  93:SPI.c         ****    // SPIM_WriteTxData(0xEEu);
  94:SPI.c         ****   //  SPIM_WriteTxData(0xFFu);
  95:SPI.c         ****    // SPIM_WriteTxData(0x12u);
  96:SPI.c         **** 
  97:SPI.c         ****     /* We need to know the moment when SPI communication is complete
  98:SPI.c         ****     * to display received data. SPIS_SPI_DONE status should be polled. 
  99:SPI.c         ****     */
 100:SPI.c         ****     while(!(SPIS_ReadTxStatus() & SPIS_STS_SPI_DONE));
 105              		.loc 1 100 0
 106 0060 00BF     		nop
 107              	.L2:
 108              		.loc 1 100 0 is_stmt 0 discriminator 1
 109 0062 FFF7FEFF 		bl	SPIS_ReadTxStatus
 110 0066 0346     		mov	r3, r0
 111 0068 03F00103 		and	r3, r3, #1
 112 006c 002B     		cmp	r3, #0
 113 006e F8D0     		beq	.L2
 101:SPI.c         ****     
 102:SPI.c         ****     /* SPI communication is complete so we can display received data */
 103:SPI.c         ****     
 104:SPI.c         ****   //  LCD_Position(0u,0u);
 105:SPI.c         ****     UART_1_PutString("SPIM Rx data: \r\n\r\n");
 114              		.loc 1 105 0 is_stmt 1
ARM GAS  C:\Users\TOMAS~1.GEC\AppData\Local\Temp\ccAktOyX.s 			page 5


 115 0070 2248     		ldr	r0, .L7
 116 0072 FFF7FEFF 		bl	UART_1_PutString
 106:SPI.c         ****     
 107:SPI.c         ****     char M_Rx_char[3];
 108:SPI.c         ****     char S_Rx_char[3];
 109:SPI.c         ****     uint8 M_Rx_int;
 110:SPI.c         ****     uint8 S_Rx_int;
 111:SPI.c         ****     //LCD_Position(1u,0u);
 112:SPI.c         ****     for(i=0u; i<5u; i++)
 117              		.loc 1 112 0
 118 0076 0023     		movs	r3, #0
 119 0078 FB75     		strb	r3, [r7, #23]
 120 007a 12E0     		b	.L3
 121              	.L4:
 113:SPI.c         ****     {
 114:SPI.c         ****         /* Read from SPIM Rx software buffer */
 115:SPI.c         ****         M_Rx_int=SPIM_ReadRxData();
 122              		.loc 1 115 0 discriminator 3
 123 007c FFF7FEFF 		bl	SPIM_ReadRxData
 124 0080 0346     		mov	r3, r0
 125 0082 BB75     		strb	r3, [r7, #22]
 116:SPI.c         ****         sprintf(M_Rx_char,"%x ",M_Rx_int);
 126              		.loc 1 116 0 discriminator 3
 127 0084 BA7D     		ldrb	r2, [r7, #22]	@ zero_extendqisi2
 128 0086 07F11003 		add	r3, r7, #16
 129 008a 1D49     		ldr	r1, .L7+4
 130 008c 1846     		mov	r0, r3
 131 008e FFF7FEFF 		bl	sprintf
 117:SPI.c         ****         UART_1_PutString(M_Rx_char);
 132              		.loc 1 117 0 discriminator 3
 133 0092 07F11003 		add	r3, r7, #16
 134 0096 1846     		mov	r0, r3
 135 0098 FFF7FEFF 		bl	UART_1_PutString
 112:SPI.c         ****     {
 136              		.loc 1 112 0 discriminator 3
 137 009c FB7D     		ldrb	r3, [r7, #23]	@ zero_extendqisi2
 138 009e 0133     		adds	r3, r3, #1
 139 00a0 FB75     		strb	r3, [r7, #23]
 140              	.L3:
 112:SPI.c         ****     {
 141              		.loc 1 112 0 is_stmt 0 discriminator 1
 142 00a2 FB7D     		ldrb	r3, [r7, #23]	@ zero_extendqisi2
 143 00a4 042B     		cmp	r3, #4
 144 00a6 E9D9     		bls	.L4
 118:SPI.c         ****     }
 119:SPI.c         **** 
 120:SPI.c         ****     CyDelay(1000u);
 145              		.loc 1 120 0 is_stmt 1
 146 00a8 4FF47A70 		mov	r0, #1000
 147 00ac FFF7FEFF 		bl	CyDelay
 121:SPI.c         ****     UART_1_PutString("\r\n\r\n");
 148              		.loc 1 121 0
 149 00b0 1448     		ldr	r0, .L7+8
 150 00b2 FFF7FEFF 		bl	UART_1_PutString
 122:SPI.c         ****   //  LCD_ClearDisplay();
 123:SPI.c         ****     
 124:SPI.c         ****     //LCD_Position(0u,0u);
ARM GAS  C:\Users\TOMAS~1.GEC\AppData\Local\Temp\ccAktOyX.s 			page 6


 125:SPI.c         ****     UART_1_PutString("SPIS Rx data: \r\n\r\n");
 151              		.loc 1 125 0
 152 00b6 1448     		ldr	r0, .L7+12
 153 00b8 FFF7FEFF 		bl	UART_1_PutString
 126:SPI.c         ****     
 127:SPI.c         ****    // LCD_Position(1u,0u);
 128:SPI.c         ****     
 129:SPI.c         ****     for(i=0u; i<5u; i++)
 154              		.loc 1 129 0
 155 00bc 0023     		movs	r3, #0
 156 00be FB75     		strb	r3, [r7, #23]
 157 00c0 12E0     		b	.L5
 158              	.L6:
 130:SPI.c         ****     {
 131:SPI.c         ****         /* Read from SPIS Rx software buffer */
 132:SPI.c         ****        S_Rx_int=SPIS_ReadRxData();
 159              		.loc 1 132 0 discriminator 3
 160 00c2 FFF7FEFF 		bl	SPIS_ReadRxData
 161 00c6 0346     		mov	r3, r0
 162 00c8 7B75     		strb	r3, [r7, #21]
 133:SPI.c         ****         sprintf(S_Rx_char,"%x ",S_Rx_int);
 163              		.loc 1 133 0 discriminator 3
 164 00ca 7A7D     		ldrb	r2, [r7, #21]	@ zero_extendqisi2
 165 00cc 07F10C03 		add	r3, r7, #12
 166 00d0 0B49     		ldr	r1, .L7+4
 167 00d2 1846     		mov	r0, r3
 168 00d4 FFF7FEFF 		bl	sprintf
 134:SPI.c         ****        UART_1_PutString(S_Rx_char);       
 169              		.loc 1 134 0 discriminator 3
 170 00d8 07F10C03 		add	r3, r7, #12
 171 00dc 1846     		mov	r0, r3
 172 00de FFF7FEFF 		bl	UART_1_PutString
 129:SPI.c         ****     {
 173              		.loc 1 129 0 discriminator 3
 174 00e2 FB7D     		ldrb	r3, [r7, #23]	@ zero_extendqisi2
 175 00e4 0133     		adds	r3, r3, #1
 176 00e6 FB75     		strb	r3, [r7, #23]
 177              	.L5:
 129:SPI.c         ****     {
 178              		.loc 1 129 0 is_stmt 0 discriminator 1
 179 00e8 FB7D     		ldrb	r3, [r7, #23]	@ zero_extendqisi2
 180 00ea 042B     		cmp	r3, #4
 181 00ec E9D9     		bls	.L6
 135:SPI.c         ****     }
 136:SPI.c         ****     UART_1_PutString("\r\n\r\n");
 182              		.loc 1 136 0 is_stmt 1
 183 00ee 0548     		ldr	r0, .L7+8
 184 00f0 FFF7FEFF 		bl	UART_1_PutString
 137:SPI.c         ****     //while(1u){;}
 138:SPI.c         ****       
 139:SPI.c         **** }    
 185              		.loc 1 139 0
 186 00f4 00BF     		nop
 187 00f6 1837     		adds	r7, r7, #24
 188              		.cfi_def_cfa_offset 8
 189 00f8 BD46     		mov	sp, r7
 190              		.cfi_def_cfa_register 13
ARM GAS  C:\Users\TOMAS~1.GEC\AppData\Local\Temp\ccAktOyX.s 			page 7


 191              		@ sp needed
 192 00fa 80BD     		pop	{r7, pc}
 193              	.L8:
 194              		.align	2
 195              	.L7:
 196 00fc 00000000 		.word	.LC0
 197 0100 14000000 		.word	.LC1
 198 0104 18000000 		.word	.LC2
 199 0108 20000000 		.word	.LC3
 200              		.cfi_endproc
 201              	.LFE64:
 202              		.size	SPI_main, .-SPI_main
 203              		.text
 204              	.Letext0:
 205              		.file 2 "c:\\program files (x86)\\cypress\\psoc creator\\4.1\\psoc creator\\import\\gnu\\arm\\5.4.
 206              		.file 3 "c:\\program files (x86)\\cypress\\psoc creator\\4.1\\psoc creator\\import\\gnu\\arm\\5.4.
 207              		.file 4 "Generated_Source\\PSoC5/cytypes.h"
 208              		.file 5 "Generated_Source\\PSoC5/core_cm3.h"