ARM GAS  C:\Users\Tomas\AppData\Local\Temp\ccjjZf9M.s 			page 1


   1              		.syntax unified
   2              		.cpu cortex-m3
   3              		.fpu softvfp
   4              		.eabi_attribute 20, 1
   5              		.eabi_attribute 21, 1
   6              		.eabi_attribute 23, 3
   7              		.eabi_attribute 24, 1
   8              		.eabi_attribute 25, 1
   9              		.eabi_attribute 26, 1
  10              		.eabi_attribute 30, 6
  11              		.eabi_attribute 34, 1
  12              		.eabi_attribute 18, 4
  13              		.thumb
  14              		.syntax unified
  15              		.file	"cyfitter_cfg.c"
  16              		.text
  17              	.Ltext0:
  18              		.cfi_sections	.debug_frame
  19              		.section	.text.CYMEMZERO,"ax",%progbits
  20              		.align	2
  21              		.thumb
  22              		.thumb_func
  23              		.type	CYMEMZERO, %function
  24              	CYMEMZERO:
  25              	.LFB0:
  26              		.file 1 "Generated_Source\\PSoC5\\cyfitter_cfg.c"
   1:Generated_Source\PSoC5/cyfitter_cfg.c **** 
   2:Generated_Source\PSoC5/cyfitter_cfg.c **** /*******************************************************************************
   3:Generated_Source\PSoC5/cyfitter_cfg.c **** * File Name: cyfitter_cfg.c
   4:Generated_Source\PSoC5/cyfitter_cfg.c **** * 
   5:Generated_Source\PSoC5/cyfitter_cfg.c **** * PSoC Creator  4.1 Update 1
   6:Generated_Source\PSoC5/cyfitter_cfg.c **** *
   7:Generated_Source\PSoC5/cyfitter_cfg.c **** * Description:
   8:Generated_Source\PSoC5/cyfitter_cfg.c **** * This file contains device initialization code.
   9:Generated_Source\PSoC5/cyfitter_cfg.c **** * Except for the user defined sections in CyClockStartupError(), this file should not be modified.
  10:Generated_Source\PSoC5/cyfitter_cfg.c **** * This file is automatically generated by PSoC Creator.
  11:Generated_Source\PSoC5/cyfitter_cfg.c **** *
  12:Generated_Source\PSoC5/cyfitter_cfg.c **** ********************************************************************************
  13:Generated_Source\PSoC5/cyfitter_cfg.c **** * Copyright (c) 2007-2017 Cypress Semiconductor.  All rights reserved.
  14:Generated_Source\PSoC5/cyfitter_cfg.c **** * You may use this file only in accordance with the license, terms, conditions, 
  15:Generated_Source\PSoC5/cyfitter_cfg.c **** * disclaimers, and limitations in the end user license agreement accompanying 
  16:Generated_Source\PSoC5/cyfitter_cfg.c **** * the software package with which this file was provided.
  17:Generated_Source\PSoC5/cyfitter_cfg.c **** ********************************************************************************/
  18:Generated_Source\PSoC5/cyfitter_cfg.c **** 
  19:Generated_Source\PSoC5/cyfitter_cfg.c **** #include <string.h>
  20:Generated_Source\PSoC5/cyfitter_cfg.c **** #include "cytypes.h"
  21:Generated_Source\PSoC5/cyfitter_cfg.c **** #include "cydevice_trm.h"
  22:Generated_Source\PSoC5/cyfitter_cfg.c **** #include "cyfitter.h"
  23:Generated_Source\PSoC5/cyfitter_cfg.c **** #include "CyLib.h"
  24:Generated_Source\PSoC5/cyfitter_cfg.c **** #include "cyfitter_cfg.h"
  25:Generated_Source\PSoC5/cyfitter_cfg.c **** 
  26:Generated_Source\PSoC5/cyfitter_cfg.c **** #define CY_NEED_CYCLOCKSTARTUPERROR 1
  27:Generated_Source\PSoC5/cyfitter_cfg.c **** 
  28:Generated_Source\PSoC5/cyfitter_cfg.c **** 
  29:Generated_Source\PSoC5/cyfitter_cfg.c **** #if defined(__GNUC__) || defined(__ARMCC_VERSION)
  30:Generated_Source\PSoC5/cyfitter_cfg.c ****     #define CYPACKED 
  31:Generated_Source\PSoC5/cyfitter_cfg.c ****     #define CYPACKED_ATTR __attribute__ ((packed))
ARM GAS  C:\Users\Tomas\AppData\Local\Temp\ccjjZf9M.s 			page 2


  32:Generated_Source\PSoC5/cyfitter_cfg.c ****     #define CYALIGNED __attribute__ ((aligned))
  33:Generated_Source\PSoC5/cyfitter_cfg.c ****     #define CY_CFG_UNUSED __attribute__ ((unused))
  34:Generated_Source\PSoC5/cyfitter_cfg.c ****     #ifndef CY_CFG_SECTION
  35:Generated_Source\PSoC5/cyfitter_cfg.c ****         #define CY_CFG_SECTION __attribute__ ((section(".psocinit")))
  36:Generated_Source\PSoC5/cyfitter_cfg.c ****     #endif
  37:Generated_Source\PSoC5/cyfitter_cfg.c ****     
  38:Generated_Source\PSoC5/cyfitter_cfg.c ****     #if defined(__ARMCC_VERSION)
  39:Generated_Source\PSoC5/cyfitter_cfg.c ****         #define CY_CFG_MEMORY_BARRIER() __memory_changed()
  40:Generated_Source\PSoC5/cyfitter_cfg.c ****     #else
  41:Generated_Source\PSoC5/cyfitter_cfg.c ****         #define CY_CFG_MEMORY_BARRIER() __sync_synchronize()
  42:Generated_Source\PSoC5/cyfitter_cfg.c ****     #endif
  43:Generated_Source\PSoC5/cyfitter_cfg.c ****     
  44:Generated_Source\PSoC5/cyfitter_cfg.c **** #elif defined(__ICCARM__)
  45:Generated_Source\PSoC5/cyfitter_cfg.c ****     #include <intrinsics.h>
  46:Generated_Source\PSoC5/cyfitter_cfg.c **** 
  47:Generated_Source\PSoC5/cyfitter_cfg.c ****     #define CYPACKED __packed
  48:Generated_Source\PSoC5/cyfitter_cfg.c ****     #define CYPACKED_ATTR 
  49:Generated_Source\PSoC5/cyfitter_cfg.c ****     #define CYALIGNED _Pragma("data_alignment=4")
  50:Generated_Source\PSoC5/cyfitter_cfg.c ****     #define CY_CFG_UNUSED _Pragma("diag_suppress=Pe177")
  51:Generated_Source\PSoC5/cyfitter_cfg.c ****     #define CY_CFG_SECTION _Pragma("location=\".psocinit\"")
  52:Generated_Source\PSoC5/cyfitter_cfg.c ****     
  53:Generated_Source\PSoC5/cyfitter_cfg.c ****     #define CY_CFG_MEMORY_BARRIER() __DMB()
  54:Generated_Source\PSoC5/cyfitter_cfg.c ****     
  55:Generated_Source\PSoC5/cyfitter_cfg.c **** #else
  56:Generated_Source\PSoC5/cyfitter_cfg.c ****     #error Unsupported toolchain
  57:Generated_Source\PSoC5/cyfitter_cfg.c **** #endif
  58:Generated_Source\PSoC5/cyfitter_cfg.c **** 
  59:Generated_Source\PSoC5/cyfitter_cfg.c **** #ifndef CYCODE
  60:Generated_Source\PSoC5/cyfitter_cfg.c ****     #define CYCODE
  61:Generated_Source\PSoC5/cyfitter_cfg.c **** #endif
  62:Generated_Source\PSoC5/cyfitter_cfg.c **** #ifndef CYDATA
  63:Generated_Source\PSoC5/cyfitter_cfg.c ****     #define CYDATA
  64:Generated_Source\PSoC5/cyfitter_cfg.c **** #endif
  65:Generated_Source\PSoC5/cyfitter_cfg.c **** #ifndef CYFAR
  66:Generated_Source\PSoC5/cyfitter_cfg.c ****     #define CYFAR
  67:Generated_Source\PSoC5/cyfitter_cfg.c **** #endif
  68:Generated_Source\PSoC5/cyfitter_cfg.c **** #ifndef CYXDATA
  69:Generated_Source\PSoC5/cyfitter_cfg.c ****     #define CYXDATA
  70:Generated_Source\PSoC5/cyfitter_cfg.c **** #endif
  71:Generated_Source\PSoC5/cyfitter_cfg.c **** 
  72:Generated_Source\PSoC5/cyfitter_cfg.c **** 
  73:Generated_Source\PSoC5/cyfitter_cfg.c **** CY_CFG_UNUSED
  74:Generated_Source\PSoC5/cyfitter_cfg.c **** static void CYMEMZERO(void *s, size_t n);
  75:Generated_Source\PSoC5/cyfitter_cfg.c **** CY_CFG_UNUSED
  76:Generated_Source\PSoC5/cyfitter_cfg.c **** static void CYMEMZERO(void *s, size_t n)
  77:Generated_Source\PSoC5/cyfitter_cfg.c **** {
  27              		.loc 1 77 0
  28              		.cfi_startproc
  29              		@ args = 0, pretend = 0, frame = 8
  30              		@ frame_needed = 1, uses_anonymous_args = 0
  31 0000 80B5     		push	{r7, lr}
  32              		.cfi_def_cfa_offset 8
  33              		.cfi_offset 7, -8
  34              		.cfi_offset 14, -4
  35 0002 82B0     		sub	sp, sp, #8
  36              		.cfi_def_cfa_offset 16
  37 0004 00AF     		add	r7, sp, #0
ARM GAS  C:\Users\Tomas\AppData\Local\Temp\ccjjZf9M.s 			page 3


  38              		.cfi_def_cfa_register 7
  39 0006 7860     		str	r0, [r7, #4]
  40 0008 3960     		str	r1, [r7]
  78:Generated_Source\PSoC5/cyfitter_cfg.c **** 	(void)memset(s, 0, n);
  41              		.loc 1 78 0
  42 000a 3A68     		ldr	r2, [r7]
  43 000c 0021     		movs	r1, #0
  44 000e 7868     		ldr	r0, [r7, #4]
  45 0010 FFF7FEFF 		bl	memset
  79:Generated_Source\PSoC5/cyfitter_cfg.c **** }
  46              		.loc 1 79 0
  47 0014 00BF     		nop
  48 0016 0837     		adds	r7, r7, #8
  49              		.cfi_def_cfa_offset 8
  50 0018 BD46     		mov	sp, r7
  51              		.cfi_def_cfa_register 13
  52              		@ sp needed
  53 001a 80BD     		pop	{r7, pc}
  54              		.cfi_endproc
  55              	.LFE0:
  56              		.size	CYMEMZERO, .-CYMEMZERO
  57              		.section	.text.CYCONFIGCPY,"ax",%progbits
  58              		.align	2
  59              		.thumb
  60              		.thumb_func
  61              		.type	CYCONFIGCPY, %function
  62              	CYCONFIGCPY:
  63              	.LFB1:
  80:Generated_Source\PSoC5/cyfitter_cfg.c **** CY_CFG_UNUSED
  81:Generated_Source\PSoC5/cyfitter_cfg.c **** static void CYCONFIGCPY(void *dest, const void *src, size_t n);
  82:Generated_Source\PSoC5/cyfitter_cfg.c **** CY_CFG_UNUSED
  83:Generated_Source\PSoC5/cyfitter_cfg.c **** static void CYCONFIGCPY(void *dest, const void *src, size_t n)
  84:Generated_Source\PSoC5/cyfitter_cfg.c **** {
  64              		.loc 1 84 0
  65              		.cfi_startproc
  66              		@ args = 0, pretend = 0, frame = 16
  67              		@ frame_needed = 1, uses_anonymous_args = 0
  68 0000 80B5     		push	{r7, lr}
  69              		.cfi_def_cfa_offset 8
  70              		.cfi_offset 7, -8
  71              		.cfi_offset 14, -4
  72 0002 84B0     		sub	sp, sp, #16
  73              		.cfi_def_cfa_offset 24
  74 0004 00AF     		add	r7, sp, #0
  75              		.cfi_def_cfa_register 7
  76 0006 F860     		str	r0, [r7, #12]
  77 0008 B960     		str	r1, [r7, #8]
  78 000a 7A60     		str	r2, [r7, #4]
  85:Generated_Source\PSoC5/cyfitter_cfg.c **** 	(void)memcpy(dest, src, n);
  79              		.loc 1 85 0
  80 000c 7A68     		ldr	r2, [r7, #4]
  81 000e B968     		ldr	r1, [r7, #8]
  82 0010 F868     		ldr	r0, [r7, #12]
  83 0012 FFF7FEFF 		bl	memcpy
  86:Generated_Source\PSoC5/cyfitter_cfg.c **** }
  84              		.loc 1 86 0
  85 0016 00BF     		nop
ARM GAS  C:\Users\Tomas\AppData\Local\Temp\ccjjZf9M.s 			page 4


  86 0018 1037     		adds	r7, r7, #16
  87              		.cfi_def_cfa_offset 8
  88 001a BD46     		mov	sp, r7
  89              		.cfi_def_cfa_register 13
  90              		@ sp needed
  91 001c 80BD     		pop	{r7, pc}
  92              		.cfi_endproc
  93              	.LFE1:
  94              		.size	CYCONFIGCPY, .-CYCONFIGCPY
  95 001e 00BF     		.section	.text.CYCONFIGCPYCODE,"ax",%progbits
  96              		.align	2
  97              		.thumb
  98              		.thumb_func
  99              		.type	CYCONFIGCPYCODE, %function
 100              	CYCONFIGCPYCODE:
 101              	.LFB2:
  87:Generated_Source\PSoC5/cyfitter_cfg.c **** CY_CFG_UNUSED
  88:Generated_Source\PSoC5/cyfitter_cfg.c **** static void CYCONFIGCPYCODE(void *dest, const void *src, size_t n);
  89:Generated_Source\PSoC5/cyfitter_cfg.c **** CY_CFG_UNUSED
  90:Generated_Source\PSoC5/cyfitter_cfg.c **** static void CYCONFIGCPYCODE(void *dest, const void *src, size_t n)
  91:Generated_Source\PSoC5/cyfitter_cfg.c **** {
 102              		.loc 1 91 0
 103              		.cfi_startproc
 104              		@ args = 0, pretend = 0, frame = 16
 105              		@ frame_needed = 1, uses_anonymous_args = 0
 106 0000 80B5     		push	{r7, lr}
 107              		.cfi_def_cfa_offset 8
 108              		.cfi_offset 7, -8
 109              		.cfi_offset 14, -4
 110 0002 84B0     		sub	sp, sp, #16
 111              		.cfi_def_cfa_offset 24
 112 0004 00AF     		add	r7, sp, #0
 113              		.cfi_def_cfa_register 7
 114 0006 F860     		str	r0, [r7, #12]
 115 0008 B960     		str	r1, [r7, #8]
 116 000a 7A60     		str	r2, [r7, #4]
  92:Generated_Source\PSoC5/cyfitter_cfg.c **** 	(void)memcpy(dest, src, n);
 117              		.loc 1 92 0
 118 000c 7A68     		ldr	r2, [r7, #4]
 119 000e B968     		ldr	r1, [r7, #8]
 120 0010 F868     		ldr	r0, [r7, #12]
 121 0012 FFF7FEFF 		bl	memcpy
  93:Generated_Source\PSoC5/cyfitter_cfg.c **** }
 122              		.loc 1 93 0
 123 0016 00BF     		nop
 124 0018 1037     		adds	r7, r7, #16
 125              		.cfi_def_cfa_offset 8
 126 001a BD46     		mov	sp, r7
 127              		.cfi_def_cfa_register 13
 128              		@ sp needed
 129 001c 80BD     		pop	{r7, pc}
 130              		.cfi_endproc
 131              	.LFE2:
 132              		.size	CYCONFIGCPYCODE, .-CYCONFIGCPYCODE
 133 001e 00BF     		.section	.text.CyClockStartupError,"ax",%progbits
 134              		.align	2
 135              		.thumb
ARM GAS  C:\Users\Tomas\AppData\Local\Temp\ccjjZf9M.s 			page 5


 136              		.thumb_func
 137              		.type	CyClockStartupError, %function
 138              	CyClockStartupError:
 139              	.LFB3:
  94:Generated_Source\PSoC5/cyfitter_cfg.c **** 
  95:Generated_Source\PSoC5/cyfitter_cfg.c **** 
  96:Generated_Source\PSoC5/cyfitter_cfg.c **** 
  97:Generated_Source\PSoC5/cyfitter_cfg.c **** 
  98:Generated_Source\PSoC5/cyfitter_cfg.c **** /* Clock startup error codes                                                   */
  99:Generated_Source\PSoC5/cyfitter_cfg.c **** #define CYCLOCKSTART_NO_ERROR    0u
 100:Generated_Source\PSoC5/cyfitter_cfg.c **** #define CYCLOCKSTART_XTAL_ERROR  1u
 101:Generated_Source\PSoC5/cyfitter_cfg.c **** #define CYCLOCKSTART_32KHZ_ERROR 2u
 102:Generated_Source\PSoC5/cyfitter_cfg.c **** #define CYCLOCKSTART_PLL_ERROR   3u
 103:Generated_Source\PSoC5/cyfitter_cfg.c **** #define CYCLOCKSTART_FLL_ERROR   4u
 104:Generated_Source\PSoC5/cyfitter_cfg.c **** 
 105:Generated_Source\PSoC5/cyfitter_cfg.c **** 
 106:Generated_Source\PSoC5/cyfitter_cfg.c **** #ifdef CY_NEED_CYCLOCKSTARTUPERROR
 107:Generated_Source\PSoC5/cyfitter_cfg.c **** /*******************************************************************************
 108:Generated_Source\PSoC5/cyfitter_cfg.c **** * Function Name: CyClockStartupError
 109:Generated_Source\PSoC5/cyfitter_cfg.c **** ********************************************************************************
 110:Generated_Source\PSoC5/cyfitter_cfg.c **** * Summary:
 111:Generated_Source\PSoC5/cyfitter_cfg.c **** *  If an error is encountered during clock configuration (crystal startup error,
 112:Generated_Source\PSoC5/cyfitter_cfg.c **** *  PLL lock error, etc.), the system will end up here.  Unless reimplemented by
 113:Generated_Source\PSoC5/cyfitter_cfg.c **** *  the customer, this function will stop in an infinite loop.
 114:Generated_Source\PSoC5/cyfitter_cfg.c **** *
 115:Generated_Source\PSoC5/cyfitter_cfg.c **** * Parameters:
 116:Generated_Source\PSoC5/cyfitter_cfg.c **** *   void
 117:Generated_Source\PSoC5/cyfitter_cfg.c **** *
 118:Generated_Source\PSoC5/cyfitter_cfg.c **** * Return:
 119:Generated_Source\PSoC5/cyfitter_cfg.c **** *   void
 120:Generated_Source\PSoC5/cyfitter_cfg.c **** *
 121:Generated_Source\PSoC5/cyfitter_cfg.c **** *******************************************************************************/
 122:Generated_Source\PSoC5/cyfitter_cfg.c **** CY_CFG_UNUSED
 123:Generated_Source\PSoC5/cyfitter_cfg.c **** static void CyClockStartupError(uint8 errorCode);
 124:Generated_Source\PSoC5/cyfitter_cfg.c **** CY_CFG_UNUSED
 125:Generated_Source\PSoC5/cyfitter_cfg.c **** static void CyClockStartupError(uint8 errorCode)
 126:Generated_Source\PSoC5/cyfitter_cfg.c **** {
 140              		.loc 1 126 0
 141              		.cfi_startproc
 142              		@ args = 0, pretend = 0, frame = 8
 143              		@ frame_needed = 1, uses_anonymous_args = 0
 144              		@ link register save eliminated.
 145 0000 80B4     		push	{r7}
 146              		.cfi_def_cfa_offset 4
 147              		.cfi_offset 7, -4
 148 0002 83B0     		sub	sp, sp, #12
 149              		.cfi_def_cfa_offset 16
 150 0004 00AF     		add	r7, sp, #0
 151              		.cfi_def_cfa_register 7
 152 0006 0346     		mov	r3, r0
 153 0008 FB71     		strb	r3, [r7, #7]
 154              	.L5:
 127:Generated_Source\PSoC5/cyfitter_cfg.c ****     /* To remove the compiler warning if errorCode not used. */
 128:Generated_Source\PSoC5/cyfitter_cfg.c **** #if defined(CY_PSOC3) && (CY_PSOC3)
 129:Generated_Source\PSoC5/cyfitter_cfg.c ****     errorCode = errorCode;
 130:Generated_Source\PSoC5/cyfitter_cfg.c **** #else
 131:Generated_Source\PSoC5/cyfitter_cfg.c ****     (void)errorCode;
ARM GAS  C:\Users\Tomas\AppData\Local\Temp\ccjjZf9M.s 			page 6


 132:Generated_Source\PSoC5/cyfitter_cfg.c **** #endif /* CY_PSOC3 */
 133:Generated_Source\PSoC5/cyfitter_cfg.c **** 
 134:Generated_Source\PSoC5/cyfitter_cfg.c ****     /* If we have a clock startup error (bad MHz crystal, PLL lock, etc.),  */
 135:Generated_Source\PSoC5/cyfitter_cfg.c ****     /* we will end up here to allow the customer to implement something to  */
 136:Generated_Source\PSoC5/cyfitter_cfg.c ****     /* deal with the clock condition.                                       */
 137:Generated_Source\PSoC5/cyfitter_cfg.c **** 
 138:Generated_Source\PSoC5/cyfitter_cfg.c **** #ifdef CY_CFG_CLOCK_STARTUP_ERROR_CALLBACK
 139:Generated_Source\PSoC5/cyfitter_cfg.c ****     CY_CFG_Clock_Startup_ErrorCallback();
 140:Generated_Source\PSoC5/cyfitter_cfg.c **** #else
 141:Generated_Source\PSoC5/cyfitter_cfg.c ****     /*  If not using CY_CFG_CLOCK_STARTUP_ERROR_CALLBACK, place your clock startup code here. */
 142:Generated_Source\PSoC5/cyfitter_cfg.c ****     /* `#START CyClockStartupError` */
 143:Generated_Source\PSoC5/cyfitter_cfg.c **** 
 144:Generated_Source\PSoC5/cyfitter_cfg.c **** 
 145:Generated_Source\PSoC5/cyfitter_cfg.c **** 
 146:Generated_Source\PSoC5/cyfitter_cfg.c ****     /* `#END` */
 147:Generated_Source\PSoC5/cyfitter_cfg.c **** 
 148:Generated_Source\PSoC5/cyfitter_cfg.c ****     while(1) {}
 155              		.loc 1 148 0 discriminator 1
 156 000a FEE7     		b	.L5
 157              		.cfi_endproc
 158              	.LFE3:
 159              		.size	CyClockStartupError, .-CyClockStartupError
 160              		.section	.text.cfg_write_bytes32,"ax",%progbits
 161              		.align	2
 162              		.thumb
 163              		.thumb_func
 164              		.type	cfg_write_bytes32, %function
 165              	cfg_write_bytes32:
 166              	.LFB4:
 149:Generated_Source\PSoC5/cyfitter_cfg.c **** #endif /* CY_CFG_CLOCK_STARTUP_ERROR_CALLBACK */
 150:Generated_Source\PSoC5/cyfitter_cfg.c **** }
 151:Generated_Source\PSoC5/cyfitter_cfg.c **** #endif
 152:Generated_Source\PSoC5/cyfitter_cfg.c **** 
 153:Generated_Source\PSoC5/cyfitter_cfg.c **** #define CY_CFG_BASE_ADDR_COUNT 40u
 154:Generated_Source\PSoC5/cyfitter_cfg.c **** CYPACKED typedef struct
 155:Generated_Source\PSoC5/cyfitter_cfg.c **** {
 156:Generated_Source\PSoC5/cyfitter_cfg.c **** 	uint8 offset;
 157:Generated_Source\PSoC5/cyfitter_cfg.c **** 	uint8 value;
 158:Generated_Source\PSoC5/cyfitter_cfg.c **** } CYPACKED_ATTR cy_cfg_addrvalue_t;
 159:Generated_Source\PSoC5/cyfitter_cfg.c **** 
 160:Generated_Source\PSoC5/cyfitter_cfg.c **** #define cy_cfg_addr_table ((const uint32 CYFAR *)0x48000000u)
 161:Generated_Source\PSoC5/cyfitter_cfg.c **** #define cy_cfg_data_table ((const cy_cfg_addrvalue_t CYFAR *)0x480000A0u)
 162:Generated_Source\PSoC5/cyfitter_cfg.c **** 
 163:Generated_Source\PSoC5/cyfitter_cfg.c **** /* IOPORT_7 Address: CYDEV_PRTDSI_PRT12_BASE Size (bytes): 6 */
 164:Generated_Source\PSoC5/cyfitter_cfg.c **** #define BS_IOPORT_7_VAL ((const uint8 CYFAR *)0x480013D0u)
 165:Generated_Source\PSoC5/cyfitter_cfg.c **** 
 166:Generated_Source\PSoC5/cyfitter_cfg.c **** /* IDMUX_IRQ Address: CYREG_IDMUX_IRQ_CTL0 Size (bytes): 8 */
 167:Generated_Source\PSoC5/cyfitter_cfg.c **** #define BS_IDMUX_IRQ_VAL ((const uint8 CYFAR *)0x480013D8u)
 168:Generated_Source\PSoC5/cyfitter_cfg.c **** 
 169:Generated_Source\PSoC5/cyfitter_cfg.c **** /* UDB_1_4_0_CONFIG Address: CYDEV_UCFG_B0_P1_U1_BASE Size (bytes): 128 */
 170:Generated_Source\PSoC5/cyfitter_cfg.c **** #define BS_UDB_1_4_0_CONFIG_VAL ((const uint8 CYFAR *)0x480013E0u)
 171:Generated_Source\PSoC5/cyfitter_cfg.c **** 
 172:Generated_Source\PSoC5/cyfitter_cfg.c **** /* UDB_0_3_1_CONFIG Address: CYDEV_UCFG_B0_P5_U1_BASE Size (bytes): 128 */
 173:Generated_Source\PSoC5/cyfitter_cfg.c **** #define BS_UDB_0_3_1_CONFIG_VAL ((const uint8 CYFAR *)0x48001460u)
 174:Generated_Source\PSoC5/cyfitter_cfg.c **** 
 175:Generated_Source\PSoC5/cyfitter_cfg.c **** /* UDB_1_1_0_CONFIG Address: CYDEV_UCFG_B1_P3_U1_BASE Size (bytes): 128 */
 176:Generated_Source\PSoC5/cyfitter_cfg.c **** #define BS_UDB_1_1_0_CONFIG_VAL ((const uint8 CYFAR *)0x480014E0u)
ARM GAS  C:\Users\Tomas\AppData\Local\Temp\ccjjZf9M.s 			page 7


 177:Generated_Source\PSoC5/cyfitter_cfg.c **** 
 178:Generated_Source\PSoC5/cyfitter_cfg.c **** /* UCFG_BCTL0 Address: CYREG_BCTL0_MDCLK_EN Size (bytes): 16 */
 179:Generated_Source\PSoC5/cyfitter_cfg.c **** #define BS_UCFG_BCTL0_VAL ((const uint8 CYFAR *)0x48001560u)
 180:Generated_Source\PSoC5/cyfitter_cfg.c **** 
 181:Generated_Source\PSoC5/cyfitter_cfg.c **** /* IOPINS0_0 Address: CYREG_PRT0_DM0 Size (bytes): 8 */
 182:Generated_Source\PSoC5/cyfitter_cfg.c **** #define BS_IOPINS0_0_VAL ((const uint8 CYFAR *)0x48001570u)
 183:Generated_Source\PSoC5/cyfitter_cfg.c **** 
 184:Generated_Source\PSoC5/cyfitter_cfg.c **** /* IOPINS0_7 Address: CYREG_PRT12_DR Size (bytes): 10 */
 185:Generated_Source\PSoC5/cyfitter_cfg.c **** #define BS_IOPINS0_7_VAL ((const uint8 CYFAR *)0x48001578u)
 186:Generated_Source\PSoC5/cyfitter_cfg.c **** 
 187:Generated_Source\PSoC5/cyfitter_cfg.c **** /* IOPINS0_8 Address: CYREG_PRT15_DR Size (bytes): 10 */
 188:Generated_Source\PSoC5/cyfitter_cfg.c **** #define BS_IOPINS0_8_VAL ((const uint8 CYFAR *)0x48001584u)
 189:Generated_Source\PSoC5/cyfitter_cfg.c **** 
 190:Generated_Source\PSoC5/cyfitter_cfg.c **** /* IOPINS0_1 Address: CYREG_PRT1_DM0 Size (bytes): 8 */
 191:Generated_Source\PSoC5/cyfitter_cfg.c **** #define BS_IOPINS0_1_VAL ((const uint8 CYFAR *)0x48001590u)
 192:Generated_Source\PSoC5/cyfitter_cfg.c **** 
 193:Generated_Source\PSoC5/cyfitter_cfg.c **** /* IOPINS0_2 Address: CYREG_PRT2_DR Size (bytes): 10 */
 194:Generated_Source\PSoC5/cyfitter_cfg.c **** #define BS_IOPINS0_2_VAL ((const uint8 CYFAR *)0x48001598u)
 195:Generated_Source\PSoC5/cyfitter_cfg.c **** 
 196:Generated_Source\PSoC5/cyfitter_cfg.c **** /* IOPINS0_3 Address: CYREG_PRT3_DM0 Size (bytes): 8 */
 197:Generated_Source\PSoC5/cyfitter_cfg.c **** #define BS_IOPINS0_3_VAL ((const uint8 CYFAR *)0x480015A4u)
 198:Generated_Source\PSoC5/cyfitter_cfg.c **** 
 199:Generated_Source\PSoC5/cyfitter_cfg.c **** /* IOPINS0_4 Address: CYREG_PRT4_DM0 Size (bytes): 8 */
 200:Generated_Source\PSoC5/cyfitter_cfg.c **** #define BS_IOPINS0_4_VAL ((const uint8 CYFAR *)0x480015ACu)
 201:Generated_Source\PSoC5/cyfitter_cfg.c **** 
 202:Generated_Source\PSoC5/cyfitter_cfg.c **** /* IOPINS0_5 Address: CYREG_PRT5_DM0 Size (bytes): 8 */
 203:Generated_Source\PSoC5/cyfitter_cfg.c **** #define BS_IOPINS0_5_VAL ((const uint8 CYFAR *)0x480015B4u)
 204:Generated_Source\PSoC5/cyfitter_cfg.c **** 
 205:Generated_Source\PSoC5/cyfitter_cfg.c **** 
 206:Generated_Source\PSoC5/cyfitter_cfg.c **** /*******************************************************************************
 207:Generated_Source\PSoC5/cyfitter_cfg.c **** * Function Name: cfg_write_bytes32
 208:Generated_Source\PSoC5/cyfitter_cfg.c **** ********************************************************************************
 209:Generated_Source\PSoC5/cyfitter_cfg.c **** * Summary:
 210:Generated_Source\PSoC5/cyfitter_cfg.c **** *  This function is used for setting up the chip configuration areas that
 211:Generated_Source\PSoC5/cyfitter_cfg.c **** *  contain relatively sparse data.
 212:Generated_Source\PSoC5/cyfitter_cfg.c **** *
 213:Generated_Source\PSoC5/cyfitter_cfg.c **** * Parameters:
 214:Generated_Source\PSoC5/cyfitter_cfg.c **** *   void
 215:Generated_Source\PSoC5/cyfitter_cfg.c **** *
 216:Generated_Source\PSoC5/cyfitter_cfg.c **** * Return:
 217:Generated_Source\PSoC5/cyfitter_cfg.c **** *   void
 218:Generated_Source\PSoC5/cyfitter_cfg.c **** *
 219:Generated_Source\PSoC5/cyfitter_cfg.c **** *******************************************************************************/
 220:Generated_Source\PSoC5/cyfitter_cfg.c **** static void cfg_write_bytes32(const uint32 addr_table[], const cy_cfg_addrvalue_t data_table[]);
 221:Generated_Source\PSoC5/cyfitter_cfg.c **** static void cfg_write_bytes32(const uint32 addr_table[], const cy_cfg_addrvalue_t data_table[])
 222:Generated_Source\PSoC5/cyfitter_cfg.c **** {
 167              		.loc 1 222 0
 168              		.cfi_startproc
 169              		@ args = 0, pretend = 0, frame = 24
 170              		@ frame_needed = 1, uses_anonymous_args = 0
 171              		@ link register save eliminated.
 172 0000 80B4     		push	{r7}
 173              		.cfi_def_cfa_offset 4
 174              		.cfi_offset 7, -4
 175 0002 87B0     		sub	sp, sp, #28
 176              		.cfi_def_cfa_offset 32
 177 0004 00AF     		add	r7, sp, #0
ARM GAS  C:\Users\Tomas\AppData\Local\Temp\ccjjZf9M.s 			page 8


 178              		.cfi_def_cfa_register 7
 179 0006 7860     		str	r0, [r7, #4]
 180 0008 3960     		str	r1, [r7]
 223:Generated_Source\PSoC5/cyfitter_cfg.c **** 	/* For 32-bit little-endian architectures */
 224:Generated_Source\PSoC5/cyfitter_cfg.c **** 	uint32 i, j = 0u;
 181              		.loc 1 224 0
 182 000a 0023     		movs	r3, #0
 183 000c 3B61     		str	r3, [r7, #16]
 225:Generated_Source\PSoC5/cyfitter_cfg.c **** 	for (i = 0u; i < CY_CFG_BASE_ADDR_COUNT; i++)
 184              		.loc 1 225 0
 185 000e 0023     		movs	r3, #0
 186 0010 7B61     		str	r3, [r7, #20]
 187 0012 27E0     		b	.L7
 188              	.L10:
 189              	.LBB2:
 226:Generated_Source\PSoC5/cyfitter_cfg.c **** 	{
 227:Generated_Source\PSoC5/cyfitter_cfg.c **** 		uint32 baseAddr = addr_table[i];
 190              		.loc 1 227 0
 191 0014 7B69     		ldr	r3, [r7, #20]
 192 0016 9B00     		lsls	r3, r3, #2
 193 0018 7A68     		ldr	r2, [r7, #4]
 194 001a 1344     		add	r3, r3, r2
 195 001c 1B68     		ldr	r3, [r3]
 196 001e BB60     		str	r3, [r7, #8]
 228:Generated_Source\PSoC5/cyfitter_cfg.c **** 		uint8 count = (uint8)baseAddr;
 197              		.loc 1 228 0
 198 0020 BB68     		ldr	r3, [r7, #8]
 199 0022 FB73     		strb	r3, [r7, #15]
 229:Generated_Source\PSoC5/cyfitter_cfg.c **** 		baseAddr &= 0xFFFFFF00u;
 200              		.loc 1 229 0
 201 0024 BB68     		ldr	r3, [r7, #8]
 202 0026 23F0FF03 		bic	r3, r3, #255
 203 002a BB60     		str	r3, [r7, #8]
 230:Generated_Source\PSoC5/cyfitter_cfg.c **** 		while (count != 0u)
 204              		.loc 1 230 0
 205 002c 14E0     		b	.L8
 206              	.L9:
 231:Generated_Source\PSoC5/cyfitter_cfg.c **** 		{
 232:Generated_Source\PSoC5/cyfitter_cfg.c **** 			CY_SET_REG8((void *)(baseAddr + data_table[j].offset), data_table[j].value);
 207              		.loc 1 232 0
 208 002e 3B69     		ldr	r3, [r7, #16]
 209 0030 5B00     		lsls	r3, r3, #1
 210 0032 3A68     		ldr	r2, [r7]
 211 0034 1344     		add	r3, r3, r2
 212 0036 1B78     		ldrb	r3, [r3]	@ zero_extendqisi2
 213 0038 1A46     		mov	r2, r3
 214 003a BB68     		ldr	r3, [r7, #8]
 215 003c 1344     		add	r3, r3, r2
 216 003e 1946     		mov	r1, r3
 217 0040 3B69     		ldr	r3, [r7, #16]
 218 0042 5B00     		lsls	r3, r3, #1
 219 0044 3A68     		ldr	r2, [r7]
 220 0046 1344     		add	r3, r3, r2
 221 0048 5B78     		ldrb	r3, [r3, #1]	@ zero_extendqisi2
 222 004a 0B70     		strb	r3, [r1]
 233:Generated_Source\PSoC5/cyfitter_cfg.c **** 			j++;
 223              		.loc 1 233 0
ARM GAS  C:\Users\Tomas\AppData\Local\Temp\ccjjZf9M.s 			page 9


 224 004c 3B69     		ldr	r3, [r7, #16]
 225 004e 0133     		adds	r3, r3, #1
 226 0050 3B61     		str	r3, [r7, #16]
 234:Generated_Source\PSoC5/cyfitter_cfg.c **** 			count--;
 227              		.loc 1 234 0
 228 0052 FB7B     		ldrb	r3, [r7, #15]	@ zero_extendqisi2
 229 0054 013B     		subs	r3, r3, #1
 230 0056 FB73     		strb	r3, [r7, #15]
 231              	.L8:
 230:Generated_Source\PSoC5/cyfitter_cfg.c **** 		{
 232              		.loc 1 230 0
 233 0058 FB7B     		ldrb	r3, [r7, #15]	@ zero_extendqisi2
 234 005a 002B     		cmp	r3, #0
 235 005c E7D1     		bne	.L9
 236              	.LBE2:
 225:Generated_Source\PSoC5/cyfitter_cfg.c **** 	{
 237              		.loc 1 225 0 discriminator 2
 238 005e 7B69     		ldr	r3, [r7, #20]
 239 0060 0133     		adds	r3, r3, #1
 240 0062 7B61     		str	r3, [r7, #20]
 241              	.L7:
 225:Generated_Source\PSoC5/cyfitter_cfg.c **** 	{
 242              		.loc 1 225 0 is_stmt 0 discriminator 1
 243 0064 7B69     		ldr	r3, [r7, #20]
 244 0066 272B     		cmp	r3, #39
 245 0068 D4D9     		bls	.L10
 235:Generated_Source\PSoC5/cyfitter_cfg.c **** 		}
 236:Generated_Source\PSoC5/cyfitter_cfg.c **** 	}
 237:Generated_Source\PSoC5/cyfitter_cfg.c **** }
 246              		.loc 1 237 0 is_stmt 1
 247 006a 00BF     		nop
 248 006c 1C37     		adds	r7, r7, #28
 249              		.cfi_def_cfa_offset 4
 250 006e BD46     		mov	sp, r7
 251              		.cfi_def_cfa_register 13
 252              		@ sp needed
 253 0070 80BC     		pop	{r7}
 254              		.cfi_restore 7
 255              		.cfi_def_cfa_offset 0
 256 0072 7047     		bx	lr
 257              		.cfi_endproc
 258              	.LFE4:
 259              		.size	cfg_write_bytes32, .-cfg_write_bytes32
 260              		.section	.text.ClockSetup,"ax",%progbits
 261              		.align	2
 262              		.thumb
 263              		.thumb_func
 264              		.type	ClockSetup, %function
 265              	ClockSetup:
 266              	.LFB5:
 238:Generated_Source\PSoC5/cyfitter_cfg.c **** 
 239:Generated_Source\PSoC5/cyfitter_cfg.c **** /*******************************************************************************
 240:Generated_Source\PSoC5/cyfitter_cfg.c **** * Function Name: ClockSetup
 241:Generated_Source\PSoC5/cyfitter_cfg.c **** ********************************************************************************
 242:Generated_Source\PSoC5/cyfitter_cfg.c **** *
 243:Generated_Source\PSoC5/cyfitter_cfg.c **** * Summary:
 244:Generated_Source\PSoC5/cyfitter_cfg.c **** *  Performs the initialization of all of the clocks in the device based on the
ARM GAS  C:\Users\Tomas\AppData\Local\Temp\ccjjZf9M.s 			page 10


 245:Generated_Source\PSoC5/cyfitter_cfg.c **** *  settings in the Clock tab of the DWR.  This includes enabling the requested
 246:Generated_Source\PSoC5/cyfitter_cfg.c **** *  clocks and setting the necessary dividers to produce the desired frequency. 
 247:Generated_Source\PSoC5/cyfitter_cfg.c **** *
 248:Generated_Source\PSoC5/cyfitter_cfg.c **** * Parameters:
 249:Generated_Source\PSoC5/cyfitter_cfg.c **** *  void
 250:Generated_Source\PSoC5/cyfitter_cfg.c **** *
 251:Generated_Source\PSoC5/cyfitter_cfg.c **** * Return:
 252:Generated_Source\PSoC5/cyfitter_cfg.c **** *  void
 253:Generated_Source\PSoC5/cyfitter_cfg.c **** *
 254:Generated_Source\PSoC5/cyfitter_cfg.c **** *******************************************************************************/
 255:Generated_Source\PSoC5/cyfitter_cfg.c **** static void ClockSetup(void);
 256:Generated_Source\PSoC5/cyfitter_cfg.c **** static void ClockSetup(void)
 257:Generated_Source\PSoC5/cyfitter_cfg.c **** {
 267              		.loc 1 257 0
 268              		.cfi_startproc
 269              		@ args = 0, pretend = 0, frame = 8
 270              		@ frame_needed = 1, uses_anonymous_args = 0
 271 0000 80B5     		push	{r7, lr}
 272              		.cfi_def_cfa_offset 8
 273              		.cfi_offset 7, -8
 274              		.cfi_offset 14, -4
 275 0002 82B0     		sub	sp, sp, #8
 276              		.cfi_def_cfa_offset 16
 277 0004 00AF     		add	r7, sp, #0
 278              		.cfi_def_cfa_register 7
 258:Generated_Source\PSoC5/cyfitter_cfg.c **** 	uint8 x32TrHold;
 259:Generated_Source\PSoC5/cyfitter_cfg.c **** 	uint32 timeout;
 260:Generated_Source\PSoC5/cyfitter_cfg.c **** 	uint8 pllLock;
 261:Generated_Source\PSoC5/cyfitter_cfg.c **** 
 262:Generated_Source\PSoC5/cyfitter_cfg.c **** 	x32TrHold = CY_GET_XTND_REG8((void CYFAR *)CYREG_X32_TR);
 279              		.loc 1 262 0
 280 0006 584B     		ldr	r3, .L22
 281 0008 1B78     		ldrb	r3, [r3]
 282 000a BB70     		strb	r3, [r7, #2]
 263:Generated_Source\PSoC5/cyfitter_cfg.c **** 
 264:Generated_Source\PSoC5/cyfitter_cfg.c **** 	/* Configure Digital Clocks based on settings from Clock DWR */
 265:Generated_Source\PSoC5/cyfitter_cfg.c **** 	CY_SET_XTND_REG16((void CYFAR *)(CYREG_CLKDIST_DCFG0_CFG0), 0x003Bu);
 283              		.loc 1 265 0
 284 000c 574B     		ldr	r3, .L22+4
 285 000e 3B22     		movs	r2, #59
 286 0010 1A80     		strh	r2, [r3]	@ movhi
 266:Generated_Source\PSoC5/cyfitter_cfg.c **** 	CY_SET_XTND_REG8((void CYFAR *)(CYREG_CLKDIST_DCFG0_CFG0 + 0x2u), 0x18u);
 287              		.loc 1 266 0
 288 0012 574B     		ldr	r3, .L22+8
 289 0014 1822     		movs	r2, #24
 290 0016 1A70     		strb	r2, [r3]
 267:Generated_Source\PSoC5/cyfitter_cfg.c **** 	CY_SET_XTND_REG16((void CYFAR *)(CYREG_CLKDIST_DCFG1_CFG0), 0x0017u);
 291              		.loc 1 267 0
 292 0018 564B     		ldr	r3, .L22+12
 293 001a 1722     		movs	r2, #23
 294 001c 1A80     		strh	r2, [r3]	@ movhi
 268:Generated_Source\PSoC5/cyfitter_cfg.c **** 	CY_SET_XTND_REG8((void CYFAR *)(CYREG_CLKDIST_DCFG1_CFG0 + 0x2u), 0x1Au);
 295              		.loc 1 268 0
 296 001e 564B     		ldr	r3, .L22+16
 297 0020 1A22     		movs	r2, #26
 298 0022 1A70     		strb	r2, [r3]
 269:Generated_Source\PSoC5/cyfitter_cfg.c **** 	CY_SET_XTND_REG16((void CYFAR *)(CYREG_CLKDIST_DCFG2_CFG0), 0x030Cu);
ARM GAS  C:\Users\Tomas\AppData\Local\Temp\ccjjZf9M.s 			page 11


 299              		.loc 1 269 0
 300 0024 554B     		ldr	r3, .L22+20
 301 0026 4FF44372 		mov	r2, #780
 302 002a 1A80     		strh	r2, [r3]	@ movhi
 270:Generated_Source\PSoC5/cyfitter_cfg.c **** 	CY_SET_XTND_REG8((void CYFAR *)(CYREG_CLKDIST_DCFG2_CFG0 + 0x2u), 0x18u);
 303              		.loc 1 270 0
 304 002c 544B     		ldr	r3, .L22+24
 305 002e 1822     		movs	r2, #24
 306 0030 1A70     		strb	r2, [r3]
 271:Generated_Source\PSoC5/cyfitter_cfg.c **** 
 272:Generated_Source\PSoC5/cyfitter_cfg.c **** 	/* Configure ILO based on settings from Clock DWR */
 273:Generated_Source\PSoC5/cyfitter_cfg.c **** 	CY_SET_XTND_REG8((void CYFAR *)(CYREG_SLOWCLK_ILO_CR0), 0x02u);
 307              		.loc 1 273 0
 308 0032 544B     		ldr	r3, .L22+28
 309 0034 0222     		movs	r2, #2
 310 0036 1A70     		strb	r2, [r3]
 274:Generated_Source\PSoC5/cyfitter_cfg.c **** 	CY_SET_XTND_REG8((void CYFAR *)(CYREG_CLKDIST_CR), 0x08u);
 311              		.loc 1 274 0
 312 0038 4FF04023 		mov	r3, #1073758208
 313 003c 0822     		movs	r2, #8
 314 003e 1A70     		strb	r2, [r3]
 275:Generated_Source\PSoC5/cyfitter_cfg.c **** 
 276:Generated_Source\PSoC5/cyfitter_cfg.c **** 	/* Configure XTAL 32kHz based on settings from Clock DWR */
 277:Generated_Source\PSoC5/cyfitter_cfg.c **** 	CY_SET_XTND_REG8((void CYFAR *)(CYREG_SLOWCLK_X32_TST), 0xF3u);
 315              		.loc 1 277 0
 316 0040 514B     		ldr	r3, .L22+32
 317 0042 F322     		movs	r2, #243
 318 0044 1A70     		strb	r2, [r3]
 278:Generated_Source\PSoC5/cyfitter_cfg.c **** 	CY_SET_XTND_REG8((void CYFAR *)(CYREG_X32_TR), 0x03u);
 319              		.loc 1 278 0
 320 0046 484B     		ldr	r3, .L22
 321 0048 0322     		movs	r2, #3
 322 004a 1A70     		strb	r2, [r3]
 279:Generated_Source\PSoC5/cyfitter_cfg.c **** 	CY_SET_XTND_REG8((void CYFAR *)(CYREG_SLOWCLK_X32_CFG), 0x84u);
 323              		.loc 1 279 0
 324 004c 4F4B     		ldr	r3, .L22+36
 325 004e 8422     		movs	r2, #132
 326 0050 1A70     		strb	r2, [r3]
 280:Generated_Source\PSoC5/cyfitter_cfg.c **** 	CY_SET_XTND_REG8((void CYFAR *)(CYREG_SLOWCLK_X32_CR), 0x05u);
 327              		.loc 1 280 0
 328 0052 4F4B     		ldr	r3, .L22+40
 329 0054 0522     		movs	r2, #5
 330 0056 1A70     		strb	r2, [r3]
 281:Generated_Source\PSoC5/cyfitter_cfg.c **** 	/* Wait up to 1000000us for the XTAL 32kHz to lock */
 282:Generated_Source\PSoC5/cyfitter_cfg.c **** 	for (timeout = 1000000u / 10u; (timeout > 0u) && ((CY_GET_XTND_REG8((void CYFAR *)CYREG_SLOWCLK_X3
 331              		.loc 1 282 0
 332 0058 4E4B     		ldr	r3, .L22+44
 333 005a 7B60     		str	r3, [r7, #4]
 334 005c 06E0     		b	.L12
 335              	.L14:
 283:Generated_Source\PSoC5/cyfitter_cfg.c **** 	{ 
 284:Generated_Source\PSoC5/cyfitter_cfg.c **** 		
 285:Generated_Source\PSoC5/cyfitter_cfg.c **** 		CyDelayCycles(10u * 48u); /* Delay 10us based on 48MHz clock */
 336              		.loc 1 285 0 discriminator 4
 337 005e 4FF4F070 		mov	r0, #480
 338 0062 FFF7FEFF 		bl	CyDelayCycles
 282:Generated_Source\PSoC5/cyfitter_cfg.c **** 	{ 
ARM GAS  C:\Users\Tomas\AppData\Local\Temp\ccjjZf9M.s 			page 12


 339              		.loc 1 282 0 discriminator 4
 340 0066 7B68     		ldr	r3, [r7, #4]
 341 0068 013B     		subs	r3, r3, #1
 342 006a 7B60     		str	r3, [r7, #4]
 343              	.L12:
 282:Generated_Source\PSoC5/cyfitter_cfg.c **** 	{ 
 344              		.loc 1 282 0 is_stmt 0 discriminator 1
 345 006c 7B68     		ldr	r3, [r7, #4]
 346 006e 002B     		cmp	r3, #0
 347 0070 06D0     		beq	.L13
 282:Generated_Source\PSoC5/cyfitter_cfg.c **** 	{ 
 348              		.loc 1 282 0 discriminator 3
 349 0072 474B     		ldr	r3, .L22+40
 350 0074 1B78     		ldrb	r3, [r3]
 351 0076 DBB2     		uxtb	r3, r3
 352 0078 03F02003 		and	r3, r3, #32
 353 007c 002B     		cmp	r3, #0
 354 007e EED0     		beq	.L14
 355              	.L13:
 286:Generated_Source\PSoC5/cyfitter_cfg.c **** 	}
 287:Generated_Source\PSoC5/cyfitter_cfg.c **** 	CY_SET_XTND_REG8((void CYFAR *)(CYREG_X32_TR), (x32TrHold));
 356              		.loc 1 287 0 is_stmt 1
 357 0080 394A     		ldr	r2, .L22
 358 0082 BB78     		ldrb	r3, [r7, #2]
 359 0084 1370     		strb	r3, [r2]
 288:Generated_Source\PSoC5/cyfitter_cfg.c **** 
 289:Generated_Source\PSoC5/cyfitter_cfg.c **** 	/* Configure XTAL based on settings from Clock DWR */
 290:Generated_Source\PSoC5/cyfitter_cfg.c **** 	CY_SET_XTND_REG16((void CYFAR *)(CYREG_FASTCLK_XMHZ_CFG0), 0x3313u);
 360              		.loc 1 290 0
 361 0086 444B     		ldr	r3, .L22+48
 362 0088 43F21332 		movw	r2, #13075
 363 008c 1A80     		strh	r2, [r3]	@ movhi
 291:Generated_Source\PSoC5/cyfitter_cfg.c **** 	CY_SET_XTND_REG8((void CYFAR *)(CYREG_FASTCLK_XMHZ_CSR), 0x05u);
 364              		.loc 1 291 0
 365 008e 434B     		ldr	r3, .L22+52
 366 0090 0522     		movs	r2, #5
 367 0092 1A70     		strb	r2, [r3]
 292:Generated_Source\PSoC5/cyfitter_cfg.c **** 	/* Wait up to 130000us for the XTAL to lock */
 293:Generated_Source\PSoC5/cyfitter_cfg.c **** 	CY_GET_XTND_REG8((void CYFAR *)CYREG_FASTCLK_XMHZ_CSR);
 368              		.loc 1 293 0
 369 0094 414B     		ldr	r3, .L22+52
 370 0096 1B78     		ldrb	r3, [r3]
 294:Generated_Source\PSoC5/cyfitter_cfg.c **** 	for (timeout = 130000u / 10u; (timeout > 0u) && ((CY_GET_XTND_REG8((void CYFAR *)CYREG_FASTCLK_XMH
 371              		.loc 1 294 0
 372 0098 43F2C823 		movw	r3, #13000
 373 009c 7B60     		str	r3, [r7, #4]
 374 009e 06E0     		b	.L15
 375              	.L17:
 295:Generated_Source\PSoC5/cyfitter_cfg.c **** 	{ 
 296:Generated_Source\PSoC5/cyfitter_cfg.c **** 		
 297:Generated_Source\PSoC5/cyfitter_cfg.c **** 		CyDelayCycles(10u * 48u); /* Delay 10us based on 48MHz clock */
 376              		.loc 1 297 0 discriminator 4
 377 00a0 4FF4F070 		mov	r0, #480
 378 00a4 FFF7FEFF 		bl	CyDelayCycles
 294:Generated_Source\PSoC5/cyfitter_cfg.c **** 	for (timeout = 130000u / 10u; (timeout > 0u) && ((CY_GET_XTND_REG8((void CYFAR *)CYREG_FASTCLK_XMH
 379              		.loc 1 294 0 discriminator 4
 380 00a8 7B68     		ldr	r3, [r7, #4]
ARM GAS  C:\Users\Tomas\AppData\Local\Temp\ccjjZf9M.s 			page 13


 381 00aa 013B     		subs	r3, r3, #1
 382 00ac 7B60     		str	r3, [r7, #4]
 383              	.L15:
 294:Generated_Source\PSoC5/cyfitter_cfg.c **** 	for (timeout = 130000u / 10u; (timeout > 0u) && ((CY_GET_XTND_REG8((void CYFAR *)CYREG_FASTCLK_XMH
 384              		.loc 1 294 0 is_stmt 0 discriminator 1
 385 00ae 7B68     		ldr	r3, [r7, #4]
 386 00b0 002B     		cmp	r3, #0
 387 00b2 05D0     		beq	.L16
 294:Generated_Source\PSoC5/cyfitter_cfg.c **** 	for (timeout = 130000u / 10u; (timeout > 0u) && ((CY_GET_XTND_REG8((void CYFAR *)CYREG_FASTCLK_XMH
 388              		.loc 1 294 0 discriminator 3
 389 00b4 394B     		ldr	r3, .L22+52
 390 00b6 1B78     		ldrb	r3, [r3]
 391 00b8 DBB2     		uxtb	r3, r3
 392 00ba 5BB2     		sxtb	r3, r3
 393 00bc 002B     		cmp	r3, #0
 394 00be EFDB     		blt	.L17
 395              	.L16:
 298:Generated_Source\PSoC5/cyfitter_cfg.c **** 	}
 299:Generated_Source\PSoC5/cyfitter_cfg.c **** 
 300:Generated_Source\PSoC5/cyfitter_cfg.c **** 	/* Configure IMO based on settings from Clock DWR */
 301:Generated_Source\PSoC5/cyfitter_cfg.c **** 	CY_SET_XTND_REG8((void CYFAR *)(CYREG_FASTCLK_IMO_CR), 0x03u);
 396              		.loc 1 301 0 is_stmt 1
 397 00c0 374B     		ldr	r3, .L22+56
 398 00c2 0322     		movs	r2, #3
 399 00c4 1A70     		strb	r2, [r3]
 302:Generated_Source\PSoC5/cyfitter_cfg.c **** 	CY_SET_XTND_REG8((void CYFAR *)(CYREG_IMO_TR1), (CY_GET_XTND_REG8((void CYFAR *)CYREG_FLSHID_CUST_
 400              		.loc 1 302 0
 401 00c6 374B     		ldr	r3, .L22+60
 402 00c8 374A     		ldr	r2, .L22+64
 403 00ca 1278     		ldrb	r2, [r2]
 404 00cc D2B2     		uxtb	r2, r2
 405 00ce 1A70     		strb	r2, [r3]
 303:Generated_Source\PSoC5/cyfitter_cfg.c **** 
 304:Generated_Source\PSoC5/cyfitter_cfg.c **** 	/* Configure PLL based on settings from Clock DWR */
 305:Generated_Source\PSoC5/cyfitter_cfg.c **** 	CY_SET_XTND_REG16((void CYFAR *)(CYREG_FASTCLK_PLL_P), 0x0014u);
 406              		.loc 1 305 0
 407 00d0 364B     		ldr	r3, .L22+68
 408 00d2 1422     		movs	r2, #20
 409 00d4 1A80     		strh	r2, [r3]	@ movhi
 306:Generated_Source\PSoC5/cyfitter_cfg.c **** 	CY_SET_XTND_REG16((void CYFAR *)(CYREG_FASTCLK_PLL_CFG0), 0x1251u);
 410              		.loc 1 306 0
 411 00d6 364B     		ldr	r3, .L22+72
 412 00d8 41F25122 		movw	r2, #4689
 413 00dc 1A80     		strh	r2, [r3]	@ movhi
 307:Generated_Source\PSoC5/cyfitter_cfg.c **** 	/* Wait up to 250us for the PLL to lock */
 308:Generated_Source\PSoC5/cyfitter_cfg.c **** 	pllLock = 0u;
 414              		.loc 1 308 0
 415 00de 0023     		movs	r3, #0
 416 00e0 FB70     		strb	r3, [r7, #3]
 309:Generated_Source\PSoC5/cyfitter_cfg.c **** 	for (timeout = 250u / 10u; (timeout > 0u) && (pllLock != 0x03u); timeout--)
 417              		.loc 1 309 0
 418 00e2 1923     		movs	r3, #25
 419 00e4 7B60     		str	r3, [r7, #4]
 420 00e6 14E0     		b	.L18
 421              	.L20:
 310:Generated_Source\PSoC5/cyfitter_cfg.c **** 	{ 
 311:Generated_Source\PSoC5/cyfitter_cfg.c **** 		pllLock = 0x03u & ((uint8)((uint8)pllLock << 1) | ((CY_GET_XTND_REG8((void CYFAR *)CYREG_FASTCLK_
ARM GAS  C:\Users\Tomas\AppData\Local\Temp\ccjjZf9M.s 			page 14


 422              		.loc 1 311 0 discriminator 4
 423 00e8 FB78     		ldrb	r3, [r7, #3]
 424 00ea 5B00     		lsls	r3, r3, #1
 425 00ec DAB2     		uxtb	r2, r3
 426 00ee 314B     		ldr	r3, .L22+76
 427 00f0 1B78     		ldrb	r3, [r3]
 428 00f2 DBB2     		uxtb	r3, r3
 429 00f4 03F00103 		and	r3, r3, #1
 430 00f8 DBB2     		uxtb	r3, r3
 431 00fa 1343     		orrs	r3, r3, r2
 432 00fc DBB2     		uxtb	r3, r3
 433 00fe 03F00303 		and	r3, r3, #3
 434 0102 FB70     		strb	r3, [r7, #3]
 312:Generated_Source\PSoC5/cyfitter_cfg.c **** 		CyDelayCycles(10u * 48u); /* Delay 10us based on 48MHz clock */
 435              		.loc 1 312 0 discriminator 4
 436 0104 4FF4F070 		mov	r0, #480
 437 0108 FFF7FEFF 		bl	CyDelayCycles
 309:Generated_Source\PSoC5/cyfitter_cfg.c **** 	for (timeout = 250u / 10u; (timeout > 0u) && (pllLock != 0x03u); timeout--)
 438              		.loc 1 309 0 discriminator 4
 439 010c 7B68     		ldr	r3, [r7, #4]
 440 010e 013B     		subs	r3, r3, #1
 441 0110 7B60     		str	r3, [r7, #4]
 442              	.L18:
 309:Generated_Source\PSoC5/cyfitter_cfg.c **** 	for (timeout = 250u / 10u; (timeout > 0u) && (pllLock != 0x03u); timeout--)
 443              		.loc 1 309 0 is_stmt 0 discriminator 1
 444 0112 7B68     		ldr	r3, [r7, #4]
 445 0114 002B     		cmp	r3, #0
 446 0116 02D0     		beq	.L19
 309:Generated_Source\PSoC5/cyfitter_cfg.c **** 	for (timeout = 250u / 10u; (timeout > 0u) && (pllLock != 0x03u); timeout--)
 447              		.loc 1 309 0 discriminator 3
 448 0118 FB78     		ldrb	r3, [r7, #3]	@ zero_extendqisi2
 449 011a 032B     		cmp	r3, #3
 450 011c E4D1     		bne	.L20
 451              	.L19:
 313:Generated_Source\PSoC5/cyfitter_cfg.c **** 	}
 314:Generated_Source\PSoC5/cyfitter_cfg.c **** 	/* If we ran out of time the PLL didn't lock so go to the error function */
 315:Generated_Source\PSoC5/cyfitter_cfg.c **** 	if (timeout == 0u)
 452              		.loc 1 315 0 is_stmt 1
 453 011e 7B68     		ldr	r3, [r7, #4]
 454 0120 002B     		cmp	r3, #0
 455 0122 02D1     		bne	.L21
 316:Generated_Source\PSoC5/cyfitter_cfg.c **** 	{
 317:Generated_Source\PSoC5/cyfitter_cfg.c **** 		CyClockStartupError(CYCLOCKSTART_PLL_ERROR);
 456              		.loc 1 317 0
 457 0124 0320     		movs	r0, #3
 458 0126 FFF7FEFF 		bl	CyClockStartupError
 459              	.L21:
 318:Generated_Source\PSoC5/cyfitter_cfg.c **** 	}
 319:Generated_Source\PSoC5/cyfitter_cfg.c **** 
 320:Generated_Source\PSoC5/cyfitter_cfg.c **** 	/* Configure Bus/Master Clock based on settings from Clock DWR */
 321:Generated_Source\PSoC5/cyfitter_cfg.c **** 	CY_SET_XTND_REG16((void CYFAR *)(CYREG_CLKDIST_MSTR0), 0x0100u);
 460              		.loc 1 321 0
 461 012a 234B     		ldr	r3, .L22+80
 462 012c 4FF48072 		mov	r2, #256
 463 0130 1A80     		strh	r2, [r3]	@ movhi
 322:Generated_Source\PSoC5/cyfitter_cfg.c **** 	CY_SET_XTND_REG8((void CYFAR *)(CYREG_CLKDIST_MSTR0), 0x07u);
 464              		.loc 1 322 0
ARM GAS  C:\Users\Tomas\AppData\Local\Temp\ccjjZf9M.s 			page 15


 465 0132 214B     		ldr	r3, .L22+80
 466 0134 0722     		movs	r2, #7
 467 0136 1A70     		strb	r2, [r3]
 323:Generated_Source\PSoC5/cyfitter_cfg.c **** 	CY_SET_XTND_REG8((void CYFAR *)(CYREG_CLKDIST_BCFG0), 0x00u);
 468              		.loc 1 323 0
 469 0138 204B     		ldr	r3, .L22+84
 470 013a 0022     		movs	r2, #0
 471 013c 1A70     		strb	r2, [r3]
 324:Generated_Source\PSoC5/cyfitter_cfg.c **** 	CY_SET_XTND_REG8((void CYFAR *)(CYREG_CLKDIST_BCFG2), 0x48u);
 472              		.loc 1 324 0
 473 013e 204B     		ldr	r3, .L22+88
 474 0140 4822     		movs	r2, #72
 475 0142 1A70     		strb	r2, [r3]
 325:Generated_Source\PSoC5/cyfitter_cfg.c **** 	CY_SET_XTND_REG8((void CYFAR *)(CYREG_CLKDIST_MSTR0), 0x00u);
 476              		.loc 1 325 0
 477 0144 1C4B     		ldr	r3, .L22+80
 478 0146 0022     		movs	r2, #0
 479 0148 1A70     		strb	r2, [r3]
 326:Generated_Source\PSoC5/cyfitter_cfg.c **** 	CY_SET_XTND_REG8((void CYFAR *)(CYREG_CLKDIST_LD), 0x02u);
 480              		.loc 1 326 0
 481 014a 1E4B     		ldr	r3, .L22+92
 482 014c 0222     		movs	r2, #2
 483 014e 1A70     		strb	r2, [r3]
 327:Generated_Source\PSoC5/cyfitter_cfg.c **** 
 328:Generated_Source\PSoC5/cyfitter_cfg.c **** 	CY_SET_XTND_REG8((void CYFAR *)(CYREG_PM_ACT_CFG2), ((CY_GET_XTND_REG8((void CYFAR *)CYREG_PM_ACT_
 484              		.loc 1 328 0
 485 0150 1D4A     		ldr	r2, .L22+96
 486 0152 1D4B     		ldr	r3, .L22+96
 487 0154 1B78     		ldrb	r3, [r3]
 488 0156 DBB2     		uxtb	r3, r3
 489 0158 43F00703 		orr	r3, r3, #7
 490 015c DBB2     		uxtb	r3, r3
 491 015e 1370     		strb	r3, [r2]
 329:Generated_Source\PSoC5/cyfitter_cfg.c **** }
 492              		.loc 1 329 0
 493 0160 00BF     		nop
 494 0162 0837     		adds	r7, r7, #8
 495              		.cfi_def_cfa_offset 8
 496 0164 BD46     		mov	sp, r7
 497              		.cfi_def_cfa_register 13
 498              		@ sp needed
 499 0166 80BD     		pop	{r7, pc}
 500              	.L23:
 501              		.align	2
 502              	.L22:
 503 0168 98460040 		.word	1073759896
 504 016c 80400040 		.word	1073758336
 505 0170 82400040 		.word	1073758338
 506 0174 84400040 		.word	1073758340
 507 0178 86400040 		.word	1073758342
 508 017c 88400040 		.word	1073758344
 509 0180 8A400040 		.word	1073758346
 510 0184 00430040 		.word	1073758976
 511 0188 0A430040 		.word	1073758986
 512 018c 09430040 		.word	1073758985
 513 0190 08430040 		.word	1073758984
 514 0194 A0860100 		.word	100000
ARM GAS  C:\Users\Tomas\AppData\Local\Temp\ccjjZf9M.s 			page 16


 515 0198 12420040 		.word	1073758738
 516 019c 10420040 		.word	1073758736
 517 01a0 00420040 		.word	1073758720
 518 01a4 A1460040 		.word	1073759905
 519 01a8 08010049 		.word	1224737032
 520 01ac 22420040 		.word	1073758754
 521 01b0 20420040 		.word	1073758752
 522 01b4 25420040 		.word	1073758757
 523 01b8 04400040 		.word	1073758212
 524 01bc 06400040 		.word	1073758214
 525 01c0 08400040 		.word	1073758216
 526 01c4 01400040 		.word	1073758209
 527 01c8 A2430040 		.word	1073759138
 528              		.cfi_endproc
 529              	.LFE5:
 530              		.size	ClockSetup, .-ClockSetup
 531              		.section	.text.AnalogSetDefault,"ax",%progbits
 532              		.align	2
 533              		.thumb
 534              		.thumb_func
 535              		.type	AnalogSetDefault, %function
 536              	AnalogSetDefault:
 537              	.LFB6:
 330:Generated_Source\PSoC5/cyfitter_cfg.c **** 
 331:Generated_Source\PSoC5/cyfitter_cfg.c **** 
 332:Generated_Source\PSoC5/cyfitter_cfg.c **** /* Analog API Functions */
 333:Generated_Source\PSoC5/cyfitter_cfg.c **** 
 334:Generated_Source\PSoC5/cyfitter_cfg.c **** 
 335:Generated_Source\PSoC5/cyfitter_cfg.c **** /*******************************************************************************
 336:Generated_Source\PSoC5/cyfitter_cfg.c **** * Function Name: AnalogSetDefault
 337:Generated_Source\PSoC5/cyfitter_cfg.c **** ********************************************************************************
 338:Generated_Source\PSoC5/cyfitter_cfg.c **** *
 339:Generated_Source\PSoC5/cyfitter_cfg.c **** * Summary:
 340:Generated_Source\PSoC5/cyfitter_cfg.c **** *  Sets up the analog portions of the chip to default values based on chip
 341:Generated_Source\PSoC5/cyfitter_cfg.c **** *  configuration options from the project.
 342:Generated_Source\PSoC5/cyfitter_cfg.c **** *
 343:Generated_Source\PSoC5/cyfitter_cfg.c **** * Parameters:
 344:Generated_Source\PSoC5/cyfitter_cfg.c **** *  void
 345:Generated_Source\PSoC5/cyfitter_cfg.c **** *
 346:Generated_Source\PSoC5/cyfitter_cfg.c **** * Return:
 347:Generated_Source\PSoC5/cyfitter_cfg.c **** *  void
 348:Generated_Source\PSoC5/cyfitter_cfg.c **** *
 349:Generated_Source\PSoC5/cyfitter_cfg.c **** *******************************************************************************/
 350:Generated_Source\PSoC5/cyfitter_cfg.c **** static void AnalogSetDefault(void);
 351:Generated_Source\PSoC5/cyfitter_cfg.c **** static void AnalogSetDefault(void)
 352:Generated_Source\PSoC5/cyfitter_cfg.c **** {
 538              		.loc 1 352 0
 539              		.cfi_startproc
 540              		@ args = 0, pretend = 0, frame = 8
 541              		@ frame_needed = 1, uses_anonymous_args = 0
 542              		@ link register save eliminated.
 543 0000 80B4     		push	{r7}
 544              		.cfi_def_cfa_offset 4
 545              		.cfi_offset 7, -4
 546 0002 83B0     		sub	sp, sp, #12
 547              		.cfi_def_cfa_offset 16
 548 0004 00AF     		add	r7, sp, #0
ARM GAS  C:\Users\Tomas\AppData\Local\Temp\ccjjZf9M.s 			page 17


 549              		.cfi_def_cfa_register 7
 353:Generated_Source\PSoC5/cyfitter_cfg.c **** 	uint8 bg_xover_inl_trim = CY_GET_XTND_REG8((void CYFAR *)(CYREG_FLSHID_MFG_CFG_BG_XOVER_INL_TRIM +
 550              		.loc 1 353 0
 551 0006 0B4B     		ldr	r3, .L25
 552 0008 1B78     		ldrb	r3, [r3]
 553 000a FB71     		strb	r3, [r7, #7]
 354:Generated_Source\PSoC5/cyfitter_cfg.c **** 	CY_SET_XTND_REG8((void CYFAR *)(CYREG_BG_DFT0), (bg_xover_inl_trim & 0x07u));
 554              		.loc 1 354 0
 555 000c 0A4A     		ldr	r2, .L25+4
 556 000e FB79     		ldrb	r3, [r7, #7]
 557 0010 03F00703 		and	r3, r3, #7
 558 0014 DBB2     		uxtb	r3, r3
 559 0016 1370     		strb	r3, [r2]
 355:Generated_Source\PSoC5/cyfitter_cfg.c **** 	CY_SET_XTND_REG8((void CYFAR *)(CYREG_BG_DFT1), ((bg_xover_inl_trim >> 4) & 0x0Fu));
 560              		.loc 1 355 0
 561 0018 084A     		ldr	r2, .L25+8
 562 001a FB79     		ldrb	r3, [r7, #7]	@ zero_extendqisi2
 563 001c 1B09     		lsrs	r3, r3, #4
 564 001e DBB2     		uxtb	r3, r3
 565 0020 1370     		strb	r3, [r2]
 356:Generated_Source\PSoC5/cyfitter_cfg.c **** 	CY_SET_XTND_REG8((void CYFAR *)CYREG_PUMP_CR0, 0x44u);
 566              		.loc 1 356 0
 567 0022 074B     		ldr	r3, .L25+12
 568 0024 4422     		movs	r2, #68
 569 0026 1A70     		strb	r2, [r3]
 357:Generated_Source\PSoC5/cyfitter_cfg.c **** }
 570              		.loc 1 357 0
 571 0028 00BF     		nop
 572 002a 0C37     		adds	r7, r7, #12
 573              		.cfi_def_cfa_offset 4
 574 002c BD46     		mov	sp, r7
 575              		.cfi_def_cfa_register 13
 576              		@ sp needed
 577 002e 80BC     		pop	{r7}
 578              		.cfi_restore 7
 579              		.cfi_def_cfa_offset 0
 580 0030 7047     		bx	lr
 581              	.L26:
 582 0032 00BF     		.align	2
 583              	.L25:
 584 0034 CF010049 		.word	1224737231
 585 0038 6E580040 		.word	1073764462
 586 003c 6F580040 		.word	1073764463
 587 0040 76580040 		.word	1073764470
 588              		.cfi_endproc
 589              	.LFE6:
 590              		.size	AnalogSetDefault, .-AnalogSetDefault
 591              		.section	.text.SetAnalogRoutingPumps,"ax",%progbits
 592              		.align	2
 593              		.global	SetAnalogRoutingPumps
 594              		.thumb
 595              		.thumb_func
 596              		.type	SetAnalogRoutingPumps, %function
 597              	SetAnalogRoutingPumps:
 598              	.LFB7:
 358:Generated_Source\PSoC5/cyfitter_cfg.c **** 
 359:Generated_Source\PSoC5/cyfitter_cfg.c **** 
ARM GAS  C:\Users\Tomas\AppData\Local\Temp\ccjjZf9M.s 			page 18


 360:Generated_Source\PSoC5/cyfitter_cfg.c **** /*******************************************************************************
 361:Generated_Source\PSoC5/cyfitter_cfg.c **** * Function Name: SetAnalogRoutingPumps
 362:Generated_Source\PSoC5/cyfitter_cfg.c **** ********************************************************************************
 363:Generated_Source\PSoC5/cyfitter_cfg.c **** *
 364:Generated_Source\PSoC5/cyfitter_cfg.c **** * Summary:
 365:Generated_Source\PSoC5/cyfitter_cfg.c **** * Enables or disables the analog pumps feeding analog routing switches.
 366:Generated_Source\PSoC5/cyfitter_cfg.c **** * Intended to be called at startup, based on the Vdda system configuration;
 367:Generated_Source\PSoC5/cyfitter_cfg.c **** * may be called during operation when the user informs us that the Vdda voltage
 368:Generated_Source\PSoC5/cyfitter_cfg.c **** * crossed the pump threshold.
 369:Generated_Source\PSoC5/cyfitter_cfg.c **** *
 370:Generated_Source\PSoC5/cyfitter_cfg.c **** * Parameters:
 371:Generated_Source\PSoC5/cyfitter_cfg.c **** *  enabled - 1 to enable the pumps, 0 to disable the pumps
 372:Generated_Source\PSoC5/cyfitter_cfg.c **** *
 373:Generated_Source\PSoC5/cyfitter_cfg.c **** * Return:
 374:Generated_Source\PSoC5/cyfitter_cfg.c **** *  void
 375:Generated_Source\PSoC5/cyfitter_cfg.c **** *
 376:Generated_Source\PSoC5/cyfitter_cfg.c **** *******************************************************************************/
 377:Generated_Source\PSoC5/cyfitter_cfg.c **** void SetAnalogRoutingPumps(uint8 enabled)
 378:Generated_Source\PSoC5/cyfitter_cfg.c **** {
 599              		.loc 1 378 0
 600              		.cfi_startproc
 601              		@ args = 0, pretend = 0, frame = 16
 602              		@ frame_needed = 1, uses_anonymous_args = 0
 603              		@ link register save eliminated.
 604 0000 80B4     		push	{r7}
 605              		.cfi_def_cfa_offset 4
 606              		.cfi_offset 7, -4
 607 0002 85B0     		sub	sp, sp, #20
 608              		.cfi_def_cfa_offset 24
 609 0004 00AF     		add	r7, sp, #0
 610              		.cfi_def_cfa_register 7
 611 0006 0346     		mov	r3, r0
 612 0008 FB71     		strb	r3, [r7, #7]
 379:Generated_Source\PSoC5/cyfitter_cfg.c **** 	uint8 regValue = CY_GET_XTND_REG8((void CYFAR *)CYREG_PUMP_CR0);
 613              		.loc 1 379 0
 614 000a 064B     		ldr	r3, .L30
 615 000c 1B78     		ldrb	r3, [r3]
 616 000e FB73     		strb	r3, [r7, #15]
 380:Generated_Source\PSoC5/cyfitter_cfg.c **** 	if (enabled != 0u)
 617              		.loc 1 380 0
 618 0010 FB79     		ldrb	r3, [r7, #7]	@ zero_extendqisi2
 619 0012 002B     		cmp	r3, #0
 381:Generated_Source\PSoC5/cyfitter_cfg.c **** 	{
 382:Generated_Source\PSoC5/cyfitter_cfg.c **** 		regValue |= 0x00u;
 383:Generated_Source\PSoC5/cyfitter_cfg.c **** 	}
 384:Generated_Source\PSoC5/cyfitter_cfg.c **** 	else
 385:Generated_Source\PSoC5/cyfitter_cfg.c **** 	{
 386:Generated_Source\PSoC5/cyfitter_cfg.c **** 		regValue &= (uint8)~0x00u;
 387:Generated_Source\PSoC5/cyfitter_cfg.c **** 	}
 388:Generated_Source\PSoC5/cyfitter_cfg.c **** 	CY_SET_XTND_REG8((void CYFAR *)CYREG_PUMP_CR0, regValue);
 620              		.loc 1 388 0
 621 0014 034A     		ldr	r2, .L30
 622 0016 FB7B     		ldrb	r3, [r7, #15]
 623 0018 1370     		strb	r3, [r2]
 389:Generated_Source\PSoC5/cyfitter_cfg.c **** }
 624              		.loc 1 389 0
 625 001a 00BF     		nop
ARM GAS  C:\Users\Tomas\AppData\Local\Temp\ccjjZf9M.s 			page 19


 626 001c 1437     		adds	r7, r7, #20
 627              		.cfi_def_cfa_offset 4
 628 001e BD46     		mov	sp, r7
 629              		.cfi_def_cfa_register 13
 630              		@ sp needed
 631 0020 80BC     		pop	{r7}
 632              		.cfi_restore 7
 633              		.cfi_def_cfa_offset 0
 634 0022 7047     		bx	lr
 635              	.L31:
 636              		.align	2
 637              	.L30:
 638 0024 76580040 		.word	1073764470
 639              		.cfi_endproc
 640              	.LFE7:
 641              		.size	SetAnalogRoutingPumps, .-SetAnalogRoutingPumps
 642              		.section	.text.cyfitter_cfg,"ax",%progbits
 643              		.align	2
 644              		.global	cyfitter_cfg
 645              		.thumb
 646              		.thumb_func
 647              		.type	cyfitter_cfg, %function
 648              	cyfitter_cfg:
 649              	.LFB8:
 390:Generated_Source\PSoC5/cyfitter_cfg.c **** 
 391:Generated_Source\PSoC5/cyfitter_cfg.c **** 
 392:Generated_Source\PSoC5/cyfitter_cfg.c **** 
 393:Generated_Source\PSoC5/cyfitter_cfg.c **** 
 394:Generated_Source\PSoC5/cyfitter_cfg.c **** /*******************************************************************************
 395:Generated_Source\PSoC5/cyfitter_cfg.c **** * Function Name: cyfitter_cfg
 396:Generated_Source\PSoC5/cyfitter_cfg.c **** ********************************************************************************
 397:Generated_Source\PSoC5/cyfitter_cfg.c **** * Summary:
 398:Generated_Source\PSoC5/cyfitter_cfg.c **** *  This function is called by the start-up code for the selected device. It
 399:Generated_Source\PSoC5/cyfitter_cfg.c **** *  performs all of the necessary device configuration based on the design
 400:Generated_Source\PSoC5/cyfitter_cfg.c **** *  settings.  This includes settings from the Design Wide Resources (DWR) such
 401:Generated_Source\PSoC5/cyfitter_cfg.c **** *  as Clocks and Pins as well as any component configuration that is necessary.
 402:Generated_Source\PSoC5/cyfitter_cfg.c **** *
 403:Generated_Source\PSoC5/cyfitter_cfg.c **** * Parameters:
 404:Generated_Source\PSoC5/cyfitter_cfg.c **** *   void
 405:Generated_Source\PSoC5/cyfitter_cfg.c **** *
 406:Generated_Source\PSoC5/cyfitter_cfg.c **** * Return:
 407:Generated_Source\PSoC5/cyfitter_cfg.c **** *   void
 408:Generated_Source\PSoC5/cyfitter_cfg.c **** *
 409:Generated_Source\PSoC5/cyfitter_cfg.c **** *******************************************************************************/
 410:Generated_Source\PSoC5/cyfitter_cfg.c **** 
 411:Generated_Source\PSoC5/cyfitter_cfg.c **** void cyfitter_cfg(void)
 412:Generated_Source\PSoC5/cyfitter_cfg.c **** {
 650              		.loc 1 412 0
 651              		.cfi_startproc
 652              		@ args = 0, pretend = 0, frame = 24
 653              		@ frame_needed = 1, uses_anonymous_args = 0
 654 0000 80B5     		push	{r7, lr}
 655              		.cfi_def_cfa_offset 8
 656              		.cfi_offset 7, -8
 657              		.cfi_offset 14, -4
 658 0002 86B0     		sub	sp, sp, #24
 659              		.cfi_def_cfa_offset 32
ARM GAS  C:\Users\Tomas\AppData\Local\Temp\ccjjZf9M.s 			page 20


 660 0004 00AF     		add	r7, sp, #0
 661              		.cfi_def_cfa_register 7
 413:Generated_Source\PSoC5/cyfitter_cfg.c **** #ifdef CYGlobalIntDisable
 414:Generated_Source\PSoC5/cyfitter_cfg.c **** 	/* Disable interrupts by default. Let user enable if/when they want. */
 415:Generated_Source\PSoC5/cyfitter_cfg.c **** 	CYGlobalIntDisable
 662              		.loc 1 415 0
 663              		.syntax unified
 664              	@ 415 "Generated_Source\PSoC5\cyfitter_cfg.c" 1
 665 0006 72B6     		CPSID   i
 666              	@ 0 "" 2
 416:Generated_Source\PSoC5/cyfitter_cfg.c **** #endif
 417:Generated_Source\PSoC5/cyfitter_cfg.c **** 
 418:Generated_Source\PSoC5/cyfitter_cfg.c **** 	/* Enable/Disable Debug functionality based on settings from System DWR */
 419:Generated_Source\PSoC5/cyfitter_cfg.c **** 	CY_SET_XTND_REG8((void CYFAR *)CYREG_MLOGIC_DEBUG, (CY_GET_XTND_REG8((void CYFAR *)CYREG_MLOGIC_DE
 667              		.loc 1 419 0
 668              		.thumb
 669              		.syntax unified
 670 0008 5A4A     		ldr	r2, .L37
 671 000a 5A4B     		ldr	r3, .L37
 672 000c 1B78     		ldrb	r3, [r3]
 673 000e DBB2     		uxtb	r3, r3
 674 0010 43F00403 		orr	r3, r3, #4
 675 0014 DBB2     		uxtb	r3, r3
 676 0016 1370     		strb	r3, [r2]
 677              	.LBB3:
 420:Generated_Source\PSoC5/cyfitter_cfg.c **** 
 421:Generated_Source\PSoC5/cyfitter_cfg.c **** 	{
 422:Generated_Source\PSoC5/cyfitter_cfg.c **** 
 423:Generated_Source\PSoC5/cyfitter_cfg.c **** 		CYPACKED typedef struct {
 424:Generated_Source\PSoC5/cyfitter_cfg.c **** 			void CYFAR *address;
 425:Generated_Source\PSoC5/cyfitter_cfg.c **** 			uint16 size;
 426:Generated_Source\PSoC5/cyfitter_cfg.c **** 		} CYPACKED_ATTR cfg_memset_t;
 427:Generated_Source\PSoC5/cyfitter_cfg.c **** 
 428:Generated_Source\PSoC5/cyfitter_cfg.c **** 
 429:Generated_Source\PSoC5/cyfitter_cfg.c **** 		CYPACKED typedef struct {
 430:Generated_Source\PSoC5/cyfitter_cfg.c **** 			void CYFAR *dest;
 431:Generated_Source\PSoC5/cyfitter_cfg.c **** 			const void CYFAR *src;
 432:Generated_Source\PSoC5/cyfitter_cfg.c **** 			uint16 size;
 433:Generated_Source\PSoC5/cyfitter_cfg.c **** 		} CYPACKED_ATTR cfg_memcpy_t;
 434:Generated_Source\PSoC5/cyfitter_cfg.c **** 
 435:Generated_Source\PSoC5/cyfitter_cfg.c **** 		static const cfg_memset_t CYCODE cfg_memset_list[] = {
 436:Generated_Source\PSoC5/cyfitter_cfg.c **** 			/* address, size */
 437:Generated_Source\PSoC5/cyfitter_cfg.c **** 			{(void CYFAR *)(CYREG_TMR0_CFG0), 36u},
 438:Generated_Source\PSoC5/cyfitter_cfg.c **** 			{(void CYFAR *)(CYREG_PRT6_DR), 16u},
 439:Generated_Source\PSoC5/cyfitter_cfg.c **** 			{(void CYFAR *)(CYDEV_UCFG_B0_P0_U0_BASE), 640u},
 440:Generated_Source\PSoC5/cyfitter_cfg.c **** 			{(void CYFAR *)(CYDEV_UCFG_B0_P1_ROUTE_BASE), 1920u},
 441:Generated_Source\PSoC5/cyfitter_cfg.c **** 			{(void CYFAR *)(CYDEV_UCFG_B0_P5_ROUTE_BASE), 1280u},
 442:Generated_Source\PSoC5/cyfitter_cfg.c **** 			{(void CYFAR *)(CYDEV_UCFG_B1_P2_U0_BASE), 640u},
 443:Generated_Source\PSoC5/cyfitter_cfg.c **** 			{(void CYFAR *)(CYDEV_UCFG_B1_P3_ROUTE_BASE), 1280u},
 444:Generated_Source\PSoC5/cyfitter_cfg.c **** 			{(void CYFAR *)(CYDEV_UCFG_DSI0_BASE), 2560u},
 445:Generated_Source\PSoC5/cyfitter_cfg.c **** 			{(void CYFAR *)(CYDEV_UCFG_DSI12_BASE), 512u},
 446:Generated_Source\PSoC5/cyfitter_cfg.c **** 			{(void CYFAR *)(CYREG_BCTL1_MDCLK_EN), 16u},
 447:Generated_Source\PSoC5/cyfitter_cfg.c **** 		};
 448:Generated_Source\PSoC5/cyfitter_cfg.c **** 
 449:Generated_Source\PSoC5/cyfitter_cfg.c **** 		static const cfg_memcpy_t CYCODE cfg_memcpy_list [] = {
 450:Generated_Source\PSoC5/cyfitter_cfg.c **** 			/* dest, src, size */
 451:Generated_Source\PSoC5/cyfitter_cfg.c **** 			{(void CYFAR *)(CYDEV_PRTDSI_PRT12_BASE), BS_IOPORT_7_VAL, 6u},
ARM GAS  C:\Users\Tomas\AppData\Local\Temp\ccjjZf9M.s 			page 21


 452:Generated_Source\PSoC5/cyfitter_cfg.c **** 			{(void CYFAR *)(CYREG_IDMUX_IRQ_CTL0), BS_IDMUX_IRQ_VAL, 8u},
 453:Generated_Source\PSoC5/cyfitter_cfg.c **** 			{(void CYFAR *)(CYDEV_UCFG_B0_P1_U1_BASE), BS_UDB_1_4_0_CONFIG_VAL, 128u},
 454:Generated_Source\PSoC5/cyfitter_cfg.c **** 			{(void CYFAR *)(CYDEV_UCFG_B0_P5_U1_BASE), BS_UDB_0_3_1_CONFIG_VAL, 128u},
 455:Generated_Source\PSoC5/cyfitter_cfg.c **** 			{(void CYFAR *)(CYDEV_UCFG_B1_P3_U1_BASE), BS_UDB_1_1_0_CONFIG_VAL, 128u},
 456:Generated_Source\PSoC5/cyfitter_cfg.c **** 			{(void CYFAR *)(CYREG_BCTL0_MDCLK_EN), BS_UCFG_BCTL0_VAL, 16u},
 457:Generated_Source\PSoC5/cyfitter_cfg.c **** 		};
 458:Generated_Source\PSoC5/cyfitter_cfg.c **** 
 459:Generated_Source\PSoC5/cyfitter_cfg.c **** 		uint8 CYDATA i;
 460:Generated_Source\PSoC5/cyfitter_cfg.c **** 
 461:Generated_Source\PSoC5/cyfitter_cfg.c **** 		/* Zero out critical memory blocks before beginning configuration */
 462:Generated_Source\PSoC5/cyfitter_cfg.c **** 		for (i = 0u; i < (sizeof(cfg_memset_list)/sizeof(cfg_memset_list[0])); i++)
 678              		.loc 1 462 0
 679 0018 0023     		movs	r3, #0
 680 001a FB75     		strb	r3, [r7, #23]
 681 001c 13E0     		b	.L33
 682              	.L34:
 683              	.LBB4:
 463:Generated_Source\PSoC5/cyfitter_cfg.c **** 		{
 464:Generated_Source\PSoC5/cyfitter_cfg.c **** 			const cfg_memset_t CYCODE * CYDATA ms = &cfg_memset_list[i];
 684              		.loc 1 464 0 discriminator 3
 685 001e FA7D     		ldrb	r2, [r7, #23]	@ zero_extendqisi2
 686 0020 1346     		mov	r3, r2
 687 0022 5B00     		lsls	r3, r3, #1
 688 0024 1344     		add	r3, r3, r2
 689 0026 5B00     		lsls	r3, r3, #1
 690 0028 534A     		ldr	r2, .L37+4
 691 002a 1344     		add	r3, r3, r2
 692 002c 3B61     		str	r3, [r7, #16]
 465:Generated_Source\PSoC5/cyfitter_cfg.c **** 			CYMEMZERO(ms->address, (size_t)(uint32)(ms->size));
 693              		.loc 1 465 0 discriminator 3
 694 002e 3B69     		ldr	r3, [r7, #16]
 695 0030 1A68     		ldr	r2, [r3]	@ unaligned
 696 0032 3B69     		ldr	r3, [r7, #16]
 697 0034 9B88     		ldrh	r3, [r3, #4]	@ unaligned
 698 0036 9BB2     		uxth	r3, r3
 699 0038 1946     		mov	r1, r3
 700 003a 1046     		mov	r0, r2
 701 003c FFF7FEFF 		bl	CYMEMZERO
 702              	.LBE4:
 462:Generated_Source\PSoC5/cyfitter_cfg.c **** 		{
 703              		.loc 1 462 0 discriminator 3
 704 0040 FB7D     		ldrb	r3, [r7, #23]	@ zero_extendqisi2
 705 0042 0133     		adds	r3, r3, #1
 706 0044 FB75     		strb	r3, [r7, #23]
 707              	.L33:
 462:Generated_Source\PSoC5/cyfitter_cfg.c **** 		{
 708              		.loc 1 462 0 is_stmt 0 discriminator 1
 709 0046 FB7D     		ldrb	r3, [r7, #23]	@ zero_extendqisi2
 710 0048 092B     		cmp	r3, #9
 711 004a E8D9     		bls	.L34
 466:Generated_Source\PSoC5/cyfitter_cfg.c **** 		}
 467:Generated_Source\PSoC5/cyfitter_cfg.c **** 
 468:Generated_Source\PSoC5/cyfitter_cfg.c **** 		/* Copy device configuration data into registers */
 469:Generated_Source\PSoC5/cyfitter_cfg.c **** 		for (i = 0u; i < (sizeof(cfg_memcpy_list)/sizeof(cfg_memcpy_list[0])); i++)
 712              		.loc 1 469 0 is_stmt 1
 713 004c 0023     		movs	r3, #0
 714 004e FB75     		strb	r3, [r7, #23]
ARM GAS  C:\Users\Tomas\AppData\Local\Temp\ccjjZf9M.s 			page 22


 715 0050 1CE0     		b	.L35
 716              	.L36:
 717              	.LBB5:
 470:Generated_Source\PSoC5/cyfitter_cfg.c **** 		{
 471:Generated_Source\PSoC5/cyfitter_cfg.c **** 			const cfg_memcpy_t CYCODE * CYDATA mc = &cfg_memcpy_list[i];
 718              		.loc 1 471 0 discriminator 3
 719 0052 FA7D     		ldrb	r2, [r7, #23]	@ zero_extendqisi2
 720 0054 1346     		mov	r3, r2
 721 0056 9B00     		lsls	r3, r3, #2
 722 0058 1344     		add	r3, r3, r2
 723 005a 5B00     		lsls	r3, r3, #1
 724 005c 474A     		ldr	r2, .L37+8
 725 005e 1344     		add	r3, r3, r2
 726 0060 FB60     		str	r3, [r7, #12]
 472:Generated_Source\PSoC5/cyfitter_cfg.c **** 			void * CYDATA destPtr = mc->dest;
 727              		.loc 1 472 0 discriminator 3
 728 0062 FB68     		ldr	r3, [r7, #12]
 729 0064 1B68     		ldr	r3, [r3]	@ unaligned
 730 0066 BB60     		str	r3, [r7, #8]
 473:Generated_Source\PSoC5/cyfitter_cfg.c **** 			const void * CYDATA srcPtr = mc->src;
 731              		.loc 1 473 0 discriminator 3
 732 0068 FB68     		ldr	r3, [r7, #12]
 733 006a 5B68     		ldr	r3, [r3, #4]	@ unaligned
 734 006c 7B60     		str	r3, [r7, #4]
 474:Generated_Source\PSoC5/cyfitter_cfg.c **** 			uint16 CYDATA numBytes = mc->size;
 735              		.loc 1 474 0 discriminator 3
 736 006e FB68     		ldr	r3, [r7, #12]
 737 0070 1A7A     		ldrb	r2, [r3, #8]	@ zero_extendqisi2
 738 0072 5B7A     		ldrb	r3, [r3, #9]	@ zero_extendqisi2
 739 0074 1B02     		lsls	r3, r3, #8
 740 0076 1343     		orrs	r3, r3, r2
 741 0078 7B80     		strh	r3, [r7, #2]	@ movhi
 475:Generated_Source\PSoC5/cyfitter_cfg.c **** 			CYCONFIGCPY(destPtr, srcPtr, numBytes);
 742              		.loc 1 475 0 discriminator 3
 743 007a 7B88     		ldrh	r3, [r7, #2]
 744 007c 1A46     		mov	r2, r3
 745 007e 7968     		ldr	r1, [r7, #4]
 746 0080 B868     		ldr	r0, [r7, #8]
 747 0082 FFF7FEFF 		bl	CYCONFIGCPY
 748              	.LBE5:
 469:Generated_Source\PSoC5/cyfitter_cfg.c **** 		{
 749              		.loc 1 469 0 discriminator 3
 750 0086 FB7D     		ldrb	r3, [r7, #23]	@ zero_extendqisi2
 751 0088 0133     		adds	r3, r3, #1
 752 008a FB75     		strb	r3, [r7, #23]
 753              	.L35:
 469:Generated_Source\PSoC5/cyfitter_cfg.c **** 		{
 754              		.loc 1 469 0 is_stmt 0 discriminator 1
 755 008c FB7D     		ldrb	r3, [r7, #23]	@ zero_extendqisi2
 756 008e 052B     		cmp	r3, #5
 757 0090 DFD9     		bls	.L36
 476:Generated_Source\PSoC5/cyfitter_cfg.c **** 		}
 477:Generated_Source\PSoC5/cyfitter_cfg.c **** 
 478:Generated_Source\PSoC5/cyfitter_cfg.c **** 		cfg_write_bytes32(cy_cfg_addr_table, cy_cfg_data_table);
 758              		.loc 1 478 0 is_stmt 1
 759 0092 3B49     		ldr	r1, .L37+12
 760 0094 4FF09040 		mov	r0, #1207959552
ARM GAS  C:\Users\Tomas\AppData\Local\Temp\ccjjZf9M.s 			page 23


 761 0098 FFF7FEFF 		bl	cfg_write_bytes32
 479:Generated_Source\PSoC5/cyfitter_cfg.c **** 
 480:Generated_Source\PSoC5/cyfitter_cfg.c **** 		/* Perform normal device configuration. Order is not critical for these items. */
 481:Generated_Source\PSoC5/cyfitter_cfg.c **** 		CY_SET_XTND_REG8((void CYFAR *)(CYREG_USB_USBIO_CR1), 0x20u);
 762              		.loc 1 481 0
 763 009c 394B     		ldr	r3, .L37+16
 764 009e 2022     		movs	r2, #32
 765 00a0 1A70     		strb	r2, [r3]
 482:Generated_Source\PSoC5/cyfitter_cfg.c **** 
 483:Generated_Source\PSoC5/cyfitter_cfg.c **** 		/* B0_P1_U1_CFG24 Starting address: CYDEV_UCFG_B0_P1_U1_CFG24 */
 484:Generated_Source\PSoC5/cyfitter_cfg.c **** 		CY_SET_XTND_REG32((void CYFAR *)(CYREG_B0_P1_U1_CFG24), 0xE4040404u);
 766              		.loc 1 484 0
 767 00a2 394B     		ldr	r3, .L37+20
 768 00a4 394A     		ldr	r2, .L37+24
 769 00a6 1A60     		str	r2, [r3]
 485:Generated_Source\PSoC5/cyfitter_cfg.c **** 
 486:Generated_Source\PSoC5/cyfitter_cfg.c **** 		/* B0_P6_U0_CFG24 Starting address: CYDEV_UCFG_B0_P6_U0_CFG24 */
 487:Generated_Source\PSoC5/cyfitter_cfg.c **** 		CY_SET_XTND_REG32((void CYFAR *)(CYREG_B0_P6_U0_CFG24), 0x44040404u);
 770              		.loc 1 487 0
 771 00a8 394B     		ldr	r3, .L37+28
 772 00aa 3A4A     		ldr	r2, .L37+32
 773 00ac 1A60     		str	r2, [r3]
 488:Generated_Source\PSoC5/cyfitter_cfg.c **** 
 489:Generated_Source\PSoC5/cyfitter_cfg.c **** 		/* B1_P3_U1_CFG24 Starting address: CYDEV_UCFG_B1_P3_U1_CFG24 */
 490:Generated_Source\PSoC5/cyfitter_cfg.c **** 		CY_SET_XTND_REG32((void CYFAR *)(CYREG_B1_P3_U1_CFG24), 0x84040404u);
 774              		.loc 1 490 0
 775 00ae 3A4B     		ldr	r3, .L37+36
 776 00b0 3A4A     		ldr	r2, .L37+40
 777 00b2 1A60     		str	r2, [r3]
 491:Generated_Source\PSoC5/cyfitter_cfg.c **** 
 492:Generated_Source\PSoC5/cyfitter_cfg.c **** 		/* Enable digital routing */
 493:Generated_Source\PSoC5/cyfitter_cfg.c **** 		CY_SET_XTND_REG8((void CYFAR *)CYREG_BCTL0_BANK_CTL, CY_GET_XTND_REG8((void CYFAR *)CYREG_BCTL0_B
 778              		.loc 1 493 0
 779 00b4 3A4A     		ldr	r2, .L37+44
 780 00b6 3A4B     		ldr	r3, .L37+44
 781 00b8 1B78     		ldrb	r3, [r3]
 782 00ba DBB2     		uxtb	r3, r3
 783 00bc 43F00203 		orr	r3, r3, #2
 784 00c0 DBB2     		uxtb	r3, r3
 785 00c2 1370     		strb	r3, [r2]
 494:Generated_Source\PSoC5/cyfitter_cfg.c **** 		CY_SET_XTND_REG8((void CYFAR *)CYREG_BCTL1_BANK_CTL, CY_GET_XTND_REG8((void CYFAR *)CYREG_BCTL1_B
 786              		.loc 1 494 0
 787 00c4 374A     		ldr	r2, .L37+48
 788 00c6 374B     		ldr	r3, .L37+48
 789 00c8 1B78     		ldrb	r3, [r3]
 790 00ca DBB2     		uxtb	r3, r3
 791 00cc 43F00203 		orr	r3, r3, #2
 792 00d0 DBB2     		uxtb	r3, r3
 793 00d2 1370     		strb	r3, [r2]
 495:Generated_Source\PSoC5/cyfitter_cfg.c **** 
 496:Generated_Source\PSoC5/cyfitter_cfg.c **** 		/* Enable UDB array */
 497:Generated_Source\PSoC5/cyfitter_cfg.c **** 		CY_SET_XTND_REG8((void CYFAR *)CYREG_PM_ACT_CFG0, CY_GET_XTND_REG8((void CYFAR *)CYREG_PM_ACT_CFG
 794              		.loc 1 497 0
 795 00d4 344A     		ldr	r2, .L37+52
 796 00d6 344B     		ldr	r3, .L37+52
 797 00d8 1B78     		ldrb	r3, [r3]
 798 00da DBB2     		uxtb	r3, r3
ARM GAS  C:\Users\Tomas\AppData\Local\Temp\ccjjZf9M.s 			page 24


 799 00dc 43F04003 		orr	r3, r3, #64
 800 00e0 DBB2     		uxtb	r3, r3
 801 00e2 1370     		strb	r3, [r2]
 498:Generated_Source\PSoC5/cyfitter_cfg.c **** 		CY_SET_XTND_REG8((void CYFAR *)CYREG_PM_AVAIL_CR2, CY_GET_XTND_REG8((void CYFAR *)CYREG_PM_AVAIL_
 802              		.loc 1 498 0
 803 00e4 314A     		ldr	r2, .L37+56
 804 00e6 314B     		ldr	r3, .L37+56
 805 00e8 1B78     		ldrb	r3, [r3]
 806 00ea DBB2     		uxtb	r3, r3
 807 00ec 43F01003 		orr	r3, r3, #16
 808 00f0 DBB2     		uxtb	r3, r3
 809 00f2 1370     		strb	r3, [r2]
 810              	.LBE3:
 499:Generated_Source\PSoC5/cyfitter_cfg.c **** 	}
 500:Generated_Source\PSoC5/cyfitter_cfg.c **** 
 501:Generated_Source\PSoC5/cyfitter_cfg.c **** 
 502:Generated_Source\PSoC5/cyfitter_cfg.c **** 	/* Perform second pass device configuration. These items must be configured in specific order afte
 503:Generated_Source\PSoC5/cyfitter_cfg.c **** 	CYCONFIGCPY((void CYFAR *)(CYREG_PRT0_DM0), (const void CYFAR *)(BS_IOPINS0_0_VAL), 8u);
 811              		.loc 1 503 0
 812 00f4 0822     		movs	r2, #8
 813 00f6 2E49     		ldr	r1, .L37+60
 814 00f8 2E48     		ldr	r0, .L37+64
 815 00fa FFF7FEFF 		bl	CYCONFIGCPY
 504:Generated_Source\PSoC5/cyfitter_cfg.c **** 	CYCONFIGCPY((void CYFAR *)(CYREG_PRT12_DR), (const void CYFAR *)(BS_IOPINS0_7_VAL), 10u);
 816              		.loc 1 504 0
 817 00fe 0A22     		movs	r2, #10
 818 0100 2D49     		ldr	r1, .L37+68
 819 0102 2E48     		ldr	r0, .L37+72
 820 0104 FFF7FEFF 		bl	CYCONFIGCPY
 505:Generated_Source\PSoC5/cyfitter_cfg.c **** 	CYCONFIGCPY((void CYFAR *)(CYREG_PRT15_DR), (const void CYFAR *)(BS_IOPINS0_8_VAL), 10u);
 821              		.loc 1 505 0
 822 0108 0A22     		movs	r2, #10
 823 010a 2D49     		ldr	r1, .L37+76
 824 010c 2D48     		ldr	r0, .L37+80
 825 010e FFF7FEFF 		bl	CYCONFIGCPY
 506:Generated_Source\PSoC5/cyfitter_cfg.c **** 	CYCONFIGCPY((void CYFAR *)(CYREG_PRT1_DM0), (const void CYFAR *)(BS_IOPINS0_1_VAL), 8u);
 826              		.loc 1 506 0
 827 0112 0822     		movs	r2, #8
 828 0114 2C49     		ldr	r1, .L37+84
 829 0116 2D48     		ldr	r0, .L37+88
 830 0118 FFF7FEFF 		bl	CYCONFIGCPY
 507:Generated_Source\PSoC5/cyfitter_cfg.c **** 	CYCONFIGCPY((void CYFAR *)(CYREG_PRT2_DR), (const void CYFAR *)(BS_IOPINS0_2_VAL), 10u);
 831              		.loc 1 507 0
 832 011c 0A22     		movs	r2, #10
 833 011e 2C49     		ldr	r1, .L37+92
 834 0120 2C48     		ldr	r0, .L37+96
 835 0122 FFF7FEFF 		bl	CYCONFIGCPY
 508:Generated_Source\PSoC5/cyfitter_cfg.c **** 	CYCONFIGCPY((void CYFAR *)(CYREG_PRT3_DM0), (const void CYFAR *)(BS_IOPINS0_3_VAL), 8u);
 836              		.loc 1 508 0
 837 0126 0822     		movs	r2, #8
 838 0128 2B49     		ldr	r1, .L37+100
 839 012a 2C48     		ldr	r0, .L37+104
 840 012c FFF7FEFF 		bl	CYCONFIGCPY
 509:Generated_Source\PSoC5/cyfitter_cfg.c **** 	CYCONFIGCPY((void CYFAR *)(CYREG_PRT4_DM0), (const void CYFAR *)(BS_IOPINS0_4_VAL), 8u);
 841              		.loc 1 509 0
 842 0130 0822     		movs	r2, #8
 843 0132 2B49     		ldr	r1, .L37+108
ARM GAS  C:\Users\Tomas\AppData\Local\Temp\ccjjZf9M.s 			page 25


 844 0134 2B48     		ldr	r0, .L37+112
 845 0136 FFF7FEFF 		bl	CYCONFIGCPY
 510:Generated_Source\PSoC5/cyfitter_cfg.c **** 	CYCONFIGCPY((void CYFAR *)(CYREG_PRT5_DM0), (const void CYFAR *)(BS_IOPINS0_5_VAL), 8u);
 846              		.loc 1 510 0
 847 013a 0822     		movs	r2, #8
 848 013c 2A49     		ldr	r1, .L37+116
 849 013e 2B48     		ldr	r0, .L37+120
 850 0140 FFF7FEFF 		bl	CYCONFIGCPY
 511:Generated_Source\PSoC5/cyfitter_cfg.c **** 	/* Switch Boost to the precision bandgap reference from its internal reference */
 512:Generated_Source\PSoC5/cyfitter_cfg.c **** 	CY_SET_REG8((void CYXDATA *)CYREG_BOOST_CR2, (CY_GET_REG8((void CYXDATA *)CYREG_BOOST_CR2) | 0x08u
 851              		.loc 1 512 0
 852 0144 2A4A     		ldr	r2, .L37+124
 853 0146 2A4B     		ldr	r3, .L37+124
 854 0148 1B78     		ldrb	r3, [r3]
 855 014a DBB2     		uxtb	r3, r3
 856 014c 43F00803 		orr	r3, r3, #8
 857 0150 DBB2     		uxtb	r3, r3
 858 0152 1370     		strb	r3, [r2]
 513:Generated_Source\PSoC5/cyfitter_cfg.c **** 
 514:Generated_Source\PSoC5/cyfitter_cfg.c **** 	/* Set Flash Cycles based on max possible frequency in case a glitch occurs during ClockSetup(). *
 515:Generated_Source\PSoC5/cyfitter_cfg.c **** 	CY_SET_XTND_REG8((void CYFAR *)(CYREG_CACHE_CC_CTL), (((CYDEV_INSTRUCT_CACHE_ENABLED) != 0) ? 0x01
 859              		.loc 1 515 0
 860 0154 274B     		ldr	r3, .L37+128
 861 0156 0022     		movs	r2, #0
 862 0158 1A70     		strb	r2, [r3]
 516:Generated_Source\PSoC5/cyfitter_cfg.c **** 	/* Setup clocks based on selections from Clock DWR */
 517:Generated_Source\PSoC5/cyfitter_cfg.c **** 	ClockSetup();
 863              		.loc 1 517 0
 864 015a FFF7FEFF 		bl	ClockSetup
 518:Generated_Source\PSoC5/cyfitter_cfg.c **** 
 519:Generated_Source\PSoC5/cyfitter_cfg.c **** 	/* Perform basic analog initialization to defaults */
 520:Generated_Source\PSoC5/cyfitter_cfg.c **** 	AnalogSetDefault();
 865              		.loc 1 520 0
 866 015e FFF7FEFF 		bl	AnalogSetDefault
 521:Generated_Source\PSoC5/cyfitter_cfg.c **** 
 522:Generated_Source\PSoC5/cyfitter_cfg.c **** 	/* Configure alternate active mode */
 523:Generated_Source\PSoC5/cyfitter_cfg.c **** 	CYCONFIGCPY((void CYFAR *)CYDEV_PM_STBY_BASE, (const void CYFAR *)CYDEV_PM_ACT_BASE, 14u);
 867              		.loc 1 523 0
 868 0162 0E22     		movs	r2, #14
 869 0164 1049     		ldr	r1, .L37+52
 870 0166 2448     		ldr	r0, .L37+132
 871 0168 FFF7FEFF 		bl	CYCONFIGCPY
 524:Generated_Source\PSoC5/cyfitter_cfg.c **** }
 872              		.loc 1 524 0
 873 016c 00BF     		nop
 874 016e 1837     		adds	r7, r7, #24
 875              		.cfi_def_cfa_offset 8
 876 0170 BD46     		mov	sp, r7
 877              		.cfi_def_cfa_register 13
 878              		@ sp needed
 879 0172 80BD     		pop	{r7, pc}
 880              	.L38:
 881              		.align	2
 882              	.L37:
 883 0174 E8460040 		.word	1073759976
 884 0178 00000000 		.word	cfg_memset_list.5014
 885 017c 3C000000 		.word	cfg_memcpy_list.5015
ARM GAS  C:\Users\Tomas\AppData\Local\Temp\ccjjZf9M.s 			page 26


 886 0180 A0000048 		.word	1207959712
 887 0184 12600040 		.word	1073766418
 888 0188 D8020140 		.word	1073808088
 889 018c 040404E4 		.word	-469498876
 890 0190 580C0140 		.word	1073810520
 891 0194 04040444 		.word	1141113860
 892 0198 D8160140 		.word	1073813208
 893 019c 04040484 		.word	-2080111612
 894 01a0 03500140 		.word	1073827843
 895 01a4 13500140 		.word	1073827859
 896 01a8 A0430040 		.word	1073759136
 897 01ac C2430040 		.word	1073759170
 898 01b0 70150048 		.word	1207965040
 899 01b4 02510040 		.word	1073762562
 900 01b8 78150048 		.word	1207965048
 901 01bc C0510040 		.word	1073762752
 902 01c0 84150048 		.word	1207965060
 903 01c4 F0510040 		.word	1073762800
 904 01c8 90150048 		.word	1207965072
 905 01cc 12510040 		.word	1073762578
 906 01d0 98150048 		.word	1207965080
 907 01d4 20510040 		.word	1073762592
 908 01d8 A4150048 		.word	1207965092
 909 01dc 32510040 		.word	1073762610
 910 01e0 AC150048 		.word	1207965100
 911 01e4 42510040 		.word	1073762626
 912 01e8 B4150048 		.word	1207965108
 913 01ec 52510040 		.word	1073762642
 914 01f0 22430040 		.word	1073759010
 915 01f4 00480040 		.word	1073760256
 916 01f8 B0430040 		.word	1073759152
 917              		.cfi_endproc
 918              	.LFE8:
 919              		.size	cyfitter_cfg, .-cyfitter_cfg
 920              		.section	.rodata
 921              		.align	2
 922              		.type	cfg_memset_list.5014, %object
 923              		.size	cfg_memset_list.5014, 60
 924              	cfg_memset_list.5014:
 925 0000 004F0040 		.word	1073762048
 926 0004 2400     		.short	36
 927 0006 60510040 		.4byte	1073762656
 928 000a 1000     		.short	16
 929 000c 00000140 		.word	1073807360
 930 0010 8002     		.short	640
 931 0012 00030140 		.4byte	1073808128
 932 0016 8007     		.short	1920
 933 0018 000B0140 		.word	1073810176
 934 001c 0005     		.short	1280
 935 001e 00140140 		.4byte	1073812480
 936 0022 8002     		.short	640
 937 0024 00170140 		.word	1073813248
 938 0028 0005     		.short	1280
 939 002a 00400140 		.4byte	1073823744
 940 002e 000A     		.short	2560
 941 0030 004C0140 		.word	1073826816
 942 0034 0002     		.short	512
ARM GAS  C:\Users\Tomas\AppData\Local\Temp\ccjjZf9M.s 			page 27


 943 0036 10500140 		.4byte	1073827856
 944 003a 1000     		.short	16
 945              		.align	2
 946              		.type	cfg_memcpy_list.5015, %object
 947              		.size	cfg_memcpy_list.5015, 60
 948              	cfg_memcpy_list.5015:
 949 003c 60520040 		.word	1073762912
 950 0040 D0130048 		.word	1207964624
 951 0044 0600     		.short	6
 952 0046 00510140 		.4byte	1073828096
 953 004a D8130048 		.4byte	1207964632
 954 004e 0800     		.short	8
 955 0050 80020140 		.word	1073808000
 956 0054 E0130048 		.word	1207964640
 957 0058 8000     		.short	128
 958 005a 800A0140 		.4byte	1073810048
 959 005e 60140048 		.4byte	1207964768
 960 0062 8000     		.short	128
 961 0064 80160140 		.word	1073813120
 962 0068 E0140048 		.word	1207964896
 963 006c 8000     		.short	128
 964 006e 00500140 		.4byte	1073827840
 965 0072 60150048 		.4byte	1207965024
 966 0076 1000     		.short	16
 967              		.text
 968              	.Letext0:
 969              		.file 2 "c:\\program files (x86)\\cypress\\psoc creator\\4.1\\psoc creator\\import\\gnu\\arm\\5.4.
 970              		.file 3 "Generated_Source\\PSoC5\\cytypes.h"