ARM GAS  C:\Users\TOMAS~1.GEC\AppData\Local\Temp\ccy293cz.s 			page 1


   1              		.syntax unified
   2              		.cpu cortex-m3
   3              		.fpu softvfp
   4              		.eabi_attribute 20, 1
   5              		.eabi_attribute 21, 1
   6              		.eabi_attribute 23, 3
   7              		.eabi_attribute 24, 1
   8              		.eabi_attribute 25, 1
   9              		.eabi_attribute 26, 1
  10              		.eabi_attribute 30, 6
  11              		.eabi_attribute 34, 1
  12              		.eabi_attribute 18, 4
  13              		.thumb
  14              		.syntax unified
  15              		.file	"mbus.c"
  16              		.text
  17              	.Ltext0:
  18              		.cfi_sections	.debug_frame
  19              		.global	SND_NKE_FRAME
  20              		.section	.rodata
  21              		.align	2
  22              		.type	SND_NKE_FRAME, %object
  23              		.size	SND_NKE_FRAME, 5
  24              	SND_NKE_FRAME:
  25 0000 10       		.byte	16
  26 0001 40       		.byte	64
  27 0002 FE       		.byte	-2
  28 0003 3E       		.byte	62
  29 0004 16       		.byte	22
  30              		.comm	uart2_tx_buffer,500,4
  31              		.comm	uart2_rx_buffer,500,4
  32              		.comm	mbus_rx_count,2,2
  33              		.section	.text.mbus_cs,"ax",%progbits
  34              		.align	2
  35              		.global	mbus_cs
  36              		.thumb
  37              		.thumb_func
  38              		.type	mbus_cs, %function
  39              	mbus_cs:
  40              	.LFB64:
  41              		.file 1 "mbus.c"
   1:mbus.c        **** /* ========================================
   2:mbus.c        ****  *
   3:mbus.c        ****  * Copyright YOUR COMPANY, THE YEAR
   4:mbus.c        ****  * All Rights Reserved
   5:mbus.c        ****  * UNPUBLISHED, LICENSED SOFTWARE.
   6:mbus.c        ****  *
   7:mbus.c        ****  * CONFIDENTIAL AND PROPRIETARY INFORMATION
   8:mbus.c        ****  * WHICH IS THE PROPERTY OF your company.
   9:mbus.c        ****  *
  10:mbus.c        ****  * ========================================
  11:mbus.c        **** */
  12:mbus.c        **** #include <device.h>
  13:mbus.c        **** #include "mbus.h"
  14:mbus.c        **** 
  15:mbus.c        **** 
  16:mbus.c        **** 
ARM GAS  C:\Users\TOMAS~1.GEC\AppData\Local\Temp\ccy293cz.s 			page 2


  17:mbus.c        **** const uint8 SND_NKE_FRAME[] = {0x10, 0x40, 0xFE, 0x3E, 0x16};
  18:mbus.c        **** 
  19:mbus.c        **** 
  20:mbus.c        **** 
  21:mbus.c        **** uint8 uart2_tx_buffer[500];
  22:mbus.c        **** uint8 uart2_rx_buffer[500];
  23:mbus.c        **** uint16 mbus_rx_count;
  24:mbus.c        **** 
  25:mbus.c        **** uint8 mbus_cs(uint8 * buffer, int count)
  26:mbus.c        **** {
  42              		.loc 1 26 0
  43              		.cfi_startproc
  44              		@ args = 0, pretend = 0, frame = 16
  45              		@ frame_needed = 1, uses_anonymous_args = 0
  46              		@ link register save eliminated.
  47 0000 80B4     		push	{r7}
  48              		.cfi_def_cfa_offset 4
  49              		.cfi_offset 7, -4
  50 0002 85B0     		sub	sp, sp, #20
  51              		.cfi_def_cfa_offset 24
  52 0004 00AF     		add	r7, sp, #0
  53              		.cfi_def_cfa_register 7
  54 0006 7860     		str	r0, [r7, #4]
  55 0008 3960     		str	r1, [r7]
  27:mbus.c        ****     int cs = 0;
  56              		.loc 1 27 0
  57 000a 0023     		movs	r3, #0
  58 000c FB60     		str	r3, [r7, #12]
  28:mbus.c        ****     while(count > 0)
  59              		.loc 1 28 0
  60 000e 0BE0     		b	.L2
  61              	.L3:
  29:mbus.c        ****     {
  30:mbus.c        ****         cs += *buffer;
  62              		.loc 1 30 0
  63 0010 7B68     		ldr	r3, [r7, #4]
  64 0012 1B78     		ldrb	r3, [r3]	@ zero_extendqisi2
  65 0014 1A46     		mov	r2, r3
  66 0016 FB68     		ldr	r3, [r7, #12]
  67 0018 1344     		add	r3, r3, r2
  68 001a FB60     		str	r3, [r7, #12]
  31:mbus.c        ****         buffer++;
  69              		.loc 1 31 0
  70 001c 7B68     		ldr	r3, [r7, #4]
  71 001e 0133     		adds	r3, r3, #1
  72 0020 7B60     		str	r3, [r7, #4]
  32:mbus.c        ****         count--;
  73              		.loc 1 32 0
  74 0022 3B68     		ldr	r3, [r7]
  75 0024 013B     		subs	r3, r3, #1
  76 0026 3B60     		str	r3, [r7]
  77              	.L2:
  28:mbus.c        ****     {
  78              		.loc 1 28 0
  79 0028 3B68     		ldr	r3, [r7]
  80 002a 002B     		cmp	r3, #0
  81 002c F0DC     		bgt	.L3
ARM GAS  C:\Users\TOMAS~1.GEC\AppData\Local\Temp\ccy293cz.s 			page 3


  33:mbus.c        ****     }
  34:mbus.c        ****     return (cs & 0xFF);
  82              		.loc 1 34 0
  83 002e FB68     		ldr	r3, [r7, #12]
  84 0030 DBB2     		uxtb	r3, r3
  35:mbus.c        **** }
  85              		.loc 1 35 0
  86 0032 1846     		mov	r0, r3
  87 0034 1437     		adds	r7, r7, #20
  88              		.cfi_def_cfa_offset 4
  89 0036 BD46     		mov	sp, r7
  90              		.cfi_def_cfa_register 13
  91              		@ sp needed
  92 0038 80BC     		pop	{r7}
  93              		.cfi_restore 7
  94              		.cfi_def_cfa_offset 0
  95 003a 7047     		bx	lr
  96              		.cfi_endproc
  97              	.LFE64:
  98              		.size	mbus_cs, .-mbus_cs
  99              		.comm	mbus_tmr_start,4,4
 100              		.comm	mbus_tmr_stop,4,4
 101              		.comm	mbus_bit_start,4,4
 102              		.comm	mbus_bit_stop,4,4
 103              		.comm	mbus_bit_min,4,4
 104              		.comm	mbus_bit_max,4,4
 105              		.comm	mbus_repeat_count,2,2
 106              		.section	.text.mbus_send_confirm,"ax",%progbits
 107              		.align	2
 108              		.global	mbus_send_confirm
 109              		.thumb
 110              		.thumb_func
 111              		.type	mbus_send_confirm, %function
 112              	mbus_send_confirm:
 113              	.LFB65:
  36:mbus.c        **** 
  37:mbus.c        **** uint32 mbus_tmr_start, mbus_tmr_stop;
  38:mbus.c        **** 
  39:mbus.c        **** uint32 mbus_bit_start, mbus_bit_stop;
  40:mbus.c        **** 
  41:mbus.c        **** uint32 mbus_bit_min, mbus_bit_max;
  42:mbus.c        **** 
  43:mbus.c        **** uint16 mbus_repeat_count;
  44:mbus.c        **** 
  45:mbus.c        **** uint8 mbus_send_confirm(const uint8 * buffer, unsigned int lenght)
  46:mbus.c        **** {
 114              		.loc 1 46 0
 115              		.cfi_startproc
 116              		@ args = 0, pretend = 0, frame = 8
 117              		@ frame_needed = 1, uses_anonymous_args = 0
 118 0000 90B5     		push	{r4, r7, lr}
 119              		.cfi_def_cfa_offset 12
 120              		.cfi_offset 4, -12
 121              		.cfi_offset 7, -8
 122              		.cfi_offset 14, -4
 123 0002 83B0     		sub	sp, sp, #12
 124              		.cfi_def_cfa_offset 24
ARM GAS  C:\Users\TOMAS~1.GEC\AppData\Local\Temp\ccy293cz.s 			page 4


 125 0004 00AF     		add	r7, sp, #0
 126              		.cfi_def_cfa_register 7
 127 0006 7860     		str	r0, [r7, #4]
 128 0008 3960     		str	r1, [r7]
  47:mbus.c        ****     mbus_repeat_count = 0;
 129              		.loc 1 47 0
 130 000a 3A4B     		ldr	r3, .L18
 131 000c 0022     		movs	r2, #0
 132 000e 1A80     		strh	r2, [r3]	@ movhi
 133              	.L14:
 134              	.LBB2:
  48:mbus.c        ****     do {
  49:mbus.c        ****         mbus_repeat_count++;
 135              		.loc 1 49 0
 136 0010 384B     		ldr	r3, .L18
 137 0012 1B88     		ldrh	r3, [r3]
 138 0014 0133     		adds	r3, r3, #1
 139 0016 9AB2     		uxth	r2, r3
 140 0018 364B     		ldr	r3, .L18
 141 001a 1A80     		strh	r2, [r3]	@ movhi
  50:mbus.c        ****         UART_2_ClearTxBuffer();
 142              		.loc 1 50 0
 143 001c FFF7FEFF 		bl	UART_2_ClearTxBuffer
  51:mbus.c        ****         UART_2_ClearRxBuffer();
 144              		.loc 1 51 0
 145 0020 FFF7FEFF 		bl	UART_2_ClearRxBuffer
  52:mbus.c        ****         memcpy(uart2_rx_buffer,0,sizeof(uart2_rx_buffer));
 146              		.loc 1 52 0
 147 0024 344A     		ldr	r2, .L18+4
 148 0026 0023     		movs	r3, #0
 149 0028 1046     		mov	r0, r2
 150 002a 1946     		mov	r1, r3
 151 002c 4FF4FA73 		mov	r3, #500
 152 0030 1A46     		mov	r2, r3
 153 0032 FFF7FEFF 		bl	memcpy
  53:mbus.c        ****         UART_2_PutArray(buffer, lenght);
 154              		.loc 1 53 0
 155 0036 3968     		ldr	r1, [r7]
 156 0038 7868     		ldr	r0, [r7, #4]
 157 003a FFF7FEFF 		bl	UART_2_PutArray
 158              	.LBB3:
  54:mbus.c        ****         
  55:mbus.c        ****         while (UART_2_GetTxBufferSize() > 0);
 159              		.loc 1 55 0
 160 003e 00BF     		nop
 161              	.L6:
 162              		.loc 1 55 0 is_stmt 0 discriminator 1
 163 0040 FFF7FEFF 		bl	UART_2_GetTxBufferSize
 164 0044 0346     		mov	r3, r0
 165 0046 002B     		cmp	r3, #0
 166 0048 FADC     		bgt	.L6
 167              	.LBE3:
  56:mbus.c        ****         mbus_tmr_start = Timer_1_ReadCounter();
 168              		.loc 1 56 0 is_stmt 1
 169 004a FFF7FEFF 		bl	Timer_1_ReadCounter
 170 004e 0346     		mov	r3, r0
 171 0050 1A46     		mov	r2, r3
ARM GAS  C:\Users\TOMAS~1.GEC\AppData\Local\Temp\ccy293cz.s 			page 5


 172 0052 2A4B     		ldr	r3, .L18+8
 173 0054 1A60     		str	r2, [r3]
 174              	.L8:
 175              	.LBB4:
  57:mbus.c        ****         do {
  58:mbus.c        ****             mbus_tmr_stop = Timer_1_ReadCounter();
 176              		.loc 1 58 0 discriminator 2
 177 0056 FFF7FEFF 		bl	Timer_1_ReadCounter
 178 005a 0346     		mov	r3, r0
 179 005c 1A46     		mov	r2, r3
 180 005e 284B     		ldr	r3, .L18+12
 181 0060 1A60     		str	r2, [r3]
  59:mbus.c        ****         } while ((UART_2_GetRxBufferSize() == 0) && ((mbus_tmr_start - mbus_tmr_stop) < MAX_WAIT_TI
 182              		.loc 1 59 0 discriminator 2
 183 0062 FFF7FEFF 		bl	UART_2_GetRxBufferSize
 184 0066 0346     		mov	r3, r0
 185 0068 002B     		cmp	r3, #0
 186 006a 07D1     		bne	.L7
 187              		.loc 1 59 0 is_stmt 0 discriminator 1
 188 006c 234B     		ldr	r3, .L18+8
 189 006e 1A68     		ldr	r2, [r3]
 190 0070 234B     		ldr	r3, .L18+12
 191 0072 1B68     		ldr	r3, [r3]
 192 0074 D31A     		subs	r3, r2, r3
 193 0076 234A     		ldr	r2, .L18+16
 194 0078 9342     		cmp	r3, r2
 195 007a ECD9     		bls	.L8
 196              	.L7:
 197              	.LBE4:
  60:mbus.c        ****       
  61:mbus.c        ****         mbus_rx_count = 0;
 198              		.loc 1 61 0 is_stmt 1
 199 007c 224B     		ldr	r3, .L18+20
 200 007e 0022     		movs	r2, #0
 201 0080 1A80     		strh	r2, [r3]	@ movhi
 202              	.LBB5:
  62:mbus.c        ****         while ((UART_2_GetRxBufferSize() > 0) && (mbus_rx_count < sizeof(uart2_tx_buffer)))
 203              		.loc 1 62 0
 204 0082 0EE0     		b	.L9
 205              	.L11:
 206              	.LBB6:
  63:mbus.c        ****         {
  64:mbus.c        ****            uart2_rx_buffer[mbus_rx_count] = UART_2_ReadRxData();
 207              		.loc 1 64 0
 208 0084 204B     		ldr	r3, .L18+20
 209 0086 1B88     		ldrh	r3, [r3]
 210 0088 1C46     		mov	r4, r3
 211 008a FFF7FEFF 		bl	UART_2_ReadRxData
 212 008e 0346     		mov	r3, r0
 213 0090 DAB2     		uxtb	r2, r3
 214 0092 194B     		ldr	r3, .L18+4
 215 0094 1A55     		strb	r2, [r3, r4]
  65:mbus.c        ****            mbus_rx_count++;
 216              		.loc 1 65 0
 217 0096 1C4B     		ldr	r3, .L18+20
 218 0098 1B88     		ldrh	r3, [r3]
 219 009a 0133     		adds	r3, r3, #1
ARM GAS  C:\Users\TOMAS~1.GEC\AppData\Local\Temp\ccy293cz.s 			page 6


 220 009c 9AB2     		uxth	r2, r3
 221 009e 1A4B     		ldr	r3, .L18+20
 222 00a0 1A80     		strh	r2, [r3]	@ movhi
 223              	.L9:
 224              	.LBE6:
  62:mbus.c        ****         while ((UART_2_GetRxBufferSize() > 0) && (mbus_rx_count < sizeof(uart2_tx_buffer)))
 225              		.loc 1 62 0
 226 00a2 FFF7FEFF 		bl	UART_2_GetRxBufferSize
 227 00a6 0346     		mov	r3, r0
 228 00a8 002B     		cmp	r3, #0
 229 00aa 04DD     		ble	.L10
  62:mbus.c        ****         while ((UART_2_GetRxBufferSize() > 0) && (mbus_rx_count < sizeof(uart2_tx_buffer)))
 230              		.loc 1 62 0 is_stmt 0 discriminator 1
 231 00ac 164B     		ldr	r3, .L18+20
 232 00ae 1B88     		ldrh	r3, [r3]
 233 00b0 B3F5FA7F 		cmp	r3, #500
 234 00b4 E6D3     		bcc	.L11
 235              	.L10:
 236              	.LBE5:
  66:mbus.c        ****         }
  67:mbus.c        ****         if ((mbus_rx_count == 1) && (uart2_rx_buffer[0] ==0xE5))
 237              		.loc 1 67 0 is_stmt 1
 238 00b6 144B     		ldr	r3, .L18+20
 239 00b8 1B88     		ldrh	r3, [r3]
 240 00ba 012B     		cmp	r3, #1
 241 00bc 03D1     		bne	.L12
 242              		.loc 1 67 0 is_stmt 0 discriminator 1
 243 00be 0E4B     		ldr	r3, .L18+4
 244 00c0 1B78     		ldrb	r3, [r3]	@ zero_extendqisi2
 245 00c2 E52B     		cmp	r3, #229
 246 00c4 06D0     		beq	.L13
 247              	.L12:
  68:mbus.c        ****             break;
  69:mbus.c        ****         else
  70:mbus.c        ****         {
  71:mbus.c        ****             CyDelay(200); // 330 bit times + 50ms, kai 2400bps
 248              		.loc 1 71 0 is_stmt 1
 249 00c6 C820     		movs	r0, #200
 250 00c8 FFF7FEFF 		bl	CyDelay
 251              	.LBE2:
  72:mbus.c        ****         }
  73:mbus.c        ****     } while (mbus_repeat_count < 3);
 252              		.loc 1 73 0
 253 00cc 094B     		ldr	r3, .L18
 254 00ce 1B88     		ldrh	r3, [r3]
 255 00d0 022B     		cmp	r3, #2
 256 00d2 9DD9     		bls	.L14
 257              	.L13:
  74:mbus.c        ****     return ((mbus_rx_count == 1) && (uart2_rx_buffer[0] == 0xE5));
 258              		.loc 1 74 0
 259 00d4 0C4B     		ldr	r3, .L18+20
 260 00d6 1B88     		ldrh	r3, [r3]
 261 00d8 012B     		cmp	r3, #1
 262 00da 05D1     		bne	.L15
 263              		.loc 1 74 0 is_stmt 0 discriminator 1
 264 00dc 064B     		ldr	r3, .L18+4
 265 00de 1B78     		ldrb	r3, [r3]	@ zero_extendqisi2
ARM GAS  C:\Users\TOMAS~1.GEC\AppData\Local\Temp\ccy293cz.s 			page 7


 266 00e0 E52B     		cmp	r3, #229
 267 00e2 01D1     		bne	.L15
 268              		.loc 1 74 0 discriminator 3
 269 00e4 0123     		movs	r3, #1
 270 00e6 00E0     		b	.L16
 271              	.L15:
 272              		.loc 1 74 0 discriminator 4
 273 00e8 0023     		movs	r3, #0
 274              	.L16:
 275              		.loc 1 74 0 discriminator 6
 276 00ea DBB2     		uxtb	r3, r3
  75:mbus.c        **** }
 277              		.loc 1 75 0 is_stmt 1 discriminator 6
 278 00ec 1846     		mov	r0, r3
 279 00ee 0C37     		adds	r7, r7, #12
 280              		.cfi_def_cfa_offset 12
 281 00f0 BD46     		mov	sp, r7
 282              		.cfi_def_cfa_register 13
 283              		@ sp needed
 284 00f2 90BD     		pop	{r4, r7, pc}
 285              	.L19:
 286              		.align	2
 287              	.L18:
 288 00f4 00000000 		.word	mbus_repeat_count
 289 00f8 00000000 		.word	uart2_rx_buffer
 290 00fc 00000000 		.word	mbus_tmr_start
 291 0100 00000000 		.word	mbus_tmr_stop
 292 0104 3F0D0300 		.word	199999
 293 0108 00000000 		.word	mbus_rx_count
 294              		.cfi_endproc
 295              	.LFE65:
 296              		.size	mbus_send_confirm, .-mbus_send_confirm
 297              		.comm	FCB_Bit,1,1
 298              		.section	.text.mbus_next_record,"ax",%progbits
 299              		.align	2
 300              		.global	mbus_next_record
 301              		.thumb
 302              		.thumb_func
 303              		.type	mbus_next_record, %function
 304              	mbus_next_record:
 305              	.LFB66:
  76:mbus.c        **** 
  77:mbus.c        **** uint8 FCB_Bit; //0x20
  78:mbus.c        **** uint8 mbus_next_record(void)
  79:mbus.c        **** {
 306              		.loc 1 79 0
 307              		.cfi_startproc
 308              		@ args = 0, pretend = 0, frame = 0
 309              		@ frame_needed = 1, uses_anonymous_args = 0
 310              		@ link register save eliminated.
 311 0000 80B4     		push	{r7}
 312              		.cfi_def_cfa_offset 4
 313              		.cfi_offset 7, -4
 314 0002 00AF     		add	r7, sp, #0
 315              		.cfi_def_cfa_register 7
  80:mbus.c        ****     FCB_Bit ^= 0x20;
 316              		.loc 1 80 0
ARM GAS  C:\Users\TOMAS~1.GEC\AppData\Local\Temp\ccy293cz.s 			page 8


 317 0004 054B     		ldr	r3, .L21
 318 0006 1B78     		ldrb	r3, [r3]	@ zero_extendqisi2
 319 0008 83F02003 		eor	r3, r3, #32
 320 000c DAB2     		uxtb	r2, r3
 321 000e 034B     		ldr	r3, .L21
 322 0010 1A70     		strb	r2, [r3]
  81:mbus.c        **** }
 323              		.loc 1 81 0
 324 0012 00BF     		nop
 325 0014 1846     		mov	r0, r3
 326 0016 BD46     		mov	sp, r7
 327              		.cfi_def_cfa_register 13
 328              		@ sp needed
 329 0018 80BC     		pop	{r7}
 330              		.cfi_restore 7
 331              		.cfi_def_cfa_offset 0
 332 001a 7047     		bx	lr
 333              	.L22:
 334              		.align	2
 335              	.L21:
 336 001c 00000000 		.word	FCB_Bit
 337              		.cfi_endproc
 338              	.LFE66:
 339              		.size	mbus_next_record, .-mbus_next_record
 340              		.section	.text.mbus_request_respond,"ax",%progbits
 341              		.align	2
 342              		.global	mbus_request_respond
 343              		.thumb
 344              		.thumb_func
 345              		.type	mbus_request_respond, %function
 346              	mbus_request_respond:
 347              	.LFB67:
  82:mbus.c        **** 
  83:mbus.c        **** uint8 mbus_request_respond(uint8 short_addres)
  84:mbus.c        **** {
 348              		.loc 1 84 0
 349              		.cfi_startproc
 350              		@ args = 0, pretend = 0, frame = 8
 351              		@ frame_needed = 1, uses_anonymous_args = 0
 352 0000 90B5     		push	{r4, r7, lr}
 353              		.cfi_def_cfa_offset 12
 354              		.cfi_offset 4, -12
 355              		.cfi_offset 7, -8
 356              		.cfi_offset 14, -4
 357 0002 83B0     		sub	sp, sp, #12
 358              		.cfi_def_cfa_offset 24
 359 0004 00AF     		add	r7, sp, #0
 360              		.cfi_def_cfa_register 7
 361 0006 0346     		mov	r3, r0
 362 0008 FB71     		strb	r3, [r7, #7]
  85:mbus.c        ****     uart2_tx_buffer[0] = 0x10;
 363              		.loc 1 85 0
 364 000a 784B     		ldr	r3, .L36
 365 000c 1022     		movs	r2, #16
 366 000e 1A70     		strb	r2, [r3]
  86:mbus.c        ****     uart2_tx_buffer[1] = 0x5B | FCB_Bit;
 367              		.loc 1 86 0
ARM GAS  C:\Users\TOMAS~1.GEC\AppData\Local\Temp\ccy293cz.s 			page 9


 368 0010 774B     		ldr	r3, .L36+4
 369 0012 1B78     		ldrb	r3, [r3]	@ zero_extendqisi2
 370 0014 43F05B03 		orr	r3, r3, #91
 371 0018 DAB2     		uxtb	r2, r3
 372 001a 744B     		ldr	r3, .L36
 373 001c 5A70     		strb	r2, [r3, #1]
  87:mbus.c        ****     uart2_tx_buffer[2] = short_addres;
 374              		.loc 1 87 0
 375 001e 734A     		ldr	r2, .L36
 376 0020 FB79     		ldrb	r3, [r7, #7]
 377 0022 9370     		strb	r3, [r2, #2]
  88:mbus.c        ****     uart2_tx_buffer[3] = uart2_tx_buffer[1] + uart2_tx_buffer[2];
 378              		.loc 1 88 0
 379 0024 714B     		ldr	r3, .L36
 380 0026 5A78     		ldrb	r2, [r3, #1]	@ zero_extendqisi2
 381 0028 704B     		ldr	r3, .L36
 382 002a 9B78     		ldrb	r3, [r3, #2]	@ zero_extendqisi2
 383 002c 1344     		add	r3, r3, r2
 384 002e DAB2     		uxtb	r2, r3
 385 0030 6E4B     		ldr	r3, .L36
 386 0032 DA70     		strb	r2, [r3, #3]
  89:mbus.c        ****     uart2_tx_buffer[4] = 0x16;
 387              		.loc 1 89 0
 388 0034 6D4B     		ldr	r3, .L36
 389 0036 1622     		movs	r2, #22
 390 0038 1A71     		strb	r2, [r3, #4]
  90:mbus.c        ****     
  91:mbus.c        ****     mbus_repeat_count = 0;
 391              		.loc 1 91 0
 392 003a 6E4B     		ldr	r3, .L36+8
 393 003c 0022     		movs	r2, #0
 394 003e 1A80     		strh	r2, [r3]	@ movhi
 395              	.L35:
 396              	.LBB7:
  92:mbus.c        ****     do {
  93:mbus.c        ****         mbus_repeat_count++;
 397              		.loc 1 93 0
 398 0040 6C4B     		ldr	r3, .L36+8
 399 0042 1B88     		ldrh	r3, [r3]
 400 0044 0133     		adds	r3, r3, #1
 401 0046 9AB2     		uxth	r2, r3
 402 0048 6A4B     		ldr	r3, .L36+8
 403 004a 1A80     		strh	r2, [r3]	@ movhi
  94:mbus.c        ****         UART_2_ClearTxBuffer();
 404              		.loc 1 94 0
 405 004c FFF7FEFF 		bl	UART_2_ClearTxBuffer
  95:mbus.c        ****         UART_2_ClearRxBuffer();
 406              		.loc 1 95 0
 407 0050 FFF7FEFF 		bl	UART_2_ClearRxBuffer
  96:mbus.c        ****         memcpy(uart2_rx_buffer,0,sizeof(uart2_rx_buffer));
 408              		.loc 1 96 0
 409 0054 684A     		ldr	r2, .L36+12
 410 0056 0023     		movs	r3, #0
 411 0058 1046     		mov	r0, r2
 412 005a 1946     		mov	r1, r3
 413 005c 4FF4FA73 		mov	r3, #500
 414 0060 1A46     		mov	r2, r3
ARM GAS  C:\Users\TOMAS~1.GEC\AppData\Local\Temp\ccy293cz.s 			page 10


 415 0062 FFF7FEFF 		bl	memcpy
  97:mbus.c        ****         UART_2_PutArray(uart2_tx_buffer, 5);
 416              		.loc 1 97 0
 417 0066 0521     		movs	r1, #5
 418 0068 6048     		ldr	r0, .L36
 419 006a FFF7FEFF 		bl	UART_2_PutArray
 420              	.LBB8:
  98:mbus.c        ****         
  99:mbus.c        ****         while (UART_2_GetTxBufferSize() > 0);
 421              		.loc 1 99 0
 422 006e 00BF     		nop
 423              	.L24:
 424              		.loc 1 99 0 is_stmt 0 discriminator 1
 425 0070 FFF7FEFF 		bl	UART_2_GetTxBufferSize
 426 0074 0346     		mov	r3, r0
 427 0076 002B     		cmp	r3, #0
 428 0078 FADC     		bgt	.L24
 429              	.LBE8:
 100:mbus.c        ****         
 101:mbus.c        ****         mbus_tmr_start = Timer_1_ReadCounter();
 430              		.loc 1 101 0 is_stmt 1
 431 007a FFF7FEFF 		bl	Timer_1_ReadCounter
 432 007e 0346     		mov	r3, r0
 433 0080 1A46     		mov	r2, r3
 434 0082 5E4B     		ldr	r3, .L36+16
 435 0084 1A60     		str	r2, [r3]
 436              	.L26:
 437              	.LBB9:
 102:mbus.c        ****         do {
 103:mbus.c        ****             mbus_tmr_stop = Timer_1_ReadCounter();
 438              		.loc 1 103 0 discriminator 2
 439 0086 FFF7FEFF 		bl	Timer_1_ReadCounter
 440 008a 0346     		mov	r3, r0
 441 008c 1A46     		mov	r2, r3
 442 008e 5C4B     		ldr	r3, .L36+20
 443 0090 1A60     		str	r2, [r3]
 104:mbus.c        ****         } while ((UART_2_GetRxBufferSize() == 0) && ((mbus_tmr_start - mbus_tmr_stop) < MAX_WAIT_TI
 444              		.loc 1 104 0 discriminator 2
 445 0092 FFF7FEFF 		bl	UART_2_GetRxBufferSize
 446 0096 0346     		mov	r3, r0
 447 0098 002B     		cmp	r3, #0
 448 009a 07D1     		bne	.L25
 449              		.loc 1 104 0 is_stmt 0 discriminator 1
 450 009c 574B     		ldr	r3, .L36+16
 451 009e 1A68     		ldr	r2, [r3]
 452 00a0 574B     		ldr	r3, .L36+20
 453 00a2 1B68     		ldr	r3, [r3]
 454 00a4 D31A     		subs	r3, r2, r3
 455 00a6 574A     		ldr	r2, .L36+24
 456 00a8 9342     		cmp	r3, r2
 457 00aa ECD9     		bls	.L26
 458              	.L25:
 459              	.LBE9:
 105:mbus.c        ****         // Pirmas baitas.
 106:mbus.c        ****         mbus_bit_min = MAX_WAIT_TIME;
 460              		.loc 1 106 0 is_stmt 1
 461 00ac 564B     		ldr	r3, .L36+28
ARM GAS  C:\Users\TOMAS~1.GEC\AppData\Local\Temp\ccy293cz.s 			page 11


 462 00ae 574A     		ldr	r2, .L36+32
 463 00b0 1A60     		str	r2, [r3]
 107:mbus.c        ****         mbus_bit_max = 0;
 464              		.loc 1 107 0
 465 00b2 574B     		ldr	r3, .L36+36
 466 00b4 0022     		movs	r2, #0
 467 00b6 1A60     		str	r2, [r3]
 108:mbus.c        ****         
 109:mbus.c        ****         mbus_rx_count = 0;
 468              		.loc 1 109 0
 469 00b8 564B     		ldr	r3, .L36+40
 470 00ba 0022     		movs	r2, #0
 471 00bc 1A80     		strh	r2, [r3]	@ movhi
 472              	.LBB10:
 110:mbus.c        ****         while ((UART_2_GetRxBufferSize() > 0) && (mbus_rx_count < sizeof(uart2_tx_buffer)))
 473              		.loc 1 110 0
 474 00be 4CE0     		b	.L27
 475              	.L32:
 476              	.LBB11:
 111:mbus.c        ****         {
 112:mbus.c        ****            uart2_rx_buffer[mbus_rx_count] = UART_2_ReadRxData();
 477              		.loc 1 112 0
 478 00c0 544B     		ldr	r3, .L36+40
 479 00c2 1B88     		ldrh	r3, [r3]
 480 00c4 1C46     		mov	r4, r3
 481 00c6 FFF7FEFF 		bl	UART_2_ReadRxData
 482 00ca 0346     		mov	r3, r0
 483 00cc DAB2     		uxtb	r2, r3
 484 00ce 4A4B     		ldr	r3, .L36+12
 485 00d0 1A55     		strb	r2, [r3, r4]
 113:mbus.c        ****            mbus_rx_count++;
 486              		.loc 1 113 0
 487 00d2 504B     		ldr	r3, .L36+40
 488 00d4 1B88     		ldrh	r3, [r3]
 489 00d6 0133     		adds	r3, r3, #1
 490 00d8 9AB2     		uxth	r2, r3
 491 00da 4E4B     		ldr	r3, .L36+40
 492 00dc 1A80     		strh	r2, [r3]	@ movhi
 114:mbus.c        ****            mbus_bit_start = Timer_1_ReadCounter();
 493              		.loc 1 114 0
 494 00de FFF7FEFF 		bl	Timer_1_ReadCounter
 495 00e2 0346     		mov	r3, r0
 496 00e4 1A46     		mov	r2, r3
 497 00e6 4C4B     		ldr	r3, .L36+44
 498 00e8 1A60     		str	r2, [r3]
 499              	.L29:
 115:mbus.c        ****            do {
 116:mbus.c        ****                mbus_bit_stop = Timer_1_ReadCounter();
 500              		.loc 1 116 0 discriminator 2
 501 00ea FFF7FEFF 		bl	Timer_1_ReadCounter
 502 00ee 0346     		mov	r3, r0
 503 00f0 1A46     		mov	r2, r3
 504 00f2 4A4B     		ldr	r3, .L36+48
 505 00f4 1A60     		str	r2, [r3]
 117:mbus.c        ****            } while ((UART_2_GetRxBufferSize() == 0) && ((mbus_bit_start - mbus_bit_stop) < MAX_WAIT
 506              		.loc 1 117 0 discriminator 2
 507 00f6 FFF7FEFF 		bl	UART_2_GetRxBufferSize
ARM GAS  C:\Users\TOMAS~1.GEC\AppData\Local\Temp\ccy293cz.s 			page 12


 508 00fa 0346     		mov	r3, r0
 509 00fc 002B     		cmp	r3, #0
 510 00fe 07D1     		bne	.L28
 511              		.loc 1 117 0 is_stmt 0 discriminator 1
 512 0100 454B     		ldr	r3, .L36+44
 513 0102 1A68     		ldr	r2, [r3]
 514 0104 454B     		ldr	r3, .L36+48
 515 0106 1B68     		ldr	r3, [r3]
 516 0108 D31A     		subs	r3, r2, r3
 517 010a 3E4A     		ldr	r2, .L36+24
 518 010c 9342     		cmp	r3, r2
 519 010e ECD9     		bls	.L29
 520              	.L28:
 118:mbus.c        ****            if (UART_2_GetRxBufferSize() > 0)
 521              		.loc 1 118 0 is_stmt 1
 522 0110 FFF7FEFF 		bl	UART_2_GetRxBufferSize
 523 0114 0346     		mov	r3, r0
 524 0116 002B     		cmp	r3, #0
 525 0118 1FDD     		ble	.L27
 119:mbus.c        ****            {
 120:mbus.c        ****               if (mbus_bit_max < (mbus_bit_start - mbus_bit_stop))  mbus_bit_max = (mbus_bit_start 
 526              		.loc 1 120 0
 527 011a 3F4B     		ldr	r3, .L36+44
 528 011c 1A68     		ldr	r2, [r3]
 529 011e 3F4B     		ldr	r3, .L36+48
 530 0120 1B68     		ldr	r3, [r3]
 531 0122 D21A     		subs	r2, r2, r3
 532 0124 3A4B     		ldr	r3, .L36+36
 533 0126 1B68     		ldr	r3, [r3]
 534 0128 9A42     		cmp	r2, r3
 535 012a 06D9     		bls	.L30
 536              		.loc 1 120 0 is_stmt 0 discriminator 1
 537 012c 3A4B     		ldr	r3, .L36+44
 538 012e 1A68     		ldr	r2, [r3]
 539 0130 3A4B     		ldr	r3, .L36+48
 540 0132 1B68     		ldr	r3, [r3]
 541 0134 D31A     		subs	r3, r2, r3
 542 0136 364A     		ldr	r2, .L36+36
 543 0138 1360     		str	r3, [r2]
 544              	.L30:
 121:mbus.c        ****               if (mbus_bit_min > (mbus_bit_start - mbus_bit_stop))  mbus_bit_min = (mbus_bit_start 
 545              		.loc 1 121 0 is_stmt 1
 546 013a 374B     		ldr	r3, .L36+44
 547 013c 1A68     		ldr	r2, [r3]
 548 013e 374B     		ldr	r3, .L36+48
 549 0140 1B68     		ldr	r3, [r3]
 550 0142 D21A     		subs	r2, r2, r3
 551 0144 304B     		ldr	r3, .L36+28
 552 0146 1B68     		ldr	r3, [r3]
 553 0148 9A42     		cmp	r2, r3
 554 014a 06D2     		bcs	.L27
 555              		.loc 1 121 0 is_stmt 0 discriminator 1
 556 014c 324B     		ldr	r3, .L36+44
 557 014e 1A68     		ldr	r2, [r3]
 558 0150 324B     		ldr	r3, .L36+48
 559 0152 1B68     		ldr	r3, [r3]
 560 0154 D31A     		subs	r3, r2, r3
ARM GAS  C:\Users\TOMAS~1.GEC\AppData\Local\Temp\ccy293cz.s 			page 13


 561 0156 2C4A     		ldr	r2, .L36+28
 562 0158 1360     		str	r3, [r2]
 563              	.L27:
 564              	.LBE11:
 110:mbus.c        ****         {
 565              		.loc 1 110 0 is_stmt 1
 566 015a FFF7FEFF 		bl	UART_2_GetRxBufferSize
 567 015e 0346     		mov	r3, r0
 568 0160 002B     		cmp	r3, #0
 569 0162 04DD     		ble	.L31
 110:mbus.c        ****         {
 570              		.loc 1 110 0 is_stmt 0 discriminator 1
 571 0164 2B4B     		ldr	r3, .L36+40
 572 0166 1B88     		ldrh	r3, [r3]
 573 0168 B3F5FA7F 		cmp	r3, #500
 574 016c A8D3     		bcc	.L32
 575              	.L31:
 576              	.LBE10:
 122:mbus.c        ****            }
 123:mbus.c        ****         }
 124:mbus.c        ****         if (
 125:mbus.c        ****                (mbus_rx_count > 9)
 577              		.loc 1 125 0 is_stmt 1
 578 016e 294B     		ldr	r3, .L36+40
 579 0170 1B88     		ldrh	r3, [r3]
 124:mbus.c        ****                (mbus_rx_count > 9)
 580              		.loc 1 124 0
 581 0172 092B     		cmp	r3, #9
 582 0174 2DD9     		bls	.L33
 126:mbus.c        ****             && (0x68 == uart2_rx_buffer[0])
 583              		.loc 1 126 0
 584 0176 204B     		ldr	r3, .L36+12
 585 0178 1B78     		ldrb	r3, [r3]	@ zero_extendqisi2
 586 017a 682B     		cmp	r3, #104
 587 017c 29D1     		bne	.L33
 127:mbus.c        ****             && (uart2_rx_buffer[1] == uart2_rx_buffer[2])
 588              		.loc 1 127 0
 589 017e 1E4B     		ldr	r3, .L36+12
 590 0180 5A78     		ldrb	r2, [r3, #1]	@ zero_extendqisi2
 591 0182 1D4B     		ldr	r3, .L36+12
 592 0184 9B78     		ldrb	r3, [r3, #2]	@ zero_extendqisi2
 593 0186 9A42     		cmp	r2, r3
 594 0188 23D1     		bne	.L33
 128:mbus.c        ****             && (0x68 == uart2_rx_buffer[3])
 595              		.loc 1 128 0
 596 018a 1B4B     		ldr	r3, .L36+12
 597 018c DB78     		ldrb	r3, [r3, #3]	@ zero_extendqisi2
 598 018e 682B     		cmp	r3, #104
 599 0190 1FD1     		bne	.L33
 129:mbus.c        ****             && (mbus_rx_count == uart2_rx_buffer[1]+6)
 600              		.loc 1 129 0
 601 0192 204B     		ldr	r3, .L36+40
 602 0194 1B88     		ldrh	r3, [r3]
 603 0196 1A46     		mov	r2, r3
 604 0198 174B     		ldr	r3, .L36+12
 605 019a 5B78     		ldrb	r3, [r3, #1]	@ zero_extendqisi2
 606 019c 0633     		adds	r3, r3, #6
ARM GAS  C:\Users\TOMAS~1.GEC\AppData\Local\Temp\ccy293cz.s 			page 14


 607 019e 9A42     		cmp	r2, r3
 608 01a0 17D1     		bne	.L33
 130:mbus.c        ****             && (mbus_cs((uint8 *)&uart2_rx_buffer[4], uart2_rx_buffer[1]) == uart2_rx_buffer[4+uart
 609              		.loc 1 130 0
 610 01a2 154B     		ldr	r3, .L36+12
 611 01a4 5B78     		ldrb	r3, [r3, #1]	@ zero_extendqisi2
 612 01a6 1946     		mov	r1, r3
 613 01a8 1D48     		ldr	r0, .L36+52
 614 01aa FFF7FEFF 		bl	mbus_cs
 615 01ae 0346     		mov	r3, r0
 616 01b0 1946     		mov	r1, r3
 617 01b2 114B     		ldr	r3, .L36+12
 618 01b4 5B78     		ldrb	r3, [r3, #1]	@ zero_extendqisi2
 619 01b6 0433     		adds	r3, r3, #4
 620 01b8 0F4A     		ldr	r2, .L36+12
 621 01ba D35C     		ldrb	r3, [r2, r3]	@ zero_extendqisi2
 622 01bc 9942     		cmp	r1, r3
 623 01be 08D1     		bne	.L33
 131:mbus.c        ****             && (0x16 == uart2_rx_buffer[5+uart2_rx_buffer[1]])
 624              		.loc 1 131 0
 625 01c0 0D4B     		ldr	r3, .L36+12
 626 01c2 5B78     		ldrb	r3, [r3, #1]	@ zero_extendqisi2
 627 01c4 0533     		adds	r3, r3, #5
 628 01c6 0C4A     		ldr	r2, .L36+12
 629 01c8 D35C     		ldrb	r3, [r2, r3]	@ zero_extendqisi2
 630 01ca 162B     		cmp	r3, #22
 631 01cc 01D1     		bne	.L33
 132:mbus.c        ****         )
 133:mbus.c        ****             return 1;
 632              		.loc 1 133 0
 633 01ce 0123     		movs	r3, #1
 634 01d0 08E0     		b	.L34
 635              	.L33:
 134:mbus.c        ****         else
 135:mbus.c        ****         {
 136:mbus.c        ****             CyDelay(200); // 330 bit times + 50ms, kai 2400bps
 636              		.loc 1 136 0
 637 01d2 C820     		movs	r0, #200
 638 01d4 FFF7FEFF 		bl	CyDelay
 639              	.LBE7:
 137:mbus.c        ****         }
 138:mbus.c        ****     } while (mbus_repeat_count < 3);
 640              		.loc 1 138 0
 641 01d8 064B     		ldr	r3, .L36+8
 642 01da 1B88     		ldrh	r3, [r3]
 643 01dc 022B     		cmp	r3, #2
 644 01de 7FF62FAF 		bls	.L35
 139:mbus.c        ****     return 0;
 645              		.loc 1 139 0
 646 01e2 0023     		movs	r3, #0
 647              	.L34:
 140:mbus.c        **** }
 648              		.loc 1 140 0
 649 01e4 1846     		mov	r0, r3
 650 01e6 0C37     		adds	r7, r7, #12
 651              		.cfi_def_cfa_offset 12
 652 01e8 BD46     		mov	sp, r7
ARM GAS  C:\Users\TOMAS~1.GEC\AppData\Local\Temp\ccy293cz.s 			page 15


 653              		.cfi_def_cfa_register 13
 654              		@ sp needed
 655 01ea 90BD     		pop	{r4, r7, pc}
 656              	.L37:
 657              		.align	2
 658              	.L36:
 659 01ec 00000000 		.word	uart2_tx_buffer
 660 01f0 00000000 		.word	FCB_Bit
 661 01f4 00000000 		.word	mbus_repeat_count
 662 01f8 00000000 		.word	uart2_rx_buffer
 663 01fc 00000000 		.word	mbus_tmr_start
 664 0200 00000000 		.word	mbus_tmr_stop
 665 0204 3F0D0300 		.word	199999
 666 0208 00000000 		.word	mbus_bit_min
 667 020c 400D0300 		.word	200000
 668 0210 00000000 		.word	mbus_bit_max
 669 0214 00000000 		.word	mbus_rx_count
 670 0218 00000000 		.word	mbus_bit_start
 671 021c 00000000 		.word	mbus_bit_stop
 672 0220 04000000 		.word	uart2_rx_buffer+4
 673              		.cfi_endproc
 674              	.LFE67:
 675              		.size	mbus_request_respond, .-mbus_request_respond
 676              		.section	.text.mbus_snd_nke,"ax",%progbits
 677              		.align	2
 678              		.global	mbus_snd_nke
 679              		.thumb
 680              		.thumb_func
 681              		.type	mbus_snd_nke, %function
 682              	mbus_snd_nke:
 683              	.LFB68:
 141:mbus.c        **** 
 142:mbus.c        **** uint8 mbus_snd_nke(uint8 short_addres)
 143:mbus.c        **** {
 684              		.loc 1 143 0
 685              		.cfi_startproc
 686              		@ args = 0, pretend = 0, frame = 8
 687              		@ frame_needed = 1, uses_anonymous_args = 0
 688 0000 80B5     		push	{r7, lr}
 689              		.cfi_def_cfa_offset 8
 690              		.cfi_offset 7, -8
 691              		.cfi_offset 14, -4
 692 0002 82B0     		sub	sp, sp, #8
 693              		.cfi_def_cfa_offset 16
 694 0004 00AF     		add	r7, sp, #0
 695              		.cfi_def_cfa_register 7
 696 0006 0346     		mov	r3, r0
 697 0008 FB71     		strb	r3, [r7, #7]
 144:mbus.c        ****     FCB_Bit = 0;
 698              		.loc 1 144 0
 699 000a 104B     		ldr	r3, .L40
 700 000c 0022     		movs	r2, #0
 701 000e 1A70     		strb	r2, [r3]
 145:mbus.c        ****     uart2_tx_buffer[0] = 0x10;
 702              		.loc 1 145 0
 703 0010 0F4B     		ldr	r3, .L40+4
 704 0012 1022     		movs	r2, #16
ARM GAS  C:\Users\TOMAS~1.GEC\AppData\Local\Temp\ccy293cz.s 			page 16


 705 0014 1A70     		strb	r2, [r3]
 146:mbus.c        ****     uart2_tx_buffer[1] = 0x40;
 706              		.loc 1 146 0
 707 0016 0E4B     		ldr	r3, .L40+4
 708 0018 4022     		movs	r2, #64
 709 001a 5A70     		strb	r2, [r3, #1]
 147:mbus.c        ****     uart2_tx_buffer[2] = short_addres;
 710              		.loc 1 147 0
 711 001c 0C4A     		ldr	r2, .L40+4
 712 001e FB79     		ldrb	r3, [r7, #7]
 713 0020 9370     		strb	r3, [r2, #2]
 148:mbus.c        ****     uart2_tx_buffer[3] = uart2_tx_buffer[1] + uart2_tx_buffer[2];
 714              		.loc 1 148 0
 715 0022 0B4B     		ldr	r3, .L40+4
 716 0024 5A78     		ldrb	r2, [r3, #1]	@ zero_extendqisi2
 717 0026 0A4B     		ldr	r3, .L40+4
 718 0028 9B78     		ldrb	r3, [r3, #2]	@ zero_extendqisi2
 719 002a 1344     		add	r3, r3, r2
 720 002c DAB2     		uxtb	r2, r3
 721 002e 084B     		ldr	r3, .L40+4
 722 0030 DA70     		strb	r2, [r3, #3]
 149:mbus.c        ****     uart2_tx_buffer[4] = 0x16;
 723              		.loc 1 149 0
 724 0032 074B     		ldr	r3, .L40+4
 725 0034 1622     		movs	r2, #22
 726 0036 1A71     		strb	r2, [r3, #4]
 150:mbus.c        ****     
 151:mbus.c        ****     return mbus_send_confirm((const uint8 *)&uart2_tx_buffer,5);
 727              		.loc 1 151 0
 728 0038 0521     		movs	r1, #5
 729 003a 0548     		ldr	r0, .L40+4
 730 003c FFF7FEFF 		bl	mbus_send_confirm
 731 0040 0346     		mov	r3, r0
 152:mbus.c        **** }
 732              		.loc 1 152 0
 733 0042 1846     		mov	r0, r3
 734 0044 0837     		adds	r7, r7, #8
 735              		.cfi_def_cfa_offset 8
 736 0046 BD46     		mov	sp, r7
 737              		.cfi_def_cfa_register 13
 738              		@ sp needed
 739 0048 80BD     		pop	{r7, pc}
 740              	.L41:
 741 004a 00BF     		.align	2
 742              	.L40:
 743 004c 00000000 		.word	FCB_Bit
 744 0050 00000000 		.word	uart2_tx_buffer
 745              		.cfi_endproc
 746              	.LFE68:
 747              		.size	mbus_snd_nke, .-mbus_snd_nke
 748              		.section	.text.mbus_snd_ud2,"ax",%progbits
 749              		.align	2
 750              		.global	mbus_snd_ud2
 751              		.thumb
 752              		.thumb_func
 753              		.type	mbus_snd_ud2, %function
 754              	mbus_snd_ud2:
ARM GAS  C:\Users\TOMAS~1.GEC\AppData\Local\Temp\ccy293cz.s 			page 17


 755              	.LFB69:
 153:mbus.c        **** uint8 mbus_snd_ud2(uint8 short_addres, const uint8 * user_data, unsigned int lenght)
 154:mbus.c        **** {
 756              		.loc 1 154 0
 757              		.cfi_startproc
 758              		@ args = 0, pretend = 0, frame = 16
 759              		@ frame_needed = 1, uses_anonymous_args = 0
 760              		@ link register save eliminated.
 761 0000 80B4     		push	{r7}
 762              		.cfi_def_cfa_offset 4
 763              		.cfi_offset 7, -4
 764 0002 85B0     		sub	sp, sp, #20
 765              		.cfi_def_cfa_offset 24
 766 0004 00AF     		add	r7, sp, #0
 767              		.cfi_def_cfa_register 7
 768 0006 0346     		mov	r3, r0
 769 0008 B960     		str	r1, [r7, #8]
 770 000a 7A60     		str	r2, [r7, #4]
 771 000c FB73     		strb	r3, [r7, #15]
 155:mbus.c        ****     
 156:mbus.c        **** }
 772              		.loc 1 156 0
 773 000e 00BF     		nop
 774 0010 1846     		mov	r0, r3
 775 0012 1437     		adds	r7, r7, #20
 776              		.cfi_def_cfa_offset 4
 777 0014 BD46     		mov	sp, r7
 778              		.cfi_def_cfa_register 13
 779              		@ sp needed
 780 0016 80BC     		pop	{r7}
 781              		.cfi_restore 7
 782              		.cfi_def_cfa_offset 0
 783 0018 7047     		bx	lr
 784              		.cfi_endproc
 785              	.LFE69:
 786              		.size	mbus_snd_ud2, .-mbus_snd_ud2
 787 001a 00BF     		.text
 788              	.Letext0:
 789              		.file 2 "c:\\program files (x86)\\cypress\\psoc creator\\4.1\\psoc creator\\import\\gnu\\arm\\5.4.
 790              		.file 3 "c:\\program files (x86)\\cypress\\psoc creator\\4.1\\psoc creator\\import\\gnu\\arm\\5.4.
 791              		.file 4 "Generated_Source\\PSoC5/cytypes.h"
 792              		.file 5 "Generated_Source\\PSoC5/core_cm3.h"