ARM GAS  C:\Users\Tomas\AppData\Local\Temp\cc1QFzoE.s 			page 1


   1              		.syntax unified
   2              		.cpu cortex-m3
   3              		.fpu softvfp
   4              		.eabi_attribute 20, 1
   5              		.eabi_attribute 21, 1
   6              		.eabi_attribute 23, 3
   7              		.eabi_attribute 24, 1
   8              		.eabi_attribute 25, 1
   9              		.eabi_attribute 26, 1
  10              		.eabi_attribute 30, 6
  11              		.eabi_attribute 34, 1
  12              		.eabi_attribute 18, 4
  13              		.thumb
  14              		.syntax unified
  15              		.file	"mis.c"
  16              		.text
  17              	.Ltext0:
  18              		.cfi_sections	.debug_frame
  19              		.comm	PulseCounter_1_Timestamp_hw,4,4
  20              		.global	pulseCounter1
  21              		.bss
  22              		.align	2
  23              		.type	pulseCounter1, %object
  24              		.size	pulseCounter1, 4
  25              	pulseCounter1:
  26 0000 00000000 		.space	4
  27              		.section	.text.isr_PulseCounter_1_handler,"ax",%progbits
  28              		.align	2
  29              		.global	isr_PulseCounter_1_handler
  30              		.thumb
  31              		.thumb_func
  32              		.type	isr_PulseCounter_1_handler, %function
  33              	isr_PulseCounter_1_handler:
  34              	.LFB63:
  35              		.file 1 "mis.c"
   1:mis.c         **** /* ========================================
   2:mis.c         ****  *
   3:mis.c         ****  * Copyright YOUR COMPANY, THE YEAR
   4:mis.c         ****  * All Rights Reserved
   5:mis.c         ****  * UNPUBLISHED, LICENSED SOFTWARE.
   6:mis.c         ****  *
   7:mis.c         ****  * CONFIDENTIAL AND PROPRIETARY INFORMATION
   8:mis.c         ****  * WHICH IS THE PROPERTY OF your company.
   9:mis.c         ****  *
  10:mis.c         ****  * ========================================
  11:mis.c         **** */
  12:mis.c         **** #include <device.h>
  13:mis.c         **** #include "mis.h"
  14:mis.c         **** /******************************************************************************
  15:mis.c         **** * Project Name		: MIS1
  16:mis.c         **** *******************************************************************************/
  17:mis.c         **** 
  18:mis.c         **** 
  19:mis.c         **** 
  20:mis.c         **** uint32 PulseCounter_1_Timestamp_hw;
  21:mis.c         **** uint32 pulseCounter1 = 0;
  22:mis.c         **** CY_ISR(isr_PulseCounter_1_handler)
ARM GAS  C:\Users\Tomas\AppData\Local\Temp\cc1QFzoE.s 			page 2


  23:mis.c         **** {
  36              		.loc 1 23 0
  37              		.cfi_startproc
  38              		@ args = 0, pretend = 0, frame = 0
  39              		@ frame_needed = 1, uses_anonymous_args = 0
  40              		@ link register save eliminated.
  41 0000 80B4     		push	{r7}
  42              		.cfi_def_cfa_offset 4
  43              		.cfi_offset 7, -4
  44 0002 00AF     		add	r7, sp, #0
  45              		.cfi_def_cfa_register 7
  24:mis.c         ****    pulseCounter1++;
  46              		.loc 1 24 0
  47 0004 044B     		ldr	r3, .L2
  48 0006 1B68     		ldr	r3, [r3]
  49 0008 0133     		adds	r3, r3, #1
  50 000a 034A     		ldr	r2, .L2
  51 000c 1360     		str	r3, [r2]
  25:mis.c         ****    //PulseCounter_1_Timestamp_hw = Timestamp_ReadCounter();
  26:mis.c         **** }
  52              		.loc 1 26 0
  53 000e 00BF     		nop
  54 0010 BD46     		mov	sp, r7
  55              		.cfi_def_cfa_register 13
  56              		@ sp needed
  57 0012 80BC     		pop	{r7}
  58              		.cfi_restore 7
  59              		.cfi_def_cfa_offset 0
  60 0014 7047     		bx	lr
  61              	.L3:
  62 0016 00BF     		.align	2
  63              	.L2:
  64 0018 00000000 		.word	pulseCounter1
  65              		.cfi_endproc
  66              	.LFE63:
  67              		.size	isr_PulseCounter_1_handler, .-isr_PulseCounter_1_handler
  68              		.global	timestampTimer
  69              		.bss
  70              		.align	2
  71              		.type	timestampTimer, %object
  72              		.size	timestampTimer, 4
  73              	timestampTimer:
  74 0004 00000000 		.space	4
  75              		.section	.text.isr_Timestamp_handler,"ax",%progbits
  76              		.align	2
  77              		.global	isr_Timestamp_handler
  78              		.thumb
  79              		.thumb_func
  80              		.type	isr_Timestamp_handler, %function
  81              	isr_Timestamp_handler:
  82              	.LFB64:
  27:mis.c         **** 
  28:mis.c         **** 
  29:mis.c         **** uint32 timestampTimer = 0;
  30:mis.c         **** 
  31:mis.c         **** CY_ISR(isr_Timestamp_handler)
  32:mis.c         **** {
ARM GAS  C:\Users\Tomas\AppData\Local\Temp\cc1QFzoE.s 			page 3


  83              		.loc 1 32 0
  84              		.cfi_startproc
  85              		@ args = 0, pretend = 0, frame = 0
  86              		@ frame_needed = 1, uses_anonymous_args = 0
  87              		@ link register save eliminated.
  88 0000 80B4     		push	{r7}
  89              		.cfi_def_cfa_offset 4
  90              		.cfi_offset 7, -4
  91 0002 00AF     		add	r7, sp, #0
  92              		.cfi_def_cfa_register 7
  33:mis.c         ****   timestampTimer--;
  93              		.loc 1 33 0
  94 0004 044B     		ldr	r3, .L5
  95 0006 1B68     		ldr	r3, [r3]
  96 0008 013B     		subs	r3, r3, #1
  97 000a 034A     		ldr	r2, .L5
  98 000c 1360     		str	r3, [r2]
  34:mis.c         **** }
  99              		.loc 1 34 0
 100 000e 00BF     		nop
 101 0010 BD46     		mov	sp, r7
 102              		.cfi_def_cfa_register 13
 103              		@ sp needed
 104 0012 80BC     		pop	{r7}
 105              		.cfi_restore 7
 106              		.cfi_def_cfa_offset 0
 107 0014 7047     		bx	lr
 108              	.L6:
 109 0016 00BF     		.align	2
 110              	.L5:
 111 0018 00000000 		.word	timestampTimer
 112              		.cfi_endproc
 113              	.LFE64:
 114              		.size	isr_Timestamp_handler, .-isr_Timestamp_handler
 115              		.comm	capture_1_count,4,4
 116              		.comm	capture_1_timestampTimer,8,4
 117              		.comm	capture_1_Timestamp_hw,2,4
 118              		.section	.text.isr_Capture_1,"ax",%progbits
 119              		.align	2
 120              		.global	isr_Capture_1
 121              		.thumb
 122              		.thumb_func
 123              		.type	isr_Capture_1, %function
 124              	isr_Capture_1:
 125              	.LFB65:
  35:mis.c         **** 
  36:mis.c         **** uint32 capture_1_count;
  37:mis.c         **** uint32 capture_1_timestampTimer[2];
  38:mis.c         **** uint8  capture_1_Timestamp_hw[2];
  39:mis.c         **** 
  40:mis.c         **** CY_ISR(isr_Capture_1)
  41:mis.c         **** {
 126              		.loc 1 41 0
 127              		.cfi_startproc
 128              		@ args = 0, pretend = 0, frame = 8
 129              		@ frame_needed = 1, uses_anonymous_args = 0
 130 0000 80B5     		push	{r7, lr}
ARM GAS  C:\Users\Tomas\AppData\Local\Temp\cc1QFzoE.s 			page 4


 131              		.cfi_def_cfa_offset 8
 132              		.cfi_offset 7, -8
 133              		.cfi_offset 14, -4
 134 0002 82B0     		sub	sp, sp, #8
 135              		.cfi_def_cfa_offset 16
 136 0004 00AF     		add	r7, sp, #0
 137              		.cfi_def_cfa_register 7
  42:mis.c         ****     uint32 hw_old;
  43:mis.c         ****     uint32 hw_new;
  44:mis.c         ****     if (capture_1_count < sizeof(capture_1_Timestamp_hw))
 138              		.loc 1 44 0
 139 0006 174B     		ldr	r3, .L11
 140 0008 1B68     		ldr	r3, [r3]
 141 000a 012B     		cmp	r3, #1
 142 000c 26D8     		bhi	.L10
  45:mis.c         ****     {   
  46:mis.c         ****         hw_old = Timestamp_ReadCounter();
 143              		.loc 1 46 0
 144 000e FFF7FEFF 		bl	Timestamp_ReadCounter
 145 0012 0346     		mov	r3, r0
 146 0014 7B60     		str	r3, [r7, #4]
  47:mis.c         ****         capture_1_timestampTimer[capture_1_count] = timestampTimer;
 147              		.loc 1 47 0
 148 0016 134B     		ldr	r3, .L11
 149 0018 1B68     		ldr	r3, [r3]
 150 001a 134A     		ldr	r2, .L11+4
 151 001c 1268     		ldr	r2, [r2]
 152 001e 1349     		ldr	r1, .L11+8
 153 0020 41F82320 		str	r2, [r1, r3, lsl #2]
  48:mis.c         ****         hw_new = Timestamp_ReadCounter();
 154              		.loc 1 48 0
 155 0024 FFF7FEFF 		bl	Timestamp_ReadCounter
 156 0028 0346     		mov	r3, r0
 157 002a 3B60     		str	r3, [r7]
  49:mis.c         ****         if (hw_new > hw_old)
 158              		.loc 1 49 0
 159 002c 3A68     		ldr	r2, [r7]
 160 002e 7B68     		ldr	r3, [r7, #4]
 161 0030 9A42     		cmp	r2, r3
 162 0032 08D9     		bls	.L9
  50:mis.c         ****         {
  51:mis.c         ****             //hardware overflow
  52:mis.c         ****             capture_1_timestampTimer[capture_1_count]--;
 163              		.loc 1 52 0
 164 0034 0B4B     		ldr	r3, .L11
 165 0036 1B68     		ldr	r3, [r3]
 166 0038 0C4A     		ldr	r2, .L11+8
 167 003a 52F82320 		ldr	r2, [r2, r3, lsl #2]
 168 003e 013A     		subs	r2, r2, #1
 169 0040 0A49     		ldr	r1, .L11+8
 170 0042 41F82320 		str	r2, [r1, r3, lsl #2]
 171              	.L9:
  53:mis.c         ****         }
  54:mis.c         ****         capture_1_Timestamp_hw[capture_1_count] = hw_new;
 172              		.loc 1 54 0
 173 0046 074B     		ldr	r3, .L11
 174 0048 1B68     		ldr	r3, [r3]
ARM GAS  C:\Users\Tomas\AppData\Local\Temp\cc1QFzoE.s 			page 5


 175 004a 3A68     		ldr	r2, [r7]
 176 004c D1B2     		uxtb	r1, r2
 177 004e 084A     		ldr	r2, .L11+12
 178 0050 D154     		strb	r1, [r2, r3]
  55:mis.c         ****         capture_1_count++;
 179              		.loc 1 55 0
 180 0052 044B     		ldr	r3, .L11
 181 0054 1B68     		ldr	r3, [r3]
 182 0056 0133     		adds	r3, r3, #1
 183 0058 024A     		ldr	r2, .L11
 184 005a 1360     		str	r3, [r2]
 185              	.L10:
  56:mis.c         ****     }
  57:mis.c         ****     
  58:mis.c         ****       
  59:mis.c         **** }
 186              		.loc 1 59 0
 187 005c 00BF     		nop
 188 005e 0837     		adds	r7, r7, #8
 189              		.cfi_def_cfa_offset 8
 190 0060 BD46     		mov	sp, r7
 191              		.cfi_def_cfa_register 13
 192              		@ sp needed
 193 0062 80BD     		pop	{r7, pc}
 194              	.L12:
 195              		.align	2
 196              	.L11:
 197 0064 00000000 		.word	capture_1_count
 198 0068 00000000 		.word	timestampTimer
 199 006c 00000000 		.word	capture_1_timestampTimer
 200 0070 00000000 		.word	capture_1_Timestamp_hw
 201              		.cfi_endproc
 202              	.LFE65:
 203              		.size	isr_Capture_1, .-isr_Capture_1
 204              		.section	.text.MIS1_LastPulseTime,"ax",%progbits
 205              		.align	2
 206              		.global	MIS1_LastPulseTime
 207              		.thumb
 208              		.thumb_func
 209              		.type	MIS1_LastPulseTime, %function
 210              	MIS1_LastPulseTime:
 211              	.LFB66:
  60:mis.c         **** uint32 MIS1_LastPulseTime(void)
  61:mis.c         **** {
 212              		.loc 1 61 0
 213              		.cfi_startproc
 214              		@ args = 0, pretend = 0, frame = 8
 215              		@ frame_needed = 1, uses_anonymous_args = 0
 216              		@ link register save eliminated.
 217 0000 80B4     		push	{r7}
 218              		.cfi_def_cfa_offset 4
 219              		.cfi_offset 7, -4
 220 0002 83B0     		sub	sp, sp, #12
 221              		.cfi_def_cfa_offset 16
 222 0004 00AF     		add	r7, sp, #0
 223              		.cfi_def_cfa_register 7
  62:mis.c         ****     uint32 result = 0;
ARM GAS  C:\Users\Tomas\AppData\Local\Temp\cc1QFzoE.s 			page 6


 224              		.loc 1 62 0
 225 0006 0023     		movs	r3, #0
 226 0008 7B60     		str	r3, [r7, #4]
  63:mis.c         ****     
  64:mis.c         ****         result  = (capture_1_timestampTimer[0]<<8) | (0xFF & capture_1_Timestamp_hw[0]); /* timesta
 227              		.loc 1 64 0
 228 000a 0B4B     		ldr	r3, .L15
 229 000c 1B68     		ldr	r3, [r3]
 230 000e 1B02     		lsls	r3, r3, #8
 231 0010 0A4A     		ldr	r2, .L15+4
 232 0012 1278     		ldrb	r2, [r2]	@ zero_extendqisi2
 233 0014 1343     		orrs	r3, r3, r2
 234 0016 7B60     		str	r3, [r7, #4]
  65:mis.c         ****         result -= (PulseCounter_1_Timestamp_hw<<8) | (0xFF & PulseCounter_1_Timestamp_hw); /* times
 235              		.loc 1 65 0
 236 0018 094B     		ldr	r3, .L15+8
 237 001a 1B68     		ldr	r3, [r3]
 238 001c 1A02     		lsls	r2, r3, #8
 239 001e 084B     		ldr	r3, .L15+8
 240 0020 1B68     		ldr	r3, [r3]
 241 0022 DBB2     		uxtb	r3, r3
 242 0024 1343     		orrs	r3, r3, r2
 243 0026 7A68     		ldr	r2, [r7, #4]
 244 0028 D31A     		subs	r3, r2, r3
 245 002a 7B60     		str	r3, [r7, #4]
  66:mis.c         ****     
  67:mis.c         ****     return result;
 246              		.loc 1 67 0
 247 002c 7B68     		ldr	r3, [r7, #4]
  68:mis.c         **** }
 248              		.loc 1 68 0
 249 002e 1846     		mov	r0, r3
 250 0030 0C37     		adds	r7, r7, #12
 251              		.cfi_def_cfa_offset 4
 252 0032 BD46     		mov	sp, r7
 253              		.cfi_def_cfa_register 13
 254              		@ sp needed
 255 0034 80BC     		pop	{r7}
 256              		.cfi_restore 7
 257              		.cfi_def_cfa_offset 0
 258 0036 7047     		bx	lr
 259              	.L16:
 260              		.align	2
 261              	.L15:
 262 0038 00000000 		.word	capture_1_timestampTimer
 263 003c 00000000 		.word	capture_1_Timestamp_hw
 264 0040 00000000 		.word	PulseCounter_1_Timestamp_hw
 265              		.cfi_endproc
 266              	.LFE66:
 267              		.size	MIS1_LastPulseTime, .-MIS1_LastPulseTime
 268              		.section	.text.MIS1_ReadCount,"ax",%progbits
 269              		.align	2
 270              		.global	MIS1_ReadCount
 271              		.thumb
 272              		.thumb_func
 273              		.type	MIS1_ReadCount, %function
 274              	MIS1_ReadCount:
ARM GAS  C:\Users\Tomas\AppData\Local\Temp\cc1QFzoE.s 			page 7


 275              	.LFB67:
  69:mis.c         **** 
  70:mis.c         **** 
  71:mis.c         **** uint32 MIS1_ReadCount(void)
  72:mis.c         **** {
 276              		.loc 1 72 0
 277              		.cfi_startproc
 278              		@ args = 0, pretend = 0, frame = 0
 279              		@ frame_needed = 1, uses_anonymous_args = 0
 280 0000 98B5     		push	{r3, r4, r7, lr}
 281              		.cfi_def_cfa_offset 16
 282              		.cfi_offset 3, -16
 283              		.cfi_offset 4, -12
 284              		.cfi_offset 7, -8
 285              		.cfi_offset 14, -4
 286 0002 00AF     		add	r7, sp, #0
 287              		.cfi_def_cfa_register 7
  73:mis.c         ****     return (pulseCounter1<<7) | (0x7F & PulseCounter_1_ReadCounter());
 288              		.loc 1 73 0
 289 0004 054B     		ldr	r3, .L19
 290 0006 1B68     		ldr	r3, [r3]
 291 0008 DC01     		lsls	r4, r3, #7
 292 000a FFF7FEFF 		bl	PulseCounter_1_ReadCounter
 293 000e 0346     		mov	r3, r0
 294 0010 03F07F03 		and	r3, r3, #127
 295 0014 2343     		orrs	r3, r3, r4
  74:mis.c         ****      
  75:mis.c         **** }
 296              		.loc 1 75 0
 297 0016 1846     		mov	r0, r3
 298 0018 98BD     		pop	{r3, r4, r7, pc}
 299              	.L20:
 300 001a 00BF     		.align	2
 301              	.L19:
 302 001c 00000000 		.word	pulseCounter1
 303              		.cfi_endproc
 304              	.LFE67:
 305              		.size	MIS1_ReadCount, .-MIS1_ReadCount
 306              		.section	.text.MIS1_ReadTotTime,"ax",%progbits
 307              		.align	2
 308              		.global	MIS1_ReadTotTime
 309              		.thumb
 310              		.thumb_func
 311              		.type	MIS1_ReadTotTime, %function
 312              	MIS1_ReadTotTime:
 313              	.LFB68:
  76:mis.c         **** 
  77:mis.c         **** uint32 MIS1_ReadTotTime(void)
  78:mis.c         **** {
 314              		.loc 1 78 0
 315              		.cfi_startproc
 316              		@ args = 0, pretend = 0, frame = 8
 317              		@ frame_needed = 1, uses_anonymous_args = 0
 318              		@ link register save eliminated.
 319 0000 80B4     		push	{r7}
 320              		.cfi_def_cfa_offset 4
 321              		.cfi_offset 7, -4
ARM GAS  C:\Users\Tomas\AppData\Local\Temp\cc1QFzoE.s 			page 8


 322 0002 83B0     		sub	sp, sp, #12
 323              		.cfi_def_cfa_offset 16
 324 0004 00AF     		add	r7, sp, #0
 325              		.cfi_def_cfa_register 7
  79:mis.c         ****     uint32 result = 0;
 326              		.loc 1 79 0
 327 0006 0023     		movs	r3, #0
 328 0008 7B60     		str	r3, [r7, #4]
  80:mis.c         ****     if (capture_1_count == 2)
 329              		.loc 1 80 0
 330 000a 0D4B     		ldr	r3, .L24
 331 000c 1B68     		ldr	r3, [r3]
 332 000e 022B     		cmp	r3, #2
 333 0010 0FD1     		bne	.L22
  81:mis.c         ****     {
  82:mis.c         ****         result  = (capture_1_timestampTimer[0]<<8) | (0xFF & capture_1_Timestamp_hw[0]); /* timesta
 334              		.loc 1 82 0
 335 0012 0C4B     		ldr	r3, .L24+4
 336 0014 1B68     		ldr	r3, [r3]
 337 0016 1B02     		lsls	r3, r3, #8
 338 0018 0B4A     		ldr	r2, .L24+8
 339 001a 1278     		ldrb	r2, [r2]	@ zero_extendqisi2
 340 001c 1343     		orrs	r3, r3, r2
 341 001e 7B60     		str	r3, [r7, #4]
  83:mis.c         ****         result -= (capture_1_timestampTimer[1]<<8) | (0xFF & capture_1_Timestamp_hw[1]); /* timesta
 342              		.loc 1 83 0
 343 0020 084B     		ldr	r3, .L24+4
 344 0022 5B68     		ldr	r3, [r3, #4]
 345 0024 1B02     		lsls	r3, r3, #8
 346 0026 084A     		ldr	r2, .L24+8
 347 0028 5278     		ldrb	r2, [r2, #1]	@ zero_extendqisi2
 348 002a 1343     		orrs	r3, r3, r2
 349 002c 7A68     		ldr	r2, [r7, #4]
 350 002e D31A     		subs	r3, r2, r3
 351 0030 7B60     		str	r3, [r7, #4]
 352              	.L22:
  84:mis.c         ****     }
  85:mis.c         ****     return result;
 353              		.loc 1 85 0
 354 0032 7B68     		ldr	r3, [r7, #4]
  86:mis.c         **** }
 355              		.loc 1 86 0
 356 0034 1846     		mov	r0, r3
 357 0036 0C37     		adds	r7, r7, #12
 358              		.cfi_def_cfa_offset 4
 359 0038 BD46     		mov	sp, r7
 360              		.cfi_def_cfa_register 13
 361              		@ sp needed
 362 003a 80BC     		pop	{r7}
 363              		.cfi_restore 7
 364              		.cfi_def_cfa_offset 0
 365 003c 7047     		bx	lr
 366              	.L25:
 367 003e 00BF     		.align	2
 368              	.L24:
 369 0040 00000000 		.word	capture_1_count
 370 0044 00000000 		.word	capture_1_timestampTimer
ARM GAS  C:\Users\Tomas\AppData\Local\Temp\cc1QFzoE.s 			page 9


 371 0048 00000000 		.word	capture_1_Timestamp_hw
 372              		.cfi_endproc
 373              	.LFE68:
 374              		.size	MIS1_ReadTotTime, .-MIS1_ReadTotTime
 375              		.section	.text.MIS1_ReadCurTime,"ax",%progbits
 376              		.align	2
 377              		.global	MIS1_ReadCurTime
 378              		.thumb
 379              		.thumb_func
 380              		.type	MIS1_ReadCurTime, %function
 381              	MIS1_ReadCurTime:
 382              	.LFB69:
  87:mis.c         **** 
  88:mis.c         **** uint32 MIS1_ReadCurTime(void)
  89:mis.c         **** {
 383              		.loc 1 89 0
 384              		.cfi_startproc
 385              		@ args = 0, pretend = 0, frame = 16
 386              		@ frame_needed = 1, uses_anonymous_args = 0
 387 0000 80B5     		push	{r7, lr}
 388              		.cfi_def_cfa_offset 8
 389              		.cfi_offset 7, -8
 390              		.cfi_offset 14, -4
 391 0002 84B0     		sub	sp, sp, #16
 392              		.cfi_def_cfa_offset 24
 393 0004 00AF     		add	r7, sp, #0
 394              		.cfi_def_cfa_register 7
  90:mis.c         ****     uint32 result = 0;
 395              		.loc 1 90 0
 396 0006 0023     		movs	r3, #0
 397 0008 FB60     		str	r3, [r7, #12]
  91:mis.c         ****      uint32 cur_timestampTimer = 0;
 398              		.loc 1 91 0
 399 000a 0023     		movs	r3, #0
 400 000c BB60     		str	r3, [r7, #8]
  92:mis.c         ****     if (capture_1_count == 2)
 401              		.loc 1 92 0
 402 000e 1F4B     		ldr	r3, .L31
 403 0010 1B68     		ldr	r3, [r3]
 404 0012 022B     		cmp	r3, #2
 405 0014 10D1     		bne	.L27
  93:mis.c         ****     {
  94:mis.c         ****         result  = (capture_1_timestampTimer[0]<<8) | (0xFF & capture_1_Timestamp_hw[0]); /* timesta
 406              		.loc 1 94 0
 407 0016 1E4B     		ldr	r3, .L31+4
 408 0018 1B68     		ldr	r3, [r3]
 409 001a 1B02     		lsls	r3, r3, #8
 410 001c 1D4A     		ldr	r2, .L31+8
 411 001e 1278     		ldrb	r2, [r2]	@ zero_extendqisi2
 412 0020 1343     		orrs	r3, r3, r2
 413 0022 FB60     		str	r3, [r7, #12]
  95:mis.c         ****         result -= (capture_1_timestampTimer[1]<<8) | (0xFF & capture_1_Timestamp_hw[1]); /* timesta
 414              		.loc 1 95 0
 415 0024 1A4B     		ldr	r3, .L31+4
 416 0026 5B68     		ldr	r3, [r3, #4]
 417 0028 1B02     		lsls	r3, r3, #8
 418 002a 1A4A     		ldr	r2, .L31+8
ARM GAS  C:\Users\Tomas\AppData\Local\Temp\cc1QFzoE.s 			page 10


 419 002c 5278     		ldrb	r2, [r2, #1]	@ zero_extendqisi2
 420 002e 1343     		orrs	r3, r3, r2
 421 0030 FA68     		ldr	r2, [r7, #12]
 422 0032 D31A     		subs	r3, r2, r3
 423 0034 FB60     		str	r3, [r7, #12]
 424 0036 23E0     		b	.L28
 425              	.L27:
  96:mis.c         ****     }
  97:mis.c         ****     else if (capture_1_count == 1)
 426              		.loc 1 97 0
 427 0038 144B     		ldr	r3, .L31
 428 003a 1B68     		ldr	r3, [r3]
 429 003c 012B     		cmp	r3, #1
 430 003e 1FD1     		bne	.L28
 431              	.LBB2:
  98:mis.c         ****     {
  99:mis.c         ****         result  = (capture_1_timestampTimer[0]<<8) | (0xFF & capture_1_Timestamp_hw[0]); /* timesta
 432              		.loc 1 99 0
 433 0040 134B     		ldr	r3, .L31+4
 434 0042 1B68     		ldr	r3, [r3]
 435 0044 1B02     		lsls	r3, r3, #8
 436 0046 134A     		ldr	r2, .L31+8
 437 0048 1278     		ldrb	r2, [r2]	@ zero_extendqisi2
 438 004a 1343     		orrs	r3, r3, r2
 439 004c FB60     		str	r3, [r7, #12]
 100:mis.c         ****         uint8 hw_old;
 101:mis.c         ****         uint8 hw_new;
 102:mis.c         ****         hw_old = Timestamp_ReadCounter();
 440              		.loc 1 102 0
 441 004e FFF7FEFF 		bl	Timestamp_ReadCounter
 442 0052 0346     		mov	r3, r0
 443 0054 FB71     		strb	r3, [r7, #7]
 103:mis.c         ****         cur_timestampTimer = timestampTimer;
 444              		.loc 1 103 0
 445 0056 104B     		ldr	r3, .L31+12
 446 0058 1B68     		ldr	r3, [r3]
 447 005a BB60     		str	r3, [r7, #8]
 104:mis.c         ****         hw_new = Timestamp_ReadCounter();
 448              		.loc 1 104 0
 449 005c FFF7FEFF 		bl	Timestamp_ReadCounter
 450 0060 0346     		mov	r3, r0
 451 0062 BB71     		strb	r3, [r7, #6]
 105:mis.c         ****         if (hw_new > hw_old)
 452              		.loc 1 105 0
 453 0064 BA79     		ldrb	r2, [r7, #6]	@ zero_extendqisi2
 454 0066 FB79     		ldrb	r3, [r7, #7]	@ zero_extendqisi2
 455 0068 9A42     		cmp	r2, r3
 456 006a 02D9     		bls	.L29
 106:mis.c         ****         {
 107:mis.c         ****             //hardware overflow
 108:mis.c         ****             cur_timestampTimer--;
 457              		.loc 1 108 0
 458 006c BB68     		ldr	r3, [r7, #8]
 459 006e 013B     		subs	r3, r3, #1
 460 0070 BB60     		str	r3, [r7, #8]
 461              	.L29:
 109:mis.c         ****         }
ARM GAS  C:\Users\Tomas\AppData\Local\Temp\cc1QFzoE.s 			page 11


 110:mis.c         ****         result -= (cur_timestampTimer<<8) | (0xFF & hw_new); /* timestampTimerStop  */
 462              		.loc 1 110 0
 463 0072 BB68     		ldr	r3, [r7, #8]
 464 0074 1A02     		lsls	r2, r3, #8
 465 0076 BB79     		ldrb	r3, [r7, #6]	@ zero_extendqisi2
 466 0078 1343     		orrs	r3, r3, r2
 467 007a FA68     		ldr	r2, [r7, #12]
 468 007c D31A     		subs	r3, r2, r3
 469 007e FB60     		str	r3, [r7, #12]
 470              	.L28:
 471              	.LBE2:
 111:mis.c         ****     }
 112:mis.c         ****     return result;
 472              		.loc 1 112 0
 473 0080 FB68     		ldr	r3, [r7, #12]
 113:mis.c         **** }
 474              		.loc 1 113 0
 475 0082 1846     		mov	r0, r3
 476 0084 1037     		adds	r7, r7, #16
 477              		.cfi_def_cfa_offset 8
 478 0086 BD46     		mov	sp, r7
 479              		.cfi_def_cfa_register 13
 480              		@ sp needed
 481 0088 80BD     		pop	{r7, pc}
 482              	.L32:
 483 008a 00BF     		.align	2
 484              	.L31:
 485 008c 00000000 		.word	capture_1_count
 486 0090 00000000 		.word	capture_1_timestampTimer
 487 0094 00000000 		.word	capture_1_Timestamp_hw
 488 0098 00000000 		.word	timestampTimer
 489              		.cfi_endproc
 490              	.LFE69:
 491              		.size	MIS1_ReadCurTime, .-MIS1_ReadCurTime
 492              		.section	.text.MIS1_SetBurstTimeout,"ax",%progbits
 493              		.align	2
 494              		.global	MIS1_SetBurstTimeout
 495              		.thumb
 496              		.thumb_func
 497              		.type	MIS1_SetBurstTimeout, %function
 498              	MIS1_SetBurstTimeout:
 499              	.LFB70:
 114:mis.c         **** 
 115:mis.c         **** void MIS1_SetBurstTimeout(uint32 t)
 116:mis.c         **** {
 500              		.loc 1 116 0
 501              		.cfi_startproc
 502              		@ args = 0, pretend = 0, frame = 8
 503              		@ frame_needed = 1, uses_anonymous_args = 0
 504 0000 80B5     		push	{r7, lr}
 505              		.cfi_def_cfa_offset 8
 506              		.cfi_offset 7, -8
 507              		.cfi_offset 14, -4
 508 0002 82B0     		sub	sp, sp, #8
 509              		.cfi_def_cfa_offset 16
 510 0004 00AF     		add	r7, sp, #0
 511              		.cfi_def_cfa_register 7
ARM GAS  C:\Users\Tomas\AppData\Local\Temp\cc1QFzoE.s 			page 12


 512 0006 7860     		str	r0, [r7, #4]
 117:mis.c         ****     BurstTimeout_1_WritePeriod(t);
 513              		.loc 1 117 0
 514 0008 7B68     		ldr	r3, [r7, #4]
 515 000a 9BB2     		uxth	r3, r3
 516 000c 1846     		mov	r0, r3
 517 000e FFF7FEFF 		bl	BurstTimeout_1_WritePeriod
 118:mis.c         **** }
 518              		.loc 1 118 0
 519 0012 00BF     		nop
 520 0014 0837     		adds	r7, r7, #8
 521              		.cfi_def_cfa_offset 8
 522 0016 BD46     		mov	sp, r7
 523              		.cfi_def_cfa_register 13
 524              		@ sp needed
 525 0018 80BD     		pop	{r7, pc}
 526              		.cfi_endproc
 527              	.LFE70:
 528              		.size	MIS1_SetBurstTimeout, .-MIS1_SetBurstTimeout
 529 001a 00BF     		.section	.text.MIS1_WaitPacket,"ax",%progbits
 530              		.align	2
 531              		.global	MIS1_WaitPacket
 532              		.thumb
 533              		.thumb_func
 534              		.type	MIS1_WaitPacket, %function
 535              	MIS1_WaitPacket:
 536              	.LFB71:
 119:mis.c         **** 
 120:mis.c         **** int MIS1_WaitPacket(void)
 121:mis.c         **** {
 537              		.loc 1 121 0
 538              		.cfi_startproc
 539              		@ args = 0, pretend = 0, frame = 0
 540              		@ frame_needed = 1, uses_anonymous_args = 0
 541 0000 80B5     		push	{r7, lr}
 542              		.cfi_def_cfa_offset 8
 543              		.cfi_offset 7, -8
 544              		.cfi_offset 14, -4
 545 0002 00AF     		add	r7, sp, #0
 546              		.cfi_def_cfa_register 7
 122:mis.c         ****     while (0 == (1 & MIS_Stat_Read()));
 547              		.loc 1 122 0
 548 0004 00BF     		nop
 549              	.L35:
 550              		.loc 1 122 0 is_stmt 0 discriminator 1
 551 0006 FFF7FEFF 		bl	MIS_Stat_Read
 552 000a 0346     		mov	r3, r0
 553 000c 03F00103 		and	r3, r3, #1
 554 0010 DBB2     		uxtb	r3, r3
 555 0012 002B     		cmp	r3, #0
 556 0014 F7D0     		beq	.L35
 123:mis.c         ****     return 0;
 557              		.loc 1 123 0 is_stmt 1
 558 0016 0023     		movs	r3, #0
 124:mis.c         **** }
 559              		.loc 1 124 0
 560 0018 1846     		mov	r0, r3
ARM GAS  C:\Users\Tomas\AppData\Local\Temp\cc1QFzoE.s 			page 13


 561 001a 80BD     		pop	{r7, pc}
 562              		.cfi_endproc
 563              	.LFE71:
 564              		.size	MIS1_WaitPacket, .-MIS1_WaitPacket
 565              		.section	.text.MIS1_Measure,"ax",%progbits
 566              		.align	2
 567              		.global	MIS1_Measure
 568              		.thumb
 569              		.thumb_func
 570              		.type	MIS1_Measure, %function
 571              	MIS1_Measure:
 572              	.LFB72:
 125:mis.c         **** 
 126:mis.c         **** int MIS1_Measure(uint32 time_ms)
 127:mis.c         **** {
 573              		.loc 1 127 0
 574              		.cfi_startproc
 575              		@ args = 0, pretend = 0, frame = 16
 576              		@ frame_needed = 1, uses_anonymous_args = 0
 577 0000 80B5     		push	{r7, lr}
 578              		.cfi_def_cfa_offset 8
 579              		.cfi_offset 7, -8
 580              		.cfi_offset 14, -4
 581 0002 84B0     		sub	sp, sp, #16
 582              		.cfi_def_cfa_offset 24
 583 0004 00AF     		add	r7, sp, #0
 584              		.cfi_def_cfa_register 7
 585 0006 7860     		str	r0, [r7, #4]
 128:mis.c         ****     int result;
 129:mis.c         ****     
 130:mis.c         ****     MIS_Start();
 586              		.loc 1 130 0
 587 0008 FFF7FEFF 		bl	MIS_Start
 131:mis.c         ****     
 132:mis.c         ****     result = MIS1_WaitPacket();
 588              		.loc 1 132 0
 589 000c FFF7FEFF 		bl	MIS1_WaitPacket
 590 0010 F860     		str	r0, [r7, #12]
 133:mis.c         ****     if (0 != result) return result;
 591              		.loc 1 133 0
 592 0012 FB68     		ldr	r3, [r7, #12]
 593 0014 002B     		cmp	r3, #0
 594 0016 01D0     		beq	.L38
 595              		.loc 1 133 0 is_stmt 0 discriminator 1
 596 0018 FB68     		ldr	r3, [r7, #12]
 597 001a 0DE0     		b	.L39
 598              	.L38:
 134:mis.c         ****     
 135:mis.c         ****     CyDelay(time_ms);
 599              		.loc 1 135 0 is_stmt 1
 600 001c 7868     		ldr	r0, [r7, #4]
 601 001e FFF7FEFF 		bl	CyDelay
 136:mis.c         ****     
 137:mis.c         ****     MIS_Stop();
 602              		.loc 1 137 0
 603 0022 FFF7FEFF 		bl	MIS_Stop
 138:mis.c         ****     result = MIS1_WaitPacket();
ARM GAS  C:\Users\Tomas\AppData\Local\Temp\cc1QFzoE.s 			page 14


 604              		.loc 1 138 0
 605 0026 FFF7FEFF 		bl	MIS1_WaitPacket
 606 002a F860     		str	r0, [r7, #12]
 139:mis.c         ****     if (0 != result) return result;
 607              		.loc 1 139 0
 608 002c FB68     		ldr	r3, [r7, #12]
 609 002e 002B     		cmp	r3, #0
 610 0030 01D0     		beq	.L40
 611              		.loc 1 139 0 is_stmt 0 discriminator 1
 612 0032 FB68     		ldr	r3, [r7, #12]
 613 0034 00E0     		b	.L39
 614              	.L40:
 140:mis.c         ****     
 141:mis.c         ****     return result;
 615              		.loc 1 141 0 is_stmt 1
 616 0036 FB68     		ldr	r3, [r7, #12]
 617              	.L39:
 142:mis.c         **** }
 618              		.loc 1 142 0
 619 0038 1846     		mov	r0, r3
 620 003a 1037     		adds	r7, r7, #16
 621              		.cfi_def_cfa_offset 8
 622 003c BD46     		mov	sp, r7
 623              		.cfi_def_cfa_register 13
 624              		@ sp needed
 625 003e 80BD     		pop	{r7, pc}
 626              		.cfi_endproc
 627              	.LFE72:
 628              		.size	MIS1_Measure, .-MIS1_Measure
 629              		.global	pulseCounter2
 630              		.bss
 631              		.align	2
 632              		.type	pulseCounter2, %object
 633              		.size	pulseCounter2, 4
 634              	pulseCounter2:
 635 0008 00000000 		.space	4
 636              		.section	.text.isr_PulseCounter_2_handler,"ax",%progbits
 637              		.align	2
 638              		.global	isr_PulseCounter_2_handler
 639              		.thumb
 640              		.thumb_func
 641              		.type	isr_PulseCounter_2_handler, %function
 642              	isr_PulseCounter_2_handler:
 643              	.LFB73:
 143:mis.c         **** /******************************************************************************
 144:mis.c         **** *******************************************************************************/
 145:mis.c         **** 
 146:mis.c         **** /******************************************************************************
 147:mis.c         **** * Project Name		: MIS2
 148:mis.c         **** *******************************************************************************/
 149:mis.c         **** 
 150:mis.c         **** uint32 pulseCounter2 = 0;
 151:mis.c         **** CY_ISR(isr_PulseCounter_2_handler)
 152:mis.c         **** {
 644              		.loc 1 152 0
 645              		.cfi_startproc
 646              		@ args = 0, pretend = 0, frame = 0
ARM GAS  C:\Users\Tomas\AppData\Local\Temp\cc1QFzoE.s 			page 15


 647              		@ frame_needed = 1, uses_anonymous_args = 0
 648              		@ link register save eliminated.
 649 0000 80B4     		push	{r7}
 650              		.cfi_def_cfa_offset 4
 651              		.cfi_offset 7, -4
 652 0002 00AF     		add	r7, sp, #0
 653              		.cfi_def_cfa_register 7
 153:mis.c         ****    pulseCounter2++;
 654              		.loc 1 153 0
 655 0004 044B     		ldr	r3, .L42
 656 0006 1B68     		ldr	r3, [r3]
 657 0008 0133     		adds	r3, r3, #1
 658 000a 034A     		ldr	r2, .L42
 659 000c 1360     		str	r3, [r2]
 154:mis.c         **** }
 660              		.loc 1 154 0
 661 000e 00BF     		nop
 662 0010 BD46     		mov	sp, r7
 663              		.cfi_def_cfa_register 13
 664              		@ sp needed
 665 0012 80BC     		pop	{r7}
 666              		.cfi_restore 7
 667              		.cfi_def_cfa_offset 0
 668 0014 7047     		bx	lr
 669              	.L43:
 670 0016 00BF     		.align	2
 671              	.L42:
 672 0018 00000000 		.word	pulseCounter2
 673              		.cfi_endproc
 674              	.LFE73:
 675              		.size	isr_PulseCounter_2_handler, .-isr_PulseCounter_2_handler
 676              		.comm	capture_2_count,4,4
 677              		.comm	capture_2_timestampTimer,8,4
 678              		.comm	capture_2_Timestamp_hw,2,4
 679              		.section	.text.isr_Capture_2,"ax",%progbits
 680              		.align	2
 681              		.global	isr_Capture_2
 682              		.thumb
 683              		.thumb_func
 684              		.type	isr_Capture_2, %function
 685              	isr_Capture_2:
 686              	.LFB74:
 155:mis.c         **** 
 156:mis.c         **** 
 157:mis.c         **** uint32 capture_2_count;
 158:mis.c         **** uint32 capture_2_timestampTimer[2];
 159:mis.c         **** uint8  capture_2_Timestamp_hw[2];
 160:mis.c         **** 
 161:mis.c         **** CY_ISR(isr_Capture_2)
 162:mis.c         **** {
 687              		.loc 1 162 0
 688              		.cfi_startproc
 689              		@ args = 0, pretend = 0, frame = 8
 690              		@ frame_needed = 1, uses_anonymous_args = 0
 691 0000 80B5     		push	{r7, lr}
 692              		.cfi_def_cfa_offset 8
 693              		.cfi_offset 7, -8
ARM GAS  C:\Users\Tomas\AppData\Local\Temp\cc1QFzoE.s 			page 16


 694              		.cfi_offset 14, -4
 695 0002 82B0     		sub	sp, sp, #8
 696              		.cfi_def_cfa_offset 16
 697 0004 00AF     		add	r7, sp, #0
 698              		.cfi_def_cfa_register 7
 163:mis.c         ****     uint8 hw_old;
 164:mis.c         ****     uint8 hw_new;
 165:mis.c         ****     if (capture_2_count < sizeof(capture_2_Timestamp_hw))
 699              		.loc 1 165 0
 700 0006 174B     		ldr	r3, .L48
 701 0008 1B68     		ldr	r3, [r3]
 702 000a 012B     		cmp	r3, #1
 703 000c 25D8     		bhi	.L47
 166:mis.c         ****     {   
 167:mis.c         ****         hw_old = Timestamp_ReadCounter();
 704              		.loc 1 167 0
 705 000e FFF7FEFF 		bl	Timestamp_ReadCounter
 706 0012 0346     		mov	r3, r0
 707 0014 FB71     		strb	r3, [r7, #7]
 168:mis.c         ****         capture_2_timestampTimer[capture_2_count] = timestampTimer;
 708              		.loc 1 168 0
 709 0016 134B     		ldr	r3, .L48
 710 0018 1B68     		ldr	r3, [r3]
 711 001a 134A     		ldr	r2, .L48+4
 712 001c 1268     		ldr	r2, [r2]
 713 001e 1349     		ldr	r1, .L48+8
 714 0020 41F82320 		str	r2, [r1, r3, lsl #2]
 169:mis.c         ****         hw_new = Timestamp_ReadCounter();
 715              		.loc 1 169 0
 716 0024 FFF7FEFF 		bl	Timestamp_ReadCounter
 717 0028 0346     		mov	r3, r0
 718 002a BB71     		strb	r3, [r7, #6]
 170:mis.c         ****         if (hw_new > hw_old)
 719              		.loc 1 170 0
 720 002c BA79     		ldrb	r2, [r7, #6]	@ zero_extendqisi2
 721 002e FB79     		ldrb	r3, [r7, #7]	@ zero_extendqisi2
 722 0030 9A42     		cmp	r2, r3
 723 0032 08D9     		bls	.L46
 171:mis.c         ****         {
 172:mis.c         ****             //hardware overflow
 173:mis.c         ****             capture_2_timestampTimer[capture_2_count]--;
 724              		.loc 1 173 0
 725 0034 0B4B     		ldr	r3, .L48
 726 0036 1B68     		ldr	r3, [r3]
 727 0038 0C4A     		ldr	r2, .L48+8
 728 003a 52F82320 		ldr	r2, [r2, r3, lsl #2]
 729 003e 013A     		subs	r2, r2, #1
 730 0040 0A49     		ldr	r1, .L48+8
 731 0042 41F82320 		str	r2, [r1, r3, lsl #2]
 732              	.L46:
 174:mis.c         ****         }
 175:mis.c         ****         capture_2_Timestamp_hw[capture_2_count] = hw_new;
 733              		.loc 1 175 0
 734 0046 074B     		ldr	r3, .L48
 735 0048 1B68     		ldr	r3, [r3]
 736 004a 0949     		ldr	r1, .L48+12
 737 004c BA79     		ldrb	r2, [r7, #6]
ARM GAS  C:\Users\Tomas\AppData\Local\Temp\cc1QFzoE.s 			page 17


 738 004e CA54     		strb	r2, [r1, r3]
 176:mis.c         ****         capture_2_count++;
 739              		.loc 1 176 0
 740 0050 044B     		ldr	r3, .L48
 741 0052 1B68     		ldr	r3, [r3]
 742 0054 0133     		adds	r3, r3, #1
 743 0056 034A     		ldr	r2, .L48
 744 0058 1360     		str	r3, [r2]
 745              	.L47:
 177:mis.c         ****     }
 178:mis.c         **** }
 746              		.loc 1 178 0
 747 005a 00BF     		nop
 748 005c 0837     		adds	r7, r7, #8
 749              		.cfi_def_cfa_offset 8
 750 005e BD46     		mov	sp, r7
 751              		.cfi_def_cfa_register 13
 752              		@ sp needed
 753 0060 80BD     		pop	{r7, pc}
 754              	.L49:
 755 0062 00BF     		.align	2
 756              	.L48:
 757 0064 00000000 		.word	capture_2_count
 758 0068 00000000 		.word	timestampTimer
 759 006c 00000000 		.word	capture_2_timestampTimer
 760 0070 00000000 		.word	capture_2_Timestamp_hw
 761              		.cfi_endproc
 762              	.LFE74:
 763              		.size	isr_Capture_2, .-isr_Capture_2
 764              		.section	.text.MIS2_ReadCount,"ax",%progbits
 765              		.align	2
 766              		.global	MIS2_ReadCount
 767              		.thumb
 768              		.thumb_func
 769              		.type	MIS2_ReadCount, %function
 770              	MIS2_ReadCount:
 771              	.LFB75:
 179:mis.c         **** 
 180:mis.c         **** uint32 MIS2_ReadCount(void)
 181:mis.c         **** {
 772              		.loc 1 181 0
 773              		.cfi_startproc
 774              		@ args = 0, pretend = 0, frame = 0
 775              		@ frame_needed = 1, uses_anonymous_args = 0
 776 0000 98B5     		push	{r3, r4, r7, lr}
 777              		.cfi_def_cfa_offset 16
 778              		.cfi_offset 3, -16
 779              		.cfi_offset 4, -12
 780              		.cfi_offset 7, -8
 781              		.cfi_offset 14, -4
 782 0002 00AF     		add	r7, sp, #0
 783              		.cfi_def_cfa_register 7
 182:mis.c         ****     return (pulseCounter2<<7) | (0x7F & PulseCounter_2_ReadCounter());
 784              		.loc 1 182 0
 785 0004 054B     		ldr	r3, .L52
 786 0006 1B68     		ldr	r3, [r3]
 787 0008 DC01     		lsls	r4, r3, #7
ARM GAS  C:\Users\Tomas\AppData\Local\Temp\cc1QFzoE.s 			page 18


 788 000a FFF7FEFF 		bl	PulseCounter_2_ReadCounter
 789 000e 0346     		mov	r3, r0
 790 0010 03F07F03 		and	r3, r3, #127
 791 0014 2343     		orrs	r3, r3, r4
 183:mis.c         **** }
 792              		.loc 1 183 0
 793 0016 1846     		mov	r0, r3
 794 0018 98BD     		pop	{r3, r4, r7, pc}
 795              	.L53:
 796 001a 00BF     		.align	2
 797              	.L52:
 798 001c 00000000 		.word	pulseCounter2
 799              		.cfi_endproc
 800              	.LFE75:
 801              		.size	MIS2_ReadCount, .-MIS2_ReadCount
 802              		.section	.text.MIS2_ReadTotTime,"ax",%progbits
 803              		.align	2
 804              		.global	MIS2_ReadTotTime
 805              		.thumb
 806              		.thumb_func
 807              		.type	MIS2_ReadTotTime, %function
 808              	MIS2_ReadTotTime:
 809              	.LFB76:
 184:mis.c         **** 
 185:mis.c         **** uint32 MIS2_ReadTotTime(void)
 186:mis.c         **** {
 810              		.loc 1 186 0
 811              		.cfi_startproc
 812              		@ args = 0, pretend = 0, frame = 8
 813              		@ frame_needed = 1, uses_anonymous_args = 0
 814              		@ link register save eliminated.
 815 0000 80B4     		push	{r7}
 816              		.cfi_def_cfa_offset 4
 817              		.cfi_offset 7, -4
 818 0002 83B0     		sub	sp, sp, #12
 819              		.cfi_def_cfa_offset 16
 820 0004 00AF     		add	r7, sp, #0
 821              		.cfi_def_cfa_register 7
 187:mis.c         ****     uint32 result = 0;
 822              		.loc 1 187 0
 823 0006 0023     		movs	r3, #0
 824 0008 7B60     		str	r3, [r7, #4]
 188:mis.c         ****     if (capture_2_count == 2)
 825              		.loc 1 188 0
 826 000a 0D4B     		ldr	r3, .L57
 827 000c 1B68     		ldr	r3, [r3]
 828 000e 022B     		cmp	r3, #2
 829 0010 0FD1     		bne	.L55
 189:mis.c         ****     {
 190:mis.c         ****         result  = (capture_2_timestampTimer[0]<<8) | (0xFF & capture_2_Timestamp_hw[0]); /* timesta
 830              		.loc 1 190 0
 831 0012 0C4B     		ldr	r3, .L57+4
 832 0014 1B68     		ldr	r3, [r3]
 833 0016 1B02     		lsls	r3, r3, #8
 834 0018 0B4A     		ldr	r2, .L57+8
 835 001a 1278     		ldrb	r2, [r2]	@ zero_extendqisi2
 836 001c 1343     		orrs	r3, r3, r2
ARM GAS  C:\Users\Tomas\AppData\Local\Temp\cc1QFzoE.s 			page 19


 837 001e 7B60     		str	r3, [r7, #4]
 191:mis.c         ****         result -= (capture_2_timestampTimer[1]<<8) | (0xFF & capture_2_Timestamp_hw[1]); /* timesta
 838              		.loc 1 191 0
 839 0020 084B     		ldr	r3, .L57+4
 840 0022 5B68     		ldr	r3, [r3, #4]
 841 0024 1B02     		lsls	r3, r3, #8
 842 0026 084A     		ldr	r2, .L57+8
 843 0028 5278     		ldrb	r2, [r2, #1]	@ zero_extendqisi2
 844 002a 1343     		orrs	r3, r3, r2
 845 002c 7A68     		ldr	r2, [r7, #4]
 846 002e D31A     		subs	r3, r2, r3
 847 0030 7B60     		str	r3, [r7, #4]
 848              	.L55:
 192:mis.c         ****     }
 193:mis.c         ****     return result;
 849              		.loc 1 193 0
 850 0032 7B68     		ldr	r3, [r7, #4]
 194:mis.c         **** }
 851              		.loc 1 194 0
 852 0034 1846     		mov	r0, r3
 853 0036 0C37     		adds	r7, r7, #12
 854              		.cfi_def_cfa_offset 4
 855 0038 BD46     		mov	sp, r7
 856              		.cfi_def_cfa_register 13
 857              		@ sp needed
 858 003a 80BC     		pop	{r7}
 859              		.cfi_restore 7
 860              		.cfi_def_cfa_offset 0
 861 003c 7047     		bx	lr
 862              	.L58:
 863 003e 00BF     		.align	2
 864              	.L57:
 865 0040 00000000 		.word	capture_2_count
 866 0044 00000000 		.word	capture_2_timestampTimer
 867 0048 00000000 		.word	capture_2_Timestamp_hw
 868              		.cfi_endproc
 869              	.LFE76:
 870              		.size	MIS2_ReadTotTime, .-MIS2_ReadTotTime
 871              		.section	.text.MIS2_ReadCurTime,"ax",%progbits
 872              		.align	2
 873              		.global	MIS2_ReadCurTime
 874              		.thumb
 875              		.thumb_func
 876              		.type	MIS2_ReadCurTime, %function
 877              	MIS2_ReadCurTime:
 878              	.LFB77:
 195:mis.c         **** 
 196:mis.c         **** uint32 MIS2_ReadCurTime(void)
 197:mis.c         **** {
 879              		.loc 1 197 0
 880              		.cfi_startproc
 881              		@ args = 0, pretend = 0, frame = 16
 882              		@ frame_needed = 1, uses_anonymous_args = 0
 883 0000 80B5     		push	{r7, lr}
 884              		.cfi_def_cfa_offset 8
 885              		.cfi_offset 7, -8
 886              		.cfi_offset 14, -4
ARM GAS  C:\Users\Tomas\AppData\Local\Temp\cc1QFzoE.s 			page 20


 887 0002 84B0     		sub	sp, sp, #16
 888              		.cfi_def_cfa_offset 24
 889 0004 00AF     		add	r7, sp, #0
 890              		.cfi_def_cfa_register 7
 198:mis.c         ****     uint32 result = 0;
 891              		.loc 1 198 0
 892 0006 0023     		movs	r3, #0
 893 0008 FB60     		str	r3, [r7, #12]
 199:mis.c         ****      uint32 cur_timestampTimer = 0;
 894              		.loc 1 199 0
 895 000a 0023     		movs	r3, #0
 896 000c BB60     		str	r3, [r7, #8]
 200:mis.c         ****     if (capture_2_count == 2)
 897              		.loc 1 200 0
 898 000e 1F4B     		ldr	r3, .L64
 899 0010 1B68     		ldr	r3, [r3]
 900 0012 022B     		cmp	r3, #2
 901 0014 10D1     		bne	.L60
 201:mis.c         ****     {
 202:mis.c         ****         result  = (capture_2_timestampTimer[0]<<8) | (0xFF & capture_2_Timestamp_hw[0]); /* timesta
 902              		.loc 1 202 0
 903 0016 1E4B     		ldr	r3, .L64+4
 904 0018 1B68     		ldr	r3, [r3]
 905 001a 1B02     		lsls	r3, r3, #8
 906 001c 1D4A     		ldr	r2, .L64+8
 907 001e 1278     		ldrb	r2, [r2]	@ zero_extendqisi2
 908 0020 1343     		orrs	r3, r3, r2
 909 0022 FB60     		str	r3, [r7, #12]
 203:mis.c         ****         result -= (capture_2_timestampTimer[1]<<8) | (0xFF & capture_2_Timestamp_hw[1]); /* timesta
 910              		.loc 1 203 0
 911 0024 1A4B     		ldr	r3, .L64+4
 912 0026 5B68     		ldr	r3, [r3, #4]
 913 0028 1B02     		lsls	r3, r3, #8
 914 002a 1A4A     		ldr	r2, .L64+8
 915 002c 5278     		ldrb	r2, [r2, #1]	@ zero_extendqisi2
 916 002e 1343     		orrs	r3, r3, r2
 917 0030 FA68     		ldr	r2, [r7, #12]
 918 0032 D31A     		subs	r3, r2, r3
 919 0034 FB60     		str	r3, [r7, #12]
 920 0036 23E0     		b	.L61
 921              	.L60:
 204:mis.c         ****     }
 205:mis.c         ****     else if (capture_2_count == 1)
 922              		.loc 1 205 0
 923 0038 144B     		ldr	r3, .L64
 924 003a 1B68     		ldr	r3, [r3]
 925 003c 012B     		cmp	r3, #1
 926 003e 1FD1     		bne	.L61
 927              	.LBB3:
 206:mis.c         ****     {
 207:mis.c         ****         result  = (capture_2_timestampTimer[0]<<8) | (0xFF & capture_2_Timestamp_hw[0]); /* timesta
 928              		.loc 1 207 0
 929 0040 134B     		ldr	r3, .L64+4
 930 0042 1B68     		ldr	r3, [r3]
 931 0044 1B02     		lsls	r3, r3, #8
 932 0046 134A     		ldr	r2, .L64+8
 933 0048 1278     		ldrb	r2, [r2]	@ zero_extendqisi2
ARM GAS  C:\Users\Tomas\AppData\Local\Temp\cc1QFzoE.s 			page 21


 934 004a 1343     		orrs	r3, r3, r2
 935 004c FB60     		str	r3, [r7, #12]
 208:mis.c         ****         uint8 hw_old;
 209:mis.c         ****         uint8 hw_new;
 210:mis.c         ****         hw_old = Timestamp_ReadCounter();
 936              		.loc 1 210 0
 937 004e FFF7FEFF 		bl	Timestamp_ReadCounter
 938 0052 0346     		mov	r3, r0
 939 0054 FB71     		strb	r3, [r7, #7]
 211:mis.c         ****         cur_timestampTimer = timestampTimer;
 940              		.loc 1 211 0
 941 0056 104B     		ldr	r3, .L64+12
 942 0058 1B68     		ldr	r3, [r3]
 943 005a BB60     		str	r3, [r7, #8]
 212:mis.c         ****         hw_new = Timestamp_ReadCounter();
 944              		.loc 1 212 0
 945 005c FFF7FEFF 		bl	Timestamp_ReadCounter
 946 0060 0346     		mov	r3, r0
 947 0062 BB71     		strb	r3, [r7, #6]
 213:mis.c         ****         if (hw_new > hw_old)
 948              		.loc 1 213 0
 949 0064 BA79     		ldrb	r2, [r7, #6]	@ zero_extendqisi2
 950 0066 FB79     		ldrb	r3, [r7, #7]	@ zero_extendqisi2
 951 0068 9A42     		cmp	r2, r3
 952 006a 02D9     		bls	.L62
 214:mis.c         ****         {
 215:mis.c         ****             //hardware overflow
 216:mis.c         ****             cur_timestampTimer--;
 953              		.loc 1 216 0
 954 006c BB68     		ldr	r3, [r7, #8]
 955 006e 013B     		subs	r3, r3, #1
 956 0070 BB60     		str	r3, [r7, #8]
 957              	.L62:
 217:mis.c         ****         }
 218:mis.c         ****         result -= (cur_timestampTimer<<8) | (0xFF & hw_new); /* timestampTimerStop  */
 958              		.loc 1 218 0
 959 0072 BB68     		ldr	r3, [r7, #8]
 960 0074 1A02     		lsls	r2, r3, #8
 961 0076 BB79     		ldrb	r3, [r7, #6]	@ zero_extendqisi2
 962 0078 1343     		orrs	r3, r3, r2
 963 007a FA68     		ldr	r2, [r7, #12]
 964 007c D31A     		subs	r3, r2, r3
 965 007e FB60     		str	r3, [r7, #12]
 966              	.L61:
 967              	.LBE3:
 219:mis.c         ****     }
 220:mis.c         ****     return result;
 968              		.loc 1 220 0
 969 0080 FB68     		ldr	r3, [r7, #12]
 221:mis.c         **** }
 970              		.loc 1 221 0
 971 0082 1846     		mov	r0, r3
 972 0084 1037     		adds	r7, r7, #16
 973              		.cfi_def_cfa_offset 8
 974 0086 BD46     		mov	sp, r7
 975              		.cfi_def_cfa_register 13
 976              		@ sp needed
ARM GAS  C:\Users\Tomas\AppData\Local\Temp\cc1QFzoE.s 			page 22


 977 0088 80BD     		pop	{r7, pc}
 978              	.L65:
 979 008a 00BF     		.align	2
 980              	.L64:
 981 008c 00000000 		.word	capture_2_count
 982 0090 00000000 		.word	capture_2_timestampTimer
 983 0094 00000000 		.word	capture_2_Timestamp_hw
 984 0098 00000000 		.word	timestampTimer
 985              		.cfi_endproc
 986              	.LFE77:
 987              		.size	MIS2_ReadCurTime, .-MIS2_ReadCurTime
 988              		.section	.text.MIS2_SetBurstTimeout,"ax",%progbits
 989              		.align	2
 990              		.global	MIS2_SetBurstTimeout
 991              		.thumb
 992              		.thumb_func
 993              		.type	MIS2_SetBurstTimeout, %function
 994              	MIS2_SetBurstTimeout:
 995              	.LFB78:
 222:mis.c         **** 
 223:mis.c         **** void MIS2_SetBurstTimeout(uint32 t)
 224:mis.c         **** {
 996              		.loc 1 224 0
 997              		.cfi_startproc
 998              		@ args = 0, pretend = 0, frame = 8
 999              		@ frame_needed = 1, uses_anonymous_args = 0
 1000 0000 80B5     		push	{r7, lr}
 1001              		.cfi_def_cfa_offset 8
 1002              		.cfi_offset 7, -8
 1003              		.cfi_offset 14, -4
 1004 0002 82B0     		sub	sp, sp, #8
 1005              		.cfi_def_cfa_offset 16
 1006 0004 00AF     		add	r7, sp, #0
 1007              		.cfi_def_cfa_register 7
 1008 0006 7860     		str	r0, [r7, #4]
 225:mis.c         ****     BurstTimeout_2_WritePeriod(t);
 1009              		.loc 1 225 0
 1010 0008 7B68     		ldr	r3, [r7, #4]
 1011 000a 9BB2     		uxth	r3, r3
 1012 000c 1846     		mov	r0, r3
 1013 000e FFF7FEFF 		bl	BurstTimeout_2_WritePeriod
 226:mis.c         **** }
 1014              		.loc 1 226 0
 1015 0012 00BF     		nop
 1016 0014 0837     		adds	r7, r7, #8
 1017              		.cfi_def_cfa_offset 8
 1018 0016 BD46     		mov	sp, r7
 1019              		.cfi_def_cfa_register 13
 1020              		@ sp needed
 1021 0018 80BD     		pop	{r7, pc}
 1022              		.cfi_endproc
 1023              	.LFE78:
 1024              		.size	MIS2_SetBurstTimeout, .-MIS2_SetBurstTimeout
 1025 001a 00BF     		.section	.text.MIS2_WaitPacket,"ax",%progbits
 1026              		.align	2
 1027              		.global	MIS2_WaitPacket
 1028              		.thumb
ARM GAS  C:\Users\Tomas\AppData\Local\Temp\cc1QFzoE.s 			page 23


 1029              		.thumb_func
 1030              		.type	MIS2_WaitPacket, %function
 1031              	MIS2_WaitPacket:
 1032              	.LFB79:
 227:mis.c         **** 
 228:mis.c         **** int MIS2_WaitPacket(void)
 229:mis.c         **** {
 1033              		.loc 1 229 0
 1034              		.cfi_startproc
 1035              		@ args = 0, pretend = 0, frame = 0
 1036              		@ frame_needed = 1, uses_anonymous_args = 0
 1037 0000 80B5     		push	{r7, lr}
 1038              		.cfi_def_cfa_offset 8
 1039              		.cfi_offset 7, -8
 1040              		.cfi_offset 14, -4
 1041 0002 00AF     		add	r7, sp, #0
 1042              		.cfi_def_cfa_register 7
 230:mis.c         ****     while (0 == (2 & MIS_Stat_Read()));
 1043              		.loc 1 230 0
 1044 0004 00BF     		nop
 1045              	.L68:
 1046              		.loc 1 230 0 is_stmt 0 discriminator 1
 1047 0006 FFF7FEFF 		bl	MIS_Stat_Read
 1048 000a 0346     		mov	r3, r0
 1049 000c 03F00203 		and	r3, r3, #2
 1050 0010 DBB2     		uxtb	r3, r3
 1051 0012 002B     		cmp	r3, #0
 1052 0014 F7D0     		beq	.L68
 231:mis.c         ****     return 0;
 1053              		.loc 1 231 0 is_stmt 1
 1054 0016 0023     		movs	r3, #0
 232:mis.c         **** }
 1055              		.loc 1 232 0
 1056 0018 1846     		mov	r0, r3
 1057 001a 80BD     		pop	{r7, pc}
 1058              		.cfi_endproc
 1059              	.LFE79:
 1060              		.size	MIS2_WaitPacket, .-MIS2_WaitPacket
 1061              		.section	.text.MIS2_Measure,"ax",%progbits
 1062              		.align	2
 1063              		.global	MIS2_Measure
 1064              		.thumb
 1065              		.thumb_func
 1066              		.type	MIS2_Measure, %function
 1067              	MIS2_Measure:
 1068              	.LFB80:
 233:mis.c         **** 
 234:mis.c         **** int MIS2_Measure(uint32 time_ms)
 235:mis.c         **** {
 1069              		.loc 1 235 0
 1070              		.cfi_startproc
 1071              		@ args = 0, pretend = 0, frame = 16
 1072              		@ frame_needed = 1, uses_anonymous_args = 0
 1073 0000 80B5     		push	{r7, lr}
 1074              		.cfi_def_cfa_offset 8
 1075              		.cfi_offset 7, -8
 1076              		.cfi_offset 14, -4
ARM GAS  C:\Users\Tomas\AppData\Local\Temp\cc1QFzoE.s 			page 24


 1077 0002 84B0     		sub	sp, sp, #16
 1078              		.cfi_def_cfa_offset 24
 1079 0004 00AF     		add	r7, sp, #0
 1080              		.cfi_def_cfa_register 7
 1081 0006 7860     		str	r0, [r7, #4]
 236:mis.c         ****     int result;
 237:mis.c         ****     
 238:mis.c         ****     MIS_Start();
 1082              		.loc 1 238 0
 1083 0008 FFF7FEFF 		bl	MIS_Start
 239:mis.c         ****     
 240:mis.c         ****     result = MIS2_WaitPacket();
 1084              		.loc 1 240 0
 1085 000c FFF7FEFF 		bl	MIS2_WaitPacket
 1086 0010 F860     		str	r0, [r7, #12]
 241:mis.c         ****     if (0 != result) return result;
 1087              		.loc 1 241 0
 1088 0012 FB68     		ldr	r3, [r7, #12]
 1089 0014 002B     		cmp	r3, #0
 1090 0016 01D0     		beq	.L71
 1091              		.loc 1 241 0 is_stmt 0 discriminator 1
 1092 0018 FB68     		ldr	r3, [r7, #12]
 1093 001a 0DE0     		b	.L72
 1094              	.L71:
 242:mis.c         ****     
 243:mis.c         ****     CyDelay(time_ms);
 1095              		.loc 1 243 0 is_stmt 1
 1096 001c 7868     		ldr	r0, [r7, #4]
 1097 001e FFF7FEFF 		bl	CyDelay
 244:mis.c         ****     
 245:mis.c         ****     MIS_Stop();
 1098              		.loc 1 245 0
 1099 0022 FFF7FEFF 		bl	MIS_Stop
 246:mis.c         ****     result = MIS2_WaitPacket();
 1100              		.loc 1 246 0
 1101 0026 FFF7FEFF 		bl	MIS2_WaitPacket
 1102 002a F860     		str	r0, [r7, #12]
 247:mis.c         ****     if (0 != result) return result;
 1103              		.loc 1 247 0
 1104 002c FB68     		ldr	r3, [r7, #12]
 1105 002e 002B     		cmp	r3, #0
 1106 0030 01D0     		beq	.L73
 1107              		.loc 1 247 0 is_stmt 0 discriminator 1
 1108 0032 FB68     		ldr	r3, [r7, #12]
 1109 0034 00E0     		b	.L72
 1110              	.L73:
 248:mis.c         ****     
 249:mis.c         ****     return result;
 1111              		.loc 1 249 0 is_stmt 1
 1112 0036 FB68     		ldr	r3, [r7, #12]
 1113              	.L72:
 250:mis.c         **** }
 1114              		.loc 1 250 0
 1115 0038 1846     		mov	r0, r3
 1116 003a 1037     		adds	r7, r7, #16
 1117              		.cfi_def_cfa_offset 8
 1118 003c BD46     		mov	sp, r7
ARM GAS  C:\Users\Tomas\AppData\Local\Temp\cc1QFzoE.s 			page 25


 1119              		.cfi_def_cfa_register 13
 1120              		@ sp needed
 1121 003e 80BD     		pop	{r7, pc}
 1122              		.cfi_endproc
 1123              	.LFE80:
 1124              		.size	MIS2_Measure, .-MIS2_Measure
 1125              		.global	pulseCounter3
 1126              		.bss
 1127              		.align	2
 1128              		.type	pulseCounter3, %object
 1129              		.size	pulseCounter3, 4
 1130              	pulseCounter3:
 1131 000c 00000000 		.space	4
 1132              		.section	.text.isr_PulseCounter_3_handler,"ax",%progbits
 1133              		.align	2
 1134              		.global	isr_PulseCounter_3_handler
 1135              		.thumb
 1136              		.thumb_func
 1137              		.type	isr_PulseCounter_3_handler, %function
 1138              	isr_PulseCounter_3_handler:
 1139              	.LFB81:
 251:mis.c         **** 
 252:mis.c         **** /******************************************************************************
 253:mis.c         **** *******************************************************************************/
 254:mis.c         **** 
 255:mis.c         **** /******************************************************************************
 256:mis.c         **** * Project Name		: MIS3
 257:mis.c         **** *******************************************************************************/
 258:mis.c         **** 
 259:mis.c         **** uint32 pulseCounter3 = 0;
 260:mis.c         **** CY_ISR(isr_PulseCounter_3_handler)
 261:mis.c         **** {
 1140              		.loc 1 261 0
 1141              		.cfi_startproc
 1142              		@ args = 0, pretend = 0, frame = 0
 1143              		@ frame_needed = 1, uses_anonymous_args = 0
 1144              		@ link register save eliminated.
 1145 0000 80B4     		push	{r7}
 1146              		.cfi_def_cfa_offset 4
 1147              		.cfi_offset 7, -4
 1148 0002 00AF     		add	r7, sp, #0
 1149              		.cfi_def_cfa_register 7
 262:mis.c         ****    pulseCounter3++;
 1150              		.loc 1 262 0
 1151 0004 044B     		ldr	r3, .L75
 1152 0006 1B68     		ldr	r3, [r3]
 1153 0008 0133     		adds	r3, r3, #1
 1154 000a 034A     		ldr	r2, .L75
 1155 000c 1360     		str	r3, [r2]
 263:mis.c         **** }
 1156              		.loc 1 263 0
 1157 000e 00BF     		nop
 1158 0010 BD46     		mov	sp, r7
 1159              		.cfi_def_cfa_register 13
 1160              		@ sp needed
 1161 0012 80BC     		pop	{r7}
 1162              		.cfi_restore 7
ARM GAS  C:\Users\Tomas\AppData\Local\Temp\cc1QFzoE.s 			page 26


 1163              		.cfi_def_cfa_offset 0
 1164 0014 7047     		bx	lr
 1165              	.L76:
 1166 0016 00BF     		.align	2
 1167              	.L75:
 1168 0018 00000000 		.word	pulseCounter3
 1169              		.cfi_endproc
 1170              	.LFE81:
 1171              		.size	isr_PulseCounter_3_handler, .-isr_PulseCounter_3_handler
 1172              		.comm	capture_3_count,4,4
 1173              		.comm	capture_3_timestampTimer,8,4
 1174              		.comm	capture_3_Timestamp_hw,2,4
 1175              		.section	.text.isr_Capture_3,"ax",%progbits
 1176              		.align	2
 1177              		.global	isr_Capture_3
 1178              		.thumb
 1179              		.thumb_func
 1180              		.type	isr_Capture_3, %function
 1181              	isr_Capture_3:
 1182              	.LFB82:
 264:mis.c         **** 
 265:mis.c         **** 
 266:mis.c         **** uint32 capture_3_count;
 267:mis.c         **** uint32 capture_3_timestampTimer[2];
 268:mis.c         **** uint8  capture_3_Timestamp_hw[2];
 269:mis.c         **** 
 270:mis.c         **** CY_ISR(isr_Capture_3)
 271:mis.c         **** {
 1183              		.loc 1 271 0
 1184              		.cfi_startproc
 1185              		@ args = 0, pretend = 0, frame = 8
 1186              		@ frame_needed = 1, uses_anonymous_args = 0
 1187 0000 80B5     		push	{r7, lr}
 1188              		.cfi_def_cfa_offset 8
 1189              		.cfi_offset 7, -8
 1190              		.cfi_offset 14, -4
 1191 0002 82B0     		sub	sp, sp, #8
 1192              		.cfi_def_cfa_offset 16
 1193 0004 00AF     		add	r7, sp, #0
 1194              		.cfi_def_cfa_register 7
 272:mis.c         ****     uint8 hw_old;
 273:mis.c         ****     uint8 hw_new;
 274:mis.c         ****     if (capture_3_count < sizeof(capture_2_Timestamp_hw))
 1195              		.loc 1 274 0
 1196 0006 174B     		ldr	r3, .L81
 1197 0008 1B68     		ldr	r3, [r3]
 1198 000a 012B     		cmp	r3, #1
 1199 000c 25D8     		bhi	.L80
 275:mis.c         ****     {   
 276:mis.c         ****         hw_old = Timestamp_ReadCounter();
 1200              		.loc 1 276 0
 1201 000e FFF7FEFF 		bl	Timestamp_ReadCounter
 1202 0012 0346     		mov	r3, r0
 1203 0014 FB71     		strb	r3, [r7, #7]
 277:mis.c         ****         capture_3_timestampTimer[capture_3_count] = timestampTimer;
 1204              		.loc 1 277 0
 1205 0016 134B     		ldr	r3, .L81
ARM GAS  C:\Users\Tomas\AppData\Local\Temp\cc1QFzoE.s 			page 27


 1206 0018 1B68     		ldr	r3, [r3]
 1207 001a 134A     		ldr	r2, .L81+4
 1208 001c 1268     		ldr	r2, [r2]
 1209 001e 1349     		ldr	r1, .L81+8
 1210 0020 41F82320 		str	r2, [r1, r3, lsl #2]
 278:mis.c         ****         hw_new = Timestamp_ReadCounter();
 1211              		.loc 1 278 0
 1212 0024 FFF7FEFF 		bl	Timestamp_ReadCounter
 1213 0028 0346     		mov	r3, r0
 1214 002a BB71     		strb	r3, [r7, #6]
 279:mis.c         ****         if (hw_new > hw_old)
 1215              		.loc 1 279 0
 1216 002c BA79     		ldrb	r2, [r7, #6]	@ zero_extendqisi2
 1217 002e FB79     		ldrb	r3, [r7, #7]	@ zero_extendqisi2
 1218 0030 9A42     		cmp	r2, r3
 1219 0032 08D9     		bls	.L79
 280:mis.c         ****         {
 281:mis.c         ****             //hardware overflow
 282:mis.c         ****             capture_3_timestampTimer[capture_3_count]--;
 1220              		.loc 1 282 0
 1221 0034 0B4B     		ldr	r3, .L81
 1222 0036 1B68     		ldr	r3, [r3]
 1223 0038 0C4A     		ldr	r2, .L81+8
 1224 003a 52F82320 		ldr	r2, [r2, r3, lsl #2]
 1225 003e 013A     		subs	r2, r2, #1
 1226 0040 0A49     		ldr	r1, .L81+8
 1227 0042 41F82320 		str	r2, [r1, r3, lsl #2]
 1228              	.L79:
 283:mis.c         ****         }
 284:mis.c         ****         capture_3_Timestamp_hw[capture_3_count] = hw_new;
 1229              		.loc 1 284 0
 1230 0046 074B     		ldr	r3, .L81
 1231 0048 1B68     		ldr	r3, [r3]
 1232 004a 0949     		ldr	r1, .L81+12
 1233 004c BA79     		ldrb	r2, [r7, #6]
 1234 004e CA54     		strb	r2, [r1, r3]
 285:mis.c         ****         capture_3_count++;
 1235              		.loc 1 285 0
 1236 0050 044B     		ldr	r3, .L81
 1237 0052 1B68     		ldr	r3, [r3]
 1238 0054 0133     		adds	r3, r3, #1
 1239 0056 034A     		ldr	r2, .L81
 1240 0058 1360     		str	r3, [r2]
 1241              	.L80:
 286:mis.c         ****     }
 287:mis.c         **** }
 1242              		.loc 1 287 0
 1243 005a 00BF     		nop
 1244 005c 0837     		adds	r7, r7, #8
 1245              		.cfi_def_cfa_offset 8
 1246 005e BD46     		mov	sp, r7
 1247              		.cfi_def_cfa_register 13
 1248              		@ sp needed
 1249 0060 80BD     		pop	{r7, pc}
 1250              	.L82:
 1251 0062 00BF     		.align	2
 1252              	.L81:
ARM GAS  C:\Users\Tomas\AppData\Local\Temp\cc1QFzoE.s 			page 28


 1253 0064 00000000 		.word	capture_3_count
 1254 0068 00000000 		.word	timestampTimer
 1255 006c 00000000 		.word	capture_3_timestampTimer
 1256 0070 00000000 		.word	capture_3_Timestamp_hw
 1257              		.cfi_endproc
 1258              	.LFE82:
 1259              		.size	isr_Capture_3, .-isr_Capture_3
 1260              		.section	.text.MIS3_ReadCount,"ax",%progbits
 1261              		.align	2
 1262              		.global	MIS3_ReadCount
 1263              		.thumb
 1264              		.thumb_func
 1265              		.type	MIS3_ReadCount, %function
 1266              	MIS3_ReadCount:
 1267              	.LFB83:
 288:mis.c         **** 
 289:mis.c         **** uint32 MIS3_ReadCount(void)
 290:mis.c         **** {
 1268              		.loc 1 290 0
 1269              		.cfi_startproc
 1270              		@ args = 0, pretend = 0, frame = 0
 1271              		@ frame_needed = 1, uses_anonymous_args = 0
 1272 0000 98B5     		push	{r3, r4, r7, lr}
 1273              		.cfi_def_cfa_offset 16
 1274              		.cfi_offset 3, -16
 1275              		.cfi_offset 4, -12
 1276              		.cfi_offset 7, -8
 1277              		.cfi_offset 14, -4
 1278 0002 00AF     		add	r7, sp, #0
 1279              		.cfi_def_cfa_register 7
 291:mis.c         ****     return (pulseCounter3<<7) | (0x7F & PulseCounter_3_ReadCounter());
 1280              		.loc 1 291 0
 1281 0004 054B     		ldr	r3, .L85
 1282 0006 1B68     		ldr	r3, [r3]
 1283 0008 DC01     		lsls	r4, r3, #7
 1284 000a FFF7FEFF 		bl	PulseCounter_3_ReadCounter
 1285 000e 0346     		mov	r3, r0
 1286 0010 03F07F03 		and	r3, r3, #127
 1287 0014 2343     		orrs	r3, r3, r4
 292:mis.c         **** }
 1288              		.loc 1 292 0
 1289 0016 1846     		mov	r0, r3
 1290 0018 98BD     		pop	{r3, r4, r7, pc}
 1291              	.L86:
 1292 001a 00BF     		.align	2
 1293              	.L85:
 1294 001c 00000000 		.word	pulseCounter3
 1295              		.cfi_endproc
 1296              	.LFE83:
 1297              		.size	MIS3_ReadCount, .-MIS3_ReadCount
 1298              		.section	.text.MIS3_ReadTotTime,"ax",%progbits
 1299              		.align	2
 1300              		.global	MIS3_ReadTotTime
 1301              		.thumb
 1302              		.thumb_func
 1303              		.type	MIS3_ReadTotTime, %function
 1304              	MIS3_ReadTotTime:
ARM GAS  C:\Users\Tomas\AppData\Local\Temp\cc1QFzoE.s 			page 29


 1305              	.LFB84:
 293:mis.c         **** 
 294:mis.c         **** uint32 MIS3_ReadTotTime(void)
 295:mis.c         **** {
 1306              		.loc 1 295 0
 1307              		.cfi_startproc
 1308              		@ args = 0, pretend = 0, frame = 8
 1309              		@ frame_needed = 1, uses_anonymous_args = 0
 1310              		@ link register save eliminated.
 1311 0000 80B4     		push	{r7}
 1312              		.cfi_def_cfa_offset 4
 1313              		.cfi_offset 7, -4
 1314 0002 83B0     		sub	sp, sp, #12
 1315              		.cfi_def_cfa_offset 16
 1316 0004 00AF     		add	r7, sp, #0
 1317              		.cfi_def_cfa_register 7
 296:mis.c         ****     uint32 result = 0;
 1318              		.loc 1 296 0
 1319 0006 0023     		movs	r3, #0
 1320 0008 7B60     		str	r3, [r7, #4]
 297:mis.c         ****     if (capture_3_count == 2)
 1321              		.loc 1 297 0
 1322 000a 0D4B     		ldr	r3, .L90
 1323 000c 1B68     		ldr	r3, [r3]
 1324 000e 022B     		cmp	r3, #2
 1325 0010 0FD1     		bne	.L88
 298:mis.c         ****     {
 299:mis.c         ****         result  = (capture_3_timestampTimer[0]<<8) | (0xFF & capture_3_Timestamp_hw[0]); /* timesta
 1326              		.loc 1 299 0
 1327 0012 0C4B     		ldr	r3, .L90+4
 1328 0014 1B68     		ldr	r3, [r3]
 1329 0016 1B02     		lsls	r3, r3, #8
 1330 0018 0B4A     		ldr	r2, .L90+8
 1331 001a 1278     		ldrb	r2, [r2]	@ zero_extendqisi2
 1332 001c 1343     		orrs	r3, r3, r2
 1333 001e 7B60     		str	r3, [r7, #4]
 300:mis.c         ****         result -= (capture_3_timestampTimer[1]<<8) | (0xFF & capture_2_Timestamp_hw[1]); /* timesta
 1334              		.loc 1 300 0
 1335 0020 084B     		ldr	r3, .L90+4
 1336 0022 5B68     		ldr	r3, [r3, #4]
 1337 0024 1B02     		lsls	r3, r3, #8
 1338 0026 094A     		ldr	r2, .L90+12
 1339 0028 5278     		ldrb	r2, [r2, #1]	@ zero_extendqisi2
 1340 002a 1343     		orrs	r3, r3, r2
 1341 002c 7A68     		ldr	r2, [r7, #4]
 1342 002e D31A     		subs	r3, r2, r3
 1343 0030 7B60     		str	r3, [r7, #4]
 1344              	.L88:
 301:mis.c         ****     }
 302:mis.c         ****     return result;
 1345              		.loc 1 302 0
 1346 0032 7B68     		ldr	r3, [r7, #4]
 303:mis.c         **** }
 1347              		.loc 1 303 0
 1348 0034 1846     		mov	r0, r3
 1349 0036 0C37     		adds	r7, r7, #12
 1350              		.cfi_def_cfa_offset 4
ARM GAS  C:\Users\Tomas\AppData\Local\Temp\cc1QFzoE.s 			page 30


 1351 0038 BD46     		mov	sp, r7
 1352              		.cfi_def_cfa_register 13
 1353              		@ sp needed
 1354 003a 80BC     		pop	{r7}
 1355              		.cfi_restore 7
 1356              		.cfi_def_cfa_offset 0
 1357 003c 7047     		bx	lr
 1358              	.L91:
 1359 003e 00BF     		.align	2
 1360              	.L90:
 1361 0040 00000000 		.word	capture_3_count
 1362 0044 00000000 		.word	capture_3_timestampTimer
 1363 0048 00000000 		.word	capture_3_Timestamp_hw
 1364 004c 00000000 		.word	capture_2_Timestamp_hw
 1365              		.cfi_endproc
 1366              	.LFE84:
 1367              		.size	MIS3_ReadTotTime, .-MIS3_ReadTotTime
 1368              		.section	.text.MIS3_ReadCurTime,"ax",%progbits
 1369              		.align	2
 1370              		.global	MIS3_ReadCurTime
 1371              		.thumb
 1372              		.thumb_func
 1373              		.type	MIS3_ReadCurTime, %function
 1374              	MIS3_ReadCurTime:
 1375              	.LFB85:
 304:mis.c         **** uint32 MIS3_ReadCurTime(void)
 305:mis.c         **** {
 1376              		.loc 1 305 0
 1377              		.cfi_startproc
 1378              		@ args = 0, pretend = 0, frame = 16
 1379              		@ frame_needed = 1, uses_anonymous_args = 0
 1380 0000 80B5     		push	{r7, lr}
 1381              		.cfi_def_cfa_offset 8
 1382              		.cfi_offset 7, -8
 1383              		.cfi_offset 14, -4
 1384 0002 84B0     		sub	sp, sp, #16
 1385              		.cfi_def_cfa_offset 24
 1386 0004 00AF     		add	r7, sp, #0
 1387              		.cfi_def_cfa_register 7
 306:mis.c         ****     uint32 result = 0;
 1388              		.loc 1 306 0
 1389 0006 0023     		movs	r3, #0
 1390 0008 FB60     		str	r3, [r7, #12]
 307:mis.c         ****      uint32 cur_timestampTimer = 0;
 1391              		.loc 1 307 0
 1392 000a 0023     		movs	r3, #0
 1393 000c BB60     		str	r3, [r7, #8]
 308:mis.c         ****     if (capture_3_count == 2)
 1394              		.loc 1 308 0
 1395 000e 1F4B     		ldr	r3, .L97
 1396 0010 1B68     		ldr	r3, [r3]
 1397 0012 022B     		cmp	r3, #2
 1398 0014 10D1     		bne	.L93
 309:mis.c         ****     {
 310:mis.c         ****         result  = (capture_3_timestampTimer[0]<<8) | (0xFF & capture_3_Timestamp_hw[0]); /* timesta
 1399              		.loc 1 310 0
 1400 0016 1E4B     		ldr	r3, .L97+4
ARM GAS  C:\Users\Tomas\AppData\Local\Temp\cc1QFzoE.s 			page 31


 1401 0018 1B68     		ldr	r3, [r3]
 1402 001a 1B02     		lsls	r3, r3, #8
 1403 001c 1D4A     		ldr	r2, .L97+8
 1404 001e 1278     		ldrb	r2, [r2]	@ zero_extendqisi2
 1405 0020 1343     		orrs	r3, r3, r2
 1406 0022 FB60     		str	r3, [r7, #12]
 311:mis.c         ****         result -= (capture_3_timestampTimer[1]<<8) | (0xFF & capture_3_Timestamp_hw[1]); /* timesta
 1407              		.loc 1 311 0
 1408 0024 1A4B     		ldr	r3, .L97+4
 1409 0026 5B68     		ldr	r3, [r3, #4]
 1410 0028 1B02     		lsls	r3, r3, #8
 1411 002a 1A4A     		ldr	r2, .L97+8
 1412 002c 5278     		ldrb	r2, [r2, #1]	@ zero_extendqisi2
 1413 002e 1343     		orrs	r3, r3, r2
 1414 0030 FA68     		ldr	r2, [r7, #12]
 1415 0032 D31A     		subs	r3, r2, r3
 1416 0034 FB60     		str	r3, [r7, #12]
 1417 0036 23E0     		b	.L94
 1418              	.L93:
 312:mis.c         ****     }
 313:mis.c         ****     else if (capture_3_count == 1)
 1419              		.loc 1 313 0
 1420 0038 144B     		ldr	r3, .L97
 1421 003a 1B68     		ldr	r3, [r3]
 1422 003c 012B     		cmp	r3, #1
 1423 003e 1FD1     		bne	.L94
 1424              	.LBB4:
 314:mis.c         ****     {
 315:mis.c         ****         result  = (capture_3_timestampTimer[0]<<8) | (0xFF & capture_3_Timestamp_hw[0]); /* timesta
 1425              		.loc 1 315 0
 1426 0040 134B     		ldr	r3, .L97+4
 1427 0042 1B68     		ldr	r3, [r3]
 1428 0044 1B02     		lsls	r3, r3, #8
 1429 0046 134A     		ldr	r2, .L97+8
 1430 0048 1278     		ldrb	r2, [r2]	@ zero_extendqisi2
 1431 004a 1343     		orrs	r3, r3, r2
 1432 004c FB60     		str	r3, [r7, #12]
 316:mis.c         ****         uint8 hw_old;
 317:mis.c         ****         uint8 hw_new;
 318:mis.c         ****         hw_old = Timestamp_ReadCounter();
 1433              		.loc 1 318 0
 1434 004e FFF7FEFF 		bl	Timestamp_ReadCounter
 1435 0052 0346     		mov	r3, r0
 1436 0054 FB71     		strb	r3, [r7, #7]
 319:mis.c         ****         cur_timestampTimer = timestampTimer;
 1437              		.loc 1 319 0
 1438 0056 104B     		ldr	r3, .L97+12
 1439 0058 1B68     		ldr	r3, [r3]
 1440 005a BB60     		str	r3, [r7, #8]
 320:mis.c         ****         hw_new = Timestamp_ReadCounter();
 1441              		.loc 1 320 0
 1442 005c FFF7FEFF 		bl	Timestamp_ReadCounter
 1443 0060 0346     		mov	r3, r0
 1444 0062 BB71     		strb	r3, [r7, #6]
 321:mis.c         ****         if (hw_new > hw_old)
 1445              		.loc 1 321 0
 1446 0064 BA79     		ldrb	r2, [r7, #6]	@ zero_extendqisi2
ARM GAS  C:\Users\Tomas\AppData\Local\Temp\cc1QFzoE.s 			page 32


 1447 0066 FB79     		ldrb	r3, [r7, #7]	@ zero_extendqisi2
 1448 0068 9A42     		cmp	r2, r3
 1449 006a 02D9     		bls	.L95
 322:mis.c         ****         {
 323:mis.c         ****             //hardware overflow
 324:mis.c         ****             cur_timestampTimer--;
 1450              		.loc 1 324 0
 1451 006c BB68     		ldr	r3, [r7, #8]
 1452 006e 013B     		subs	r3, r3, #1
 1453 0070 BB60     		str	r3, [r7, #8]
 1454              	.L95:
 325:mis.c         ****         }
 326:mis.c         ****         result -= (cur_timestampTimer<<8) | (0xFF & hw_new); /* timestampTimerStop  */
 1455              		.loc 1 326 0
 1456 0072 BB68     		ldr	r3, [r7, #8]
 1457 0074 1A02     		lsls	r2, r3, #8
 1458 0076 BB79     		ldrb	r3, [r7, #6]	@ zero_extendqisi2
 1459 0078 1343     		orrs	r3, r3, r2
 1460 007a FA68     		ldr	r2, [r7, #12]
 1461 007c D31A     		subs	r3, r2, r3
 1462 007e FB60     		str	r3, [r7, #12]
 1463              	.L94:
 1464              	.LBE4:
 327:mis.c         ****     }
 328:mis.c         ****     return result;
 1465              		.loc 1 328 0
 1466 0080 FB68     		ldr	r3, [r7, #12]
 329:mis.c         **** }
 1467              		.loc 1 329 0
 1468 0082 1846     		mov	r0, r3
 1469 0084 1037     		adds	r7, r7, #16
 1470              		.cfi_def_cfa_offset 8
 1471 0086 BD46     		mov	sp, r7
 1472              		.cfi_def_cfa_register 13
 1473              		@ sp needed
 1474 0088 80BD     		pop	{r7, pc}
 1475              	.L98:
 1476 008a 00BF     		.align	2
 1477              	.L97:
 1478 008c 00000000 		.word	capture_3_count
 1479 0090 00000000 		.word	capture_3_timestampTimer
 1480 0094 00000000 		.word	capture_3_Timestamp_hw
 1481 0098 00000000 		.word	timestampTimer
 1482              		.cfi_endproc
 1483              	.LFE85:
 1484              		.size	MIS3_ReadCurTime, .-MIS3_ReadCurTime
 1485              		.section	.text.MIS3_SetBurstTimeout,"ax",%progbits
 1486              		.align	2
 1487              		.global	MIS3_SetBurstTimeout
 1488              		.thumb
 1489              		.thumb_func
 1490              		.type	MIS3_SetBurstTimeout, %function
 1491              	MIS3_SetBurstTimeout:
 1492              	.LFB86:
 330:mis.c         **** void MIS3_SetBurstTimeout(uint32 t)
 331:mis.c         **** {
 1493              		.loc 1 331 0
ARM GAS  C:\Users\Tomas\AppData\Local\Temp\cc1QFzoE.s 			page 33


 1494              		.cfi_startproc
 1495              		@ args = 0, pretend = 0, frame = 8
 1496              		@ frame_needed = 1, uses_anonymous_args = 0
 1497 0000 80B5     		push	{r7, lr}
 1498              		.cfi_def_cfa_offset 8
 1499              		.cfi_offset 7, -8
 1500              		.cfi_offset 14, -4
 1501 0002 82B0     		sub	sp, sp, #8
 1502              		.cfi_def_cfa_offset 16
 1503 0004 00AF     		add	r7, sp, #0
 1504              		.cfi_def_cfa_register 7
 1505 0006 7860     		str	r0, [r7, #4]
 332:mis.c         ****     BurstTimeout_3_WritePeriod(t);
 1506              		.loc 1 332 0
 1507 0008 7B68     		ldr	r3, [r7, #4]
 1508 000a 9BB2     		uxth	r3, r3
 1509 000c 1846     		mov	r0, r3
 1510 000e FFF7FEFF 		bl	BurstTimeout_3_WritePeriod
 333:mis.c         **** }
 1511              		.loc 1 333 0
 1512 0012 00BF     		nop
 1513 0014 0837     		adds	r7, r7, #8
 1514              		.cfi_def_cfa_offset 8
 1515 0016 BD46     		mov	sp, r7
 1516              		.cfi_def_cfa_register 13
 1517              		@ sp needed
 1518 0018 80BD     		pop	{r7, pc}
 1519              		.cfi_endproc
 1520              	.LFE86:
 1521              		.size	MIS3_SetBurstTimeout, .-MIS3_SetBurstTimeout
 1522 001a 00BF     		.section	.text.MIS3_WaitPacket,"ax",%progbits
 1523              		.align	2
 1524              		.global	MIS3_WaitPacket
 1525              		.thumb
 1526              		.thumb_func
 1527              		.type	MIS3_WaitPacket, %function
 1528              	MIS3_WaitPacket:
 1529              	.LFB87:
 334:mis.c         **** 
 335:mis.c         **** int MIS3_WaitPacket(void)
 336:mis.c         **** {
 1530              		.loc 1 336 0
 1531              		.cfi_startproc
 1532              		@ args = 0, pretend = 0, frame = 0
 1533              		@ frame_needed = 1, uses_anonymous_args = 0
 1534 0000 80B5     		push	{r7, lr}
 1535              		.cfi_def_cfa_offset 8
 1536              		.cfi_offset 7, -8
 1537              		.cfi_offset 14, -4
 1538 0002 00AF     		add	r7, sp, #0
 1539              		.cfi_def_cfa_register 7
 337:mis.c         ****     while (0 == (3 & MIS_Stat_Read()));
 1540              		.loc 1 337 0
 1541 0004 00BF     		nop
 1542              	.L101:
 1543              		.loc 1 337 0 is_stmt 0 discriminator 1
 1544 0006 FFF7FEFF 		bl	MIS_Stat_Read
ARM GAS  C:\Users\Tomas\AppData\Local\Temp\cc1QFzoE.s 			page 34


 1545 000a 0346     		mov	r3, r0
 1546 000c 03F00303 		and	r3, r3, #3
 1547 0010 DBB2     		uxtb	r3, r3
 1548 0012 002B     		cmp	r3, #0
 1549 0014 F7D0     		beq	.L101
 338:mis.c         ****     return 0;
 1550              		.loc 1 338 0 is_stmt 1
 1551 0016 0023     		movs	r3, #0
 339:mis.c         **** }
 1552              		.loc 1 339 0
 1553 0018 1846     		mov	r0, r3
 1554 001a 80BD     		pop	{r7, pc}
 1555              		.cfi_endproc
 1556              	.LFE87:
 1557              		.size	MIS3_WaitPacket, .-MIS3_WaitPacket
 1558              		.section	.text.MIS3_Measure,"ax",%progbits
 1559              		.align	2
 1560              		.global	MIS3_Measure
 1561              		.thumb
 1562              		.thumb_func
 1563              		.type	MIS3_Measure, %function
 1564              	MIS3_Measure:
 1565              	.LFB88:
 340:mis.c         **** 
 341:mis.c         **** int MIS3_Measure(uint32 time_ms)
 342:mis.c         **** {
 1566              		.loc 1 342 0
 1567              		.cfi_startproc
 1568              		@ args = 0, pretend = 0, frame = 16
 1569              		@ frame_needed = 1, uses_anonymous_args = 0
 1570 0000 80B5     		push	{r7, lr}
 1571              		.cfi_def_cfa_offset 8
 1572              		.cfi_offset 7, -8
 1573              		.cfi_offset 14, -4
 1574 0002 84B0     		sub	sp, sp, #16
 1575              		.cfi_def_cfa_offset 24
 1576 0004 00AF     		add	r7, sp, #0
 1577              		.cfi_def_cfa_register 7
 1578 0006 7860     		str	r0, [r7, #4]
 343:mis.c         ****     int result;
 344:mis.c         ****     
 345:mis.c         ****     MIS_Start();
 1579              		.loc 1 345 0
 1580 0008 FFF7FEFF 		bl	MIS_Start
 346:mis.c         ****     
 347:mis.c         ****     result = MIS3_WaitPacket();
 1581              		.loc 1 347 0
 1582 000c FFF7FEFF 		bl	MIS3_WaitPacket
 1583 0010 F860     		str	r0, [r7, #12]
 348:mis.c         ****     if (0 != result) return result;
 1584              		.loc 1 348 0
 1585 0012 FB68     		ldr	r3, [r7, #12]
 1586 0014 002B     		cmp	r3, #0
 1587 0016 01D0     		beq	.L104
 1588              		.loc 1 348 0 is_stmt 0 discriminator 1
 1589 0018 FB68     		ldr	r3, [r7, #12]
 1590 001a 0DE0     		b	.L105
ARM GAS  C:\Users\Tomas\AppData\Local\Temp\cc1QFzoE.s 			page 35


 1591              	.L104:
 349:mis.c         ****     
 350:mis.c         ****     CyDelay(time_ms);
 1592              		.loc 1 350 0 is_stmt 1
 1593 001c 7868     		ldr	r0, [r7, #4]
 1594 001e FFF7FEFF 		bl	CyDelay
 351:mis.c         ****     
 352:mis.c         ****     MIS_Stop();
 1595              		.loc 1 352 0
 1596 0022 FFF7FEFF 		bl	MIS_Stop
 353:mis.c         ****     result = MIS3_WaitPacket();
 1597              		.loc 1 353 0
 1598 0026 FFF7FEFF 		bl	MIS3_WaitPacket
 1599 002a F860     		str	r0, [r7, #12]
 354:mis.c         ****     if (0 != result) return result;
 1600              		.loc 1 354 0
 1601 002c FB68     		ldr	r3, [r7, #12]
 1602 002e 002B     		cmp	r3, #0
 1603 0030 01D0     		beq	.L106
 1604              		.loc 1 354 0 is_stmt 0 discriminator 1
 1605 0032 FB68     		ldr	r3, [r7, #12]
 1606 0034 00E0     		b	.L105
 1607              	.L106:
 355:mis.c         ****     
 356:mis.c         ****     return result;
 1608              		.loc 1 356 0 is_stmt 1
 1609 0036 FB68     		ldr	r3, [r7, #12]
 1610              	.L105:
 357:mis.c         **** }
 1611              		.loc 1 357 0
 1612 0038 1846     		mov	r0, r3
 1613 003a 1037     		adds	r7, r7, #16
 1614              		.cfi_def_cfa_offset 8
 1615 003c BD46     		mov	sp, r7
 1616              		.cfi_def_cfa_register 13
 1617              		@ sp needed
 1618 003e 80BD     		pop	{r7, pc}
 1619              		.cfi_endproc
 1620              	.LFE88:
 1621              		.size	MIS3_Measure, .-MIS3_Measure
 1622              		.global	pulseCounter4
 1623              		.bss
 1624              		.align	2
 1625              		.type	pulseCounter4, %object
 1626              		.size	pulseCounter4, 4
 1627              	pulseCounter4:
 1628 0010 00000000 		.space	4
 1629              		.section	.text.isr_PulseCounter_4_handler,"ax",%progbits
 1630              		.align	2
 1631              		.global	isr_PulseCounter_4_handler
 1632              		.thumb
 1633              		.thumb_func
 1634              		.type	isr_PulseCounter_4_handler, %function
 1635              	isr_PulseCounter_4_handler:
 1636              	.LFB89:
 358:mis.c         **** 
 359:mis.c         **** /******************************************************************************
ARM GAS  C:\Users\Tomas\AppData\Local\Temp\cc1QFzoE.s 			page 36


 360:mis.c         **** *******************************************************************************/
 361:mis.c         **** 
 362:mis.c         **** /******************************************************************************
 363:mis.c         **** * Project Name		: MIS4
 364:mis.c         **** *******************************************************************************/
 365:mis.c         **** 
 366:mis.c         **** uint32 pulseCounter4 = 0;
 367:mis.c         **** CY_ISR(isr_PulseCounter_4_handler)
 368:mis.c         **** {
 1637              		.loc 1 368 0
 1638              		.cfi_startproc
 1639              		@ args = 0, pretend = 0, frame = 0
 1640              		@ frame_needed = 1, uses_anonymous_args = 0
 1641              		@ link register save eliminated.
 1642 0000 80B4     		push	{r7}
 1643              		.cfi_def_cfa_offset 4
 1644              		.cfi_offset 7, -4
 1645 0002 00AF     		add	r7, sp, #0
 1646              		.cfi_def_cfa_register 7
 369:mis.c         ****    pulseCounter4++;
 1647              		.loc 1 369 0
 1648 0004 044B     		ldr	r3, .L108
 1649 0006 1B68     		ldr	r3, [r3]
 1650 0008 0133     		adds	r3, r3, #1
 1651 000a 034A     		ldr	r2, .L108
 1652 000c 1360     		str	r3, [r2]
 370:mis.c         **** }
 1653              		.loc 1 370 0
 1654 000e 00BF     		nop
 1655 0010 BD46     		mov	sp, r7
 1656              		.cfi_def_cfa_register 13
 1657              		@ sp needed
 1658 0012 80BC     		pop	{r7}
 1659              		.cfi_restore 7
 1660              		.cfi_def_cfa_offset 0
 1661 0014 7047     		bx	lr
 1662              	.L109:
 1663 0016 00BF     		.align	2
 1664              	.L108:
 1665 0018 00000000 		.word	pulseCounter4
 1666              		.cfi_endproc
 1667              	.LFE89:
 1668              		.size	isr_PulseCounter_4_handler, .-isr_PulseCounter_4_handler
 1669              		.comm	capture_4_count,4,4
 1670              		.comm	capture_4_timestampTimer,8,4
 1671              		.comm	capture_4_Timestamp_hw,2,4
 1672              		.section	.text.isr_Capture_4,"ax",%progbits
 1673              		.align	2
 1674              		.global	isr_Capture_4
 1675              		.thumb
 1676              		.thumb_func
 1677              		.type	isr_Capture_4, %function
 1678              	isr_Capture_4:
 1679              	.LFB90:
 371:mis.c         **** 
 372:mis.c         **** 
 373:mis.c         **** uint32 capture_4_count;
ARM GAS  C:\Users\Tomas\AppData\Local\Temp\cc1QFzoE.s 			page 37


 374:mis.c         **** uint32 capture_4_timestampTimer[2];
 375:mis.c         **** uint8  capture_4_Timestamp_hw[2];
 376:mis.c         **** 
 377:mis.c         **** CY_ISR(isr_Capture_4)
 378:mis.c         **** {
 1680              		.loc 1 378 0
 1681              		.cfi_startproc
 1682              		@ args = 0, pretend = 0, frame = 8
 1683              		@ frame_needed = 1, uses_anonymous_args = 0
 1684 0000 80B5     		push	{r7, lr}
 1685              		.cfi_def_cfa_offset 8
 1686              		.cfi_offset 7, -8
 1687              		.cfi_offset 14, -4
 1688 0002 82B0     		sub	sp, sp, #8
 1689              		.cfi_def_cfa_offset 16
 1690 0004 00AF     		add	r7, sp, #0
 1691              		.cfi_def_cfa_register 7
 379:mis.c         ****     uint8 hw_old;
 380:mis.c         ****     uint8 hw_new;
 381:mis.c         ****     if (capture_4_count < sizeof(capture_4_Timestamp_hw))
 1692              		.loc 1 381 0
 1693 0006 174B     		ldr	r3, .L114
 1694 0008 1B68     		ldr	r3, [r3]
 1695 000a 012B     		cmp	r3, #1
 1696 000c 25D8     		bhi	.L113
 382:mis.c         ****     {   
 383:mis.c         ****         hw_old = Timestamp_ReadCounter();
 1697              		.loc 1 383 0
 1698 000e FFF7FEFF 		bl	Timestamp_ReadCounter
 1699 0012 0346     		mov	r3, r0
 1700 0014 FB71     		strb	r3, [r7, #7]
 384:mis.c         ****         capture_4_timestampTimer[capture_4_count] = timestampTimer;
 1701              		.loc 1 384 0
 1702 0016 134B     		ldr	r3, .L114
 1703 0018 1B68     		ldr	r3, [r3]
 1704 001a 134A     		ldr	r2, .L114+4
 1705 001c 1268     		ldr	r2, [r2]
 1706 001e 1349     		ldr	r1, .L114+8
 1707 0020 41F82320 		str	r2, [r1, r3, lsl #2]
 385:mis.c         ****         hw_new = Timestamp_ReadCounter();
 1708              		.loc 1 385 0
 1709 0024 FFF7FEFF 		bl	Timestamp_ReadCounter
 1710 0028 0346     		mov	r3, r0
 1711 002a BB71     		strb	r3, [r7, #6]
 386:mis.c         ****         if (hw_new > hw_old)
 1712              		.loc 1 386 0
 1713 002c BA79     		ldrb	r2, [r7, #6]	@ zero_extendqisi2
 1714 002e FB79     		ldrb	r3, [r7, #7]	@ zero_extendqisi2
 1715 0030 9A42     		cmp	r2, r3
 1716 0032 08D9     		bls	.L112
 387:mis.c         ****         {
 388:mis.c         ****             //hardware overflow
 389:mis.c         ****             capture_4_timestampTimer[capture_4_count]--;
 1717              		.loc 1 389 0
 1718 0034 0B4B     		ldr	r3, .L114
 1719 0036 1B68     		ldr	r3, [r3]
 1720 0038 0C4A     		ldr	r2, .L114+8
ARM GAS  C:\Users\Tomas\AppData\Local\Temp\cc1QFzoE.s 			page 38


 1721 003a 52F82320 		ldr	r2, [r2, r3, lsl #2]
 1722 003e 013A     		subs	r2, r2, #1
 1723 0040 0A49     		ldr	r1, .L114+8
 1724 0042 41F82320 		str	r2, [r1, r3, lsl #2]
 1725              	.L112:
 390:mis.c         ****         }
 391:mis.c         ****         capture_4_Timestamp_hw[capture_4_count] = hw_new;
 1726              		.loc 1 391 0
 1727 0046 074B     		ldr	r3, .L114
 1728 0048 1B68     		ldr	r3, [r3]
 1729 004a 0949     		ldr	r1, .L114+12
 1730 004c BA79     		ldrb	r2, [r7, #6]
 1731 004e CA54     		strb	r2, [r1, r3]
 392:mis.c         ****         capture_4_count++;
 1732              		.loc 1 392 0
 1733 0050 044B     		ldr	r3, .L114
 1734 0052 1B68     		ldr	r3, [r3]
 1735 0054 0133     		adds	r3, r3, #1
 1736 0056 034A     		ldr	r2, .L114
 1737 0058 1360     		str	r3, [r2]
 1738              	.L113:
 393:mis.c         ****     }
 394:mis.c         **** }
 1739              		.loc 1 394 0
 1740 005a 00BF     		nop
 1741 005c 0837     		adds	r7, r7, #8
 1742              		.cfi_def_cfa_offset 8
 1743 005e BD46     		mov	sp, r7
 1744              		.cfi_def_cfa_register 13
 1745              		@ sp needed
 1746 0060 80BD     		pop	{r7, pc}
 1747              	.L115:
 1748 0062 00BF     		.align	2
 1749              	.L114:
 1750 0064 00000000 		.word	capture_4_count
 1751 0068 00000000 		.word	timestampTimer
 1752 006c 00000000 		.word	capture_4_timestampTimer
 1753 0070 00000000 		.word	capture_4_Timestamp_hw
 1754              		.cfi_endproc
 1755              	.LFE90:
 1756              		.size	isr_Capture_4, .-isr_Capture_4
 1757              		.section	.text.MIS4_ReadCount,"ax",%progbits
 1758              		.align	2
 1759              		.global	MIS4_ReadCount
 1760              		.thumb
 1761              		.thumb_func
 1762              		.type	MIS4_ReadCount, %function
 1763              	MIS4_ReadCount:
 1764              	.LFB91:
 395:mis.c         **** 
 396:mis.c         **** uint32 MIS4_ReadCount(void)
 397:mis.c         **** {
 1765              		.loc 1 397 0
 1766              		.cfi_startproc
 1767              		@ args = 0, pretend = 0, frame = 0
 1768              		@ frame_needed = 1, uses_anonymous_args = 0
 1769 0000 98B5     		push	{r3, r4, r7, lr}
ARM GAS  C:\Users\Tomas\AppData\Local\Temp\cc1QFzoE.s 			page 39


 1770              		.cfi_def_cfa_offset 16
 1771              		.cfi_offset 3, -16
 1772              		.cfi_offset 4, -12
 1773              		.cfi_offset 7, -8
 1774              		.cfi_offset 14, -4
 1775 0002 00AF     		add	r7, sp, #0
 1776              		.cfi_def_cfa_register 7
 398:mis.c         ****     return (pulseCounter4<<7) | (0x7F & PulseCounter_4_ReadCounter());
 1777              		.loc 1 398 0
 1778 0004 054B     		ldr	r3, .L118
 1779 0006 1B68     		ldr	r3, [r3]
 1780 0008 DC01     		lsls	r4, r3, #7
 1781 000a FFF7FEFF 		bl	PulseCounter_4_ReadCounter
 1782 000e 0346     		mov	r3, r0
 1783 0010 03F07F03 		and	r3, r3, #127
 1784 0014 2343     		orrs	r3, r3, r4
 399:mis.c         **** }
 1785              		.loc 1 399 0
 1786 0016 1846     		mov	r0, r3
 1787 0018 98BD     		pop	{r3, r4, r7, pc}
 1788              	.L119:
 1789 001a 00BF     		.align	2
 1790              	.L118:
 1791 001c 00000000 		.word	pulseCounter4
 1792              		.cfi_endproc
 1793              	.LFE91:
 1794              		.size	MIS4_ReadCount, .-MIS4_ReadCount
 1795              		.section	.text.MIS4_ReadTotTime,"ax",%progbits
 1796              		.align	2
 1797              		.global	MIS4_ReadTotTime
 1798              		.thumb
 1799              		.thumb_func
 1800              		.type	MIS4_ReadTotTime, %function
 1801              	MIS4_ReadTotTime:
 1802              	.LFB92:
 400:mis.c         **** 
 401:mis.c         **** uint32 MIS4_ReadTotTime(void)
 402:mis.c         **** {
 1803              		.loc 1 402 0
 1804              		.cfi_startproc
 1805              		@ args = 0, pretend = 0, frame = 8
 1806              		@ frame_needed = 1, uses_anonymous_args = 0
 1807              		@ link register save eliminated.
 1808 0000 80B4     		push	{r7}
 1809              		.cfi_def_cfa_offset 4
 1810              		.cfi_offset 7, -4
 1811 0002 83B0     		sub	sp, sp, #12
 1812              		.cfi_def_cfa_offset 16
 1813 0004 00AF     		add	r7, sp, #0
 1814              		.cfi_def_cfa_register 7
 403:mis.c         ****     uint32 result = 0;
 1815              		.loc 1 403 0
 1816 0006 0023     		movs	r3, #0
 1817 0008 7B60     		str	r3, [r7, #4]
 404:mis.c         ****     if (capture_4_count == 2)
 1818              		.loc 1 404 0
 1819 000a 0D4B     		ldr	r3, .L123
ARM GAS  C:\Users\Tomas\AppData\Local\Temp\cc1QFzoE.s 			page 40


 1820 000c 1B68     		ldr	r3, [r3]
 1821 000e 022B     		cmp	r3, #2
 1822 0010 0FD1     		bne	.L121
 405:mis.c         ****     {
 406:mis.c         ****         result  = (capture_4_timestampTimer[0]<<8) | (0xFF & capture_4_Timestamp_hw[0]); /* timesta
 1823              		.loc 1 406 0
 1824 0012 0C4B     		ldr	r3, .L123+4
 1825 0014 1B68     		ldr	r3, [r3]
 1826 0016 1B02     		lsls	r3, r3, #8
 1827 0018 0B4A     		ldr	r2, .L123+8
 1828 001a 1278     		ldrb	r2, [r2]	@ zero_extendqisi2
 1829 001c 1343     		orrs	r3, r3, r2
 1830 001e 7B60     		str	r3, [r7, #4]
 407:mis.c         ****         result -= (capture_4_timestampTimer[1]<<8) | (0xFF & capture_4_Timestamp_hw[1]); /* timesta
 1831              		.loc 1 407 0
 1832 0020 084B     		ldr	r3, .L123+4
 1833 0022 5B68     		ldr	r3, [r3, #4]
 1834 0024 1B02     		lsls	r3, r3, #8
 1835 0026 084A     		ldr	r2, .L123+8
 1836 0028 5278     		ldrb	r2, [r2, #1]	@ zero_extendqisi2
 1837 002a 1343     		orrs	r3, r3, r2
 1838 002c 7A68     		ldr	r2, [r7, #4]
 1839 002e D31A     		subs	r3, r2, r3
 1840 0030 7B60     		str	r3, [r7, #4]
 1841              	.L121:
 408:mis.c         ****     }
 409:mis.c         ****     return result;
 1842              		.loc 1 409 0
 1843 0032 7B68     		ldr	r3, [r7, #4]
 410:mis.c         **** }
 1844              		.loc 1 410 0
 1845 0034 1846     		mov	r0, r3
 1846 0036 0C37     		adds	r7, r7, #12
 1847              		.cfi_def_cfa_offset 4
 1848 0038 BD46     		mov	sp, r7
 1849              		.cfi_def_cfa_register 13
 1850              		@ sp needed
 1851 003a 80BC     		pop	{r7}
 1852              		.cfi_restore 7
 1853              		.cfi_def_cfa_offset 0
 1854 003c 7047     		bx	lr
 1855              	.L124:
 1856 003e 00BF     		.align	2
 1857              	.L123:
 1858 0040 00000000 		.word	capture_4_count
 1859 0044 00000000 		.word	capture_4_timestampTimer
 1860 0048 00000000 		.word	capture_4_Timestamp_hw
 1861              		.cfi_endproc
 1862              	.LFE92:
 1863              		.size	MIS4_ReadTotTime, .-MIS4_ReadTotTime
 1864              		.section	.text.MIS4_ReadCurTime,"ax",%progbits
 1865              		.align	2
 1866              		.global	MIS4_ReadCurTime
 1867              		.thumb
 1868              		.thumb_func
 1869              		.type	MIS4_ReadCurTime, %function
 1870              	MIS4_ReadCurTime:
ARM GAS  C:\Users\Tomas\AppData\Local\Temp\cc1QFzoE.s 			page 41


 1871              	.LFB93:
 411:mis.c         **** 
 412:mis.c         **** uint32 MIS4_ReadCurTime(void)
 413:mis.c         **** {
 1872              		.loc 1 413 0
 1873              		.cfi_startproc
 1874              		@ args = 0, pretend = 0, frame = 16
 1875              		@ frame_needed = 1, uses_anonymous_args = 0
 1876 0000 80B5     		push	{r7, lr}
 1877              		.cfi_def_cfa_offset 8
 1878              		.cfi_offset 7, -8
 1879              		.cfi_offset 14, -4
 1880 0002 84B0     		sub	sp, sp, #16
 1881              		.cfi_def_cfa_offset 24
 1882 0004 00AF     		add	r7, sp, #0
 1883              		.cfi_def_cfa_register 7
 414:mis.c         ****     uint32 result = 0;
 1884              		.loc 1 414 0
 1885 0006 0023     		movs	r3, #0
 1886 0008 FB60     		str	r3, [r7, #12]
 415:mis.c         ****      uint32 cur_timestampTimer = 0;
 1887              		.loc 1 415 0
 1888 000a 0023     		movs	r3, #0
 1889 000c BB60     		str	r3, [r7, #8]
 416:mis.c         ****     if (capture_4_count == 2)
 1890              		.loc 1 416 0
 1891 000e 1F4B     		ldr	r3, .L130
 1892 0010 1B68     		ldr	r3, [r3]
 1893 0012 022B     		cmp	r3, #2
 1894 0014 10D1     		bne	.L126
 417:mis.c         ****     {
 418:mis.c         ****         result  = (capture_4_timestampTimer[0]<<8) | (0xFF & capture_4_Timestamp_hw[0]); /* timesta
 1895              		.loc 1 418 0
 1896 0016 1E4B     		ldr	r3, .L130+4
 1897 0018 1B68     		ldr	r3, [r3]
 1898 001a 1B02     		lsls	r3, r3, #8
 1899 001c 1D4A     		ldr	r2, .L130+8
 1900 001e 1278     		ldrb	r2, [r2]	@ zero_extendqisi2
 1901 0020 1343     		orrs	r3, r3, r2
 1902 0022 FB60     		str	r3, [r7, #12]
 419:mis.c         ****         result -= (capture_4_timestampTimer[1]<<8) | (0xFF & capture_4_Timestamp_hw[1]); /* timesta
 1903              		.loc 1 419 0
 1904 0024 1A4B     		ldr	r3, .L130+4
 1905 0026 5B68     		ldr	r3, [r3, #4]
 1906 0028 1B02     		lsls	r3, r3, #8
 1907 002a 1A4A     		ldr	r2, .L130+8
 1908 002c 5278     		ldrb	r2, [r2, #1]	@ zero_extendqisi2
 1909 002e 1343     		orrs	r3, r3, r2
 1910 0030 FA68     		ldr	r2, [r7, #12]
 1911 0032 D31A     		subs	r3, r2, r3
 1912 0034 FB60     		str	r3, [r7, #12]
 1913 0036 23E0     		b	.L127
 1914              	.L126:
 420:mis.c         ****     }
 421:mis.c         ****     else if (capture_4_count == 1)
 1915              		.loc 1 421 0
 1916 0038 144B     		ldr	r3, .L130
ARM GAS  C:\Users\Tomas\AppData\Local\Temp\cc1QFzoE.s 			page 42


 1917 003a 1B68     		ldr	r3, [r3]
 1918 003c 012B     		cmp	r3, #1
 1919 003e 1FD1     		bne	.L127
 1920              	.LBB5:
 422:mis.c         ****     {
 423:mis.c         ****         result  = (capture_4_timestampTimer[0]<<8) | (0xFF & capture_4_Timestamp_hw[0]); /* timesta
 1921              		.loc 1 423 0
 1922 0040 134B     		ldr	r3, .L130+4
 1923 0042 1B68     		ldr	r3, [r3]
 1924 0044 1B02     		lsls	r3, r3, #8
 1925 0046 134A     		ldr	r2, .L130+8
 1926 0048 1278     		ldrb	r2, [r2]	@ zero_extendqisi2
 1927 004a 1343     		orrs	r3, r3, r2
 1928 004c FB60     		str	r3, [r7, #12]
 424:mis.c         ****         uint8 hw_old;
 425:mis.c         ****         uint8 hw_new;
 426:mis.c         ****         hw_old = Timestamp_ReadCounter();
 1929              		.loc 1 426 0
 1930 004e FFF7FEFF 		bl	Timestamp_ReadCounter
 1931 0052 0346     		mov	r3, r0
 1932 0054 FB71     		strb	r3, [r7, #7]
 427:mis.c         ****         cur_timestampTimer = timestampTimer;
 1933              		.loc 1 427 0
 1934 0056 104B     		ldr	r3, .L130+12
 1935 0058 1B68     		ldr	r3, [r3]
 1936 005a BB60     		str	r3, [r7, #8]
 428:mis.c         ****         hw_new = Timestamp_ReadCounter();
 1937              		.loc 1 428 0
 1938 005c FFF7FEFF 		bl	Timestamp_ReadCounter
 1939 0060 0346     		mov	r3, r0
 1940 0062 BB71     		strb	r3, [r7, #6]
 429:mis.c         ****         if (hw_new > hw_old)
 1941              		.loc 1 429 0
 1942 0064 BA79     		ldrb	r2, [r7, #6]	@ zero_extendqisi2
 1943 0066 FB79     		ldrb	r3, [r7, #7]	@ zero_extendqisi2
 1944 0068 9A42     		cmp	r2, r3
 1945 006a 02D9     		bls	.L128
 430:mis.c         ****         {
 431:mis.c         ****             //hardware overflow
 432:mis.c         ****             cur_timestampTimer--;
 1946              		.loc 1 432 0
 1947 006c BB68     		ldr	r3, [r7, #8]
 1948 006e 013B     		subs	r3, r3, #1
 1949 0070 BB60     		str	r3, [r7, #8]
 1950              	.L128:
 433:mis.c         ****         }
 434:mis.c         ****         result -= (cur_timestampTimer<<8) | (0xFF & hw_new); /* timestampTimerStop  */
 1951              		.loc 1 434 0
 1952 0072 BB68     		ldr	r3, [r7, #8]
 1953 0074 1A02     		lsls	r2, r3, #8
 1954 0076 BB79     		ldrb	r3, [r7, #6]	@ zero_extendqisi2
 1955 0078 1343     		orrs	r3, r3, r2
 1956 007a FA68     		ldr	r2, [r7, #12]
 1957 007c D31A     		subs	r3, r2, r3
 1958 007e FB60     		str	r3, [r7, #12]
 1959              	.L127:
 1960              	.LBE5:
ARM GAS  C:\Users\Tomas\AppData\Local\Temp\cc1QFzoE.s 			page 43


 435:mis.c         ****     }
 436:mis.c         ****     return result;
 1961              		.loc 1 436 0
 1962 0080 FB68     		ldr	r3, [r7, #12]
 437:mis.c         **** }
 1963              		.loc 1 437 0
 1964 0082 1846     		mov	r0, r3
 1965 0084 1037     		adds	r7, r7, #16
 1966              		.cfi_def_cfa_offset 8
 1967 0086 BD46     		mov	sp, r7
 1968              		.cfi_def_cfa_register 13
 1969              		@ sp needed
 1970 0088 80BD     		pop	{r7, pc}
 1971              	.L131:
 1972 008a 00BF     		.align	2
 1973              	.L130:
 1974 008c 00000000 		.word	capture_4_count
 1975 0090 00000000 		.word	capture_4_timestampTimer
 1976 0094 00000000 		.word	capture_4_Timestamp_hw
 1977 0098 00000000 		.word	timestampTimer
 1978              		.cfi_endproc
 1979              	.LFE93:
 1980              		.size	MIS4_ReadCurTime, .-MIS4_ReadCurTime
 1981              		.section	.text.MIS4_SetBurstTimeout,"ax",%progbits
 1982              		.align	2
 1983              		.global	MIS4_SetBurstTimeout
 1984              		.thumb
 1985              		.thumb_func
 1986              		.type	MIS4_SetBurstTimeout, %function
 1987              	MIS4_SetBurstTimeout:
 1988              	.LFB94:
 438:mis.c         **** 
 439:mis.c         **** void MIS4_SetBurstTimeout(uint32 t)
 440:mis.c         **** {
 1989              		.loc 1 440 0
 1990              		.cfi_startproc
 1991              		@ args = 0, pretend = 0, frame = 8
 1992              		@ frame_needed = 1, uses_anonymous_args = 0
 1993 0000 80B5     		push	{r7, lr}
 1994              		.cfi_def_cfa_offset 8
 1995              		.cfi_offset 7, -8
 1996              		.cfi_offset 14, -4
 1997 0002 82B0     		sub	sp, sp, #8
 1998              		.cfi_def_cfa_offset 16
 1999 0004 00AF     		add	r7, sp, #0
 2000              		.cfi_def_cfa_register 7
 2001 0006 7860     		str	r0, [r7, #4]
 441:mis.c         ****     BurstTimeout_4_WritePeriod(t);
 2002              		.loc 1 441 0
 2003 0008 7B68     		ldr	r3, [r7, #4]
 2004 000a 9BB2     		uxth	r3, r3
 2005 000c 1846     		mov	r0, r3
 2006 000e FFF7FEFF 		bl	BurstTimeout_4_WritePeriod
 442:mis.c         **** }
 2007              		.loc 1 442 0
 2008 0012 00BF     		nop
 2009 0014 0837     		adds	r7, r7, #8
ARM GAS  C:\Users\Tomas\AppData\Local\Temp\cc1QFzoE.s 			page 44


 2010              		.cfi_def_cfa_offset 8
 2011 0016 BD46     		mov	sp, r7
 2012              		.cfi_def_cfa_register 13
 2013              		@ sp needed
 2014 0018 80BD     		pop	{r7, pc}
 2015              		.cfi_endproc
 2016              	.LFE94:
 2017              		.size	MIS4_SetBurstTimeout, .-MIS4_SetBurstTimeout
 2018 001a 00BF     		.section	.text.MIS4_WaitPacket,"ax",%progbits
 2019              		.align	2
 2020              		.global	MIS4_WaitPacket
 2021              		.thumb
 2022              		.thumb_func
 2023              		.type	MIS4_WaitPacket, %function
 2024              	MIS4_WaitPacket:
 2025              	.LFB95:
 443:mis.c         **** 
 444:mis.c         **** int MIS4_WaitPacket(void)
 445:mis.c         **** {
 2026              		.loc 1 445 0
 2027              		.cfi_startproc
 2028              		@ args = 0, pretend = 0, frame = 0
 2029              		@ frame_needed = 1, uses_anonymous_args = 0
 2030 0000 80B5     		push	{r7, lr}
 2031              		.cfi_def_cfa_offset 8
 2032              		.cfi_offset 7, -8
 2033              		.cfi_offset 14, -4
 2034 0002 00AF     		add	r7, sp, #0
 2035              		.cfi_def_cfa_register 7
 446:mis.c         ****     while (0 == (4 & MIS_Stat_Read()));
 2036              		.loc 1 446 0
 2037 0004 00BF     		nop
 2038              	.L134:
 2039              		.loc 1 446 0 is_stmt 0 discriminator 1
 2040 0006 FFF7FEFF 		bl	MIS_Stat_Read
 2041 000a 0346     		mov	r3, r0
 2042 000c 03F00403 		and	r3, r3, #4
 2043 0010 DBB2     		uxtb	r3, r3
 2044 0012 002B     		cmp	r3, #0
 2045 0014 F7D0     		beq	.L134
 447:mis.c         ****     return 0;
 2046              		.loc 1 447 0 is_stmt 1
 2047 0016 0023     		movs	r3, #0
 448:mis.c         **** }
 2048              		.loc 1 448 0
 2049 0018 1846     		mov	r0, r3
 2050 001a 80BD     		pop	{r7, pc}
 2051              		.cfi_endproc
 2052              	.LFE95:
 2053              		.size	MIS4_WaitPacket, .-MIS4_WaitPacket
 2054              		.section	.text.MIS4_Measure,"ax",%progbits
 2055              		.align	2
 2056              		.global	MIS4_Measure
 2057              		.thumb
 2058              		.thumb_func
 2059              		.type	MIS4_Measure, %function
 2060              	MIS4_Measure:
ARM GAS  C:\Users\Tomas\AppData\Local\Temp\cc1QFzoE.s 			page 45


 2061              	.LFB96:
 449:mis.c         **** 
 450:mis.c         **** int MIS4_Measure(uint32 time_ms)
 451:mis.c         **** {
 2062              		.loc 1 451 0
 2063              		.cfi_startproc
 2064              		@ args = 0, pretend = 0, frame = 16
 2065              		@ frame_needed = 1, uses_anonymous_args = 0
 2066 0000 80B5     		push	{r7, lr}
 2067              		.cfi_def_cfa_offset 8
 2068              		.cfi_offset 7, -8
 2069              		.cfi_offset 14, -4
 2070 0002 84B0     		sub	sp, sp, #16
 2071              		.cfi_def_cfa_offset 24
 2072 0004 00AF     		add	r7, sp, #0
 2073              		.cfi_def_cfa_register 7
 2074 0006 7860     		str	r0, [r7, #4]
 452:mis.c         ****     int result;
 453:mis.c         ****     
 454:mis.c         ****     MIS_Start();
 2075              		.loc 1 454 0
 2076 0008 FFF7FEFF 		bl	MIS_Start
 455:mis.c         ****     
 456:mis.c         ****     result = MIS4_WaitPacket();
 2077              		.loc 1 456 0
 2078 000c FFF7FEFF 		bl	MIS4_WaitPacket
 2079 0010 F860     		str	r0, [r7, #12]
 457:mis.c         ****     if (0 != result) return result;
 2080              		.loc 1 457 0
 2081 0012 FB68     		ldr	r3, [r7, #12]
 2082 0014 002B     		cmp	r3, #0
 2083 0016 01D0     		beq	.L137
 2084              		.loc 1 457 0 is_stmt 0 discriminator 1
 2085 0018 FB68     		ldr	r3, [r7, #12]
 2086 001a 0DE0     		b	.L138
 2087              	.L137:
 458:mis.c         ****     
 459:mis.c         ****     CyDelay(time_ms);
 2088              		.loc 1 459 0 is_stmt 1
 2089 001c 7868     		ldr	r0, [r7, #4]
 2090 001e FFF7FEFF 		bl	CyDelay
 460:mis.c         ****     
 461:mis.c         ****     MIS_Stop();
 2091              		.loc 1 461 0
 2092 0022 FFF7FEFF 		bl	MIS_Stop
 462:mis.c         ****     result = MIS4_WaitPacket();
 2093              		.loc 1 462 0
 2094 0026 FFF7FEFF 		bl	MIS4_WaitPacket
 2095 002a F860     		str	r0, [r7, #12]
 463:mis.c         ****     if (0 != result) return result;
 2096              		.loc 1 463 0
 2097 002c FB68     		ldr	r3, [r7, #12]
 2098 002e 002B     		cmp	r3, #0
 2099 0030 01D0     		beq	.L139
 2100              		.loc 1 463 0 is_stmt 0 discriminator 1
 2101 0032 FB68     		ldr	r3, [r7, #12]
 2102 0034 00E0     		b	.L138
ARM GAS  C:\Users\Tomas\AppData\Local\Temp\cc1QFzoE.s 			page 46


 2103              	.L139:
 464:mis.c         ****     
 465:mis.c         ****     return result;
 2104              		.loc 1 465 0 is_stmt 1
 2105 0036 FB68     		ldr	r3, [r7, #12]
 2106              	.L138:
 466:mis.c         **** }
 2107              		.loc 1 466 0
 2108 0038 1846     		mov	r0, r3
 2109 003a 1037     		adds	r7, r7, #16
 2110              		.cfi_def_cfa_offset 8
 2111 003c BD46     		mov	sp, r7
 2112              		.cfi_def_cfa_register 13
 2113              		@ sp needed
 2114 003e 80BD     		pop	{r7, pc}
 2115              		.cfi_endproc
 2116              	.LFE96:
 2117              		.size	MIS4_Measure, .-MIS4_Measure
 2118              		.section	.text.MIS_Start,"ax",%progbits
 2119              		.align	2
 2120              		.global	MIS_Start
 2121              		.thumb
 2122              		.thumb_func
 2123              		.type	MIS_Start, %function
 2124              	MIS_Start:
 2125              	.LFB97:
 467:mis.c         **** 
 468:mis.c         **** /******************************************************************************
 469:mis.c         **** *******************************************************************************/
 470:mis.c         **** 
 471:mis.c         **** 
 472:mis.c         **** /******************************************************************************
 473:mis.c         **** * Project Name		: MIS
 474:mis.c         **** *******************************************************************************/
 475:mis.c         **** 
 476:mis.c         **** #define MIS_RST0 (1)
 477:mis.c         **** #define MIS_RST  (2)
 478:mis.c         **** #define MIS_CTRL (4)
 479:mis.c         **** 
 480:mis.c         **** 
 481:mis.c         **** void MIS_Start(void)
 482:mis.c         **** {
 2126              		.loc 1 482 0
 2127              		.cfi_startproc
 2128              		@ args = 0, pretend = 0, frame = 16
 2129              		@ frame_needed = 1, uses_anonymous_args = 0
 2130 0000 80B5     		push	{r7, lr}
 2131              		.cfi_def_cfa_offset 8
 2132              		.cfi_offset 7, -8
 2133              		.cfi_offset 14, -4
 2134 0002 84B0     		sub	sp, sp, #16
 2135              		.cfi_def_cfa_offset 24
 2136 0004 00AF     		add	r7, sp, #0
 2137              		.cfi_def_cfa_register 7
 483:mis.c         ****     MIS_Reg_Write(MIS_RST0 + MIS_RST);
 2138              		.loc 1 483 0
 2139 0006 0320     		movs	r0, #3
ARM GAS  C:\Users\Tomas\AppData\Local\Temp\cc1QFzoE.s 			page 47


 2140 0008 FFF7FEFF 		bl	MIS_Reg_Write
 484:mis.c         ****     CyDelay(1);
 2141              		.loc 1 484 0
 2142 000c 0120     		movs	r0, #1
 2143 000e FFF7FEFF 		bl	CyDelay
 485:mis.c         ****     capture_1_count=capture_2_count=capture_3_count=capture_4_count=0;
 2144              		.loc 1 485 0
 2145 0012 1F4B     		ldr	r3, .L141
 2146 0014 0022     		movs	r2, #0
 2147 0016 1A60     		str	r2, [r3]
 2148 0018 1D4B     		ldr	r3, .L141
 2149 001a 1B68     		ldr	r3, [r3]
 2150 001c 1D4A     		ldr	r2, .L141+4
 2151 001e 1360     		str	r3, [r2]
 2152 0020 1C4B     		ldr	r3, .L141+4
 2153 0022 1B68     		ldr	r3, [r3]
 2154 0024 1C4A     		ldr	r2, .L141+8
 2155 0026 1360     		str	r3, [r2]
 2156 0028 1B4B     		ldr	r3, .L141+8
 2157 002a 1B68     		ldr	r3, [r3]
 2158 002c 1B4A     		ldr	r2, .L141+12
 2159 002e 1360     		str	r3, [r2]
 486:mis.c         ****     PulseCounter_1_WriteCounter(0);
 2160              		.loc 1 486 0
 2161 0030 0020     		movs	r0, #0
 2162 0032 FFF7FEFF 		bl	PulseCounter_1_WriteCounter
 487:mis.c         ****     PulseCounter_2_WriteCounter(0);
 2163              		.loc 1 487 0
 2164 0036 0020     		movs	r0, #0
 2165 0038 FFF7FEFF 		bl	PulseCounter_2_WriteCounter
 488:mis.c         ****     PulseCounter_3_WriteCounter(0);
 2166              		.loc 1 488 0
 2167 003c 0020     		movs	r0, #0
 2168 003e FFF7FEFF 		bl	PulseCounter_3_WriteCounter
 489:mis.c         ****     PulseCounter_4_WriteCounter(0);
 2169              		.loc 1 489 0
 2170 0042 0020     		movs	r0, #0
 2171 0044 FFF7FEFF 		bl	PulseCounter_4_WriteCounter
 490:mis.c         ****     pulseCounter1 = pulseCounter2 = pulseCounter3 = pulseCounter4 = 0;
 2172              		.loc 1 490 0
 2173 0048 154B     		ldr	r3, .L141+16
 2174 004a 0022     		movs	r2, #0
 2175 004c 1A60     		str	r2, [r3]
 2176 004e 144B     		ldr	r3, .L141+16
 2177 0050 1B68     		ldr	r3, [r3]
 2178 0052 144A     		ldr	r2, .L141+20
 2179 0054 1360     		str	r3, [r2]
 2180 0056 134B     		ldr	r3, .L141+20
 2181 0058 1B68     		ldr	r3, [r3]
 2182 005a 134A     		ldr	r2, .L141+24
 2183 005c 1360     		str	r3, [r2]
 2184 005e 124B     		ldr	r3, .L141+24
 2185 0060 1B68     		ldr	r3, [r3]
 2186 0062 124A     		ldr	r2, .L141+28
 2187 0064 1360     		str	r3, [r2]
 491:mis.c         ****     uint32 old_MIS1_pulse = 0;
 2188              		.loc 1 491 0
ARM GAS  C:\Users\Tomas\AppData\Local\Temp\cc1QFzoE.s 			page 48


 2189 0066 0023     		movs	r3, #0
 2190 0068 FB60     		str	r3, [r7, #12]
 492:mis.c         ****     uint32 old_MIS2_pulse = 0;
 2191              		.loc 1 492 0
 2192 006a 0023     		movs	r3, #0
 2193 006c BB60     		str	r3, [r7, #8]
 493:mis.c         ****     uint32 old_MIS3_pulse = 0;
 2194              		.loc 1 493 0
 2195 006e 0023     		movs	r3, #0
 2196 0070 7B60     		str	r3, [r7, #4]
 494:mis.c         ****     uint32 old_MIS4_pulse = 0;
 2197              		.loc 1 494 0
 2198 0072 0023     		movs	r3, #0
 2199 0074 3B60     		str	r3, [r7]
 495:mis.c         ****     MIS_Reg_Write(0);
 2200              		.loc 1 495 0
 2201 0076 0020     		movs	r0, #0
 2202 0078 FFF7FEFF 		bl	MIS_Reg_Write
 496:mis.c         ****     QuadDec_1_SetCounter(0);
 2203              		.loc 1 496 0
 2204 007c 0020     		movs	r0, #0
 2205 007e FFF7FEFF 		bl	QuadDec_1_SetCounter
 497:mis.c         ****     QuadDec_2_SetCounter(0);
 2206              		.loc 1 497 0
 2207 0082 0020     		movs	r0, #0
 2208 0084 FFF7FEFF 		bl	QuadDec_2_SetCounter
 498:mis.c         **** }
 2209              		.loc 1 498 0
 2210 0088 00BF     		nop
 2211 008a 1037     		adds	r7, r7, #16
 2212              		.cfi_def_cfa_offset 8
 2213 008c BD46     		mov	sp, r7
 2214              		.cfi_def_cfa_register 13
 2215              		@ sp needed
 2216 008e 80BD     		pop	{r7, pc}
 2217              	.L142:
 2218              		.align	2
 2219              	.L141:
 2220 0090 00000000 		.word	capture_4_count
 2221 0094 00000000 		.word	capture_3_count
 2222 0098 00000000 		.word	capture_2_count
 2223 009c 00000000 		.word	capture_1_count
 2224 00a0 00000000 		.word	pulseCounter4
 2225 00a4 00000000 		.word	pulseCounter3
 2226 00a8 00000000 		.word	pulseCounter2
 2227 00ac 00000000 		.word	pulseCounter1
 2228              		.cfi_endproc
 2229              	.LFE97:
 2230              		.size	MIS_Start, .-MIS_Start
 2231              		.section	.text.MIS_Stop,"ax",%progbits
 2232              		.align	2
 2233              		.global	MIS_Stop
 2234              		.thumb
 2235              		.thumb_func
 2236              		.type	MIS_Stop, %function
 2237              	MIS_Stop:
 2238              	.LFB98:
ARM GAS  C:\Users\Tomas\AppData\Local\Temp\cc1QFzoE.s 			page 49


 499:mis.c         **** 
 500:mis.c         **** void MIS_Stop(void)
 501:mis.c         **** {
 2239              		.loc 1 501 0
 2240              		.cfi_startproc
 2241              		@ args = 0, pretend = 0, frame = 0
 2242              		@ frame_needed = 1, uses_anonymous_args = 0
 2243 0000 80B5     		push	{r7, lr}
 2244              		.cfi_def_cfa_offset 8
 2245              		.cfi_offset 7, -8
 2246              		.cfi_offset 14, -4
 2247 0002 00AF     		add	r7, sp, #0
 2248              		.cfi_def_cfa_register 7
 502:mis.c         ****     MIS_Reg_Write(MIS_RST);
 2249              		.loc 1 502 0
 2250 0004 0220     		movs	r0, #2
 2251 0006 FFF7FEFF 		bl	MIS_Reg_Write
 503:mis.c         ****     CyDelay(1);
 2252              		.loc 1 503 0
 2253 000a 0120     		movs	r0, #1
 2254 000c FFF7FEFF 		bl	CyDelay
 504:mis.c         ****     MIS_Reg_Write(MIS_RST + MIS_CTRL);
 2255              		.loc 1 504 0
 2256 0010 0620     		movs	r0, #6
 2257 0012 FFF7FEFF 		bl	MIS_Reg_Write
 505:mis.c         ****     CyDelay(1);
 2258              		.loc 1 505 0
 2259 0016 0120     		movs	r0, #1
 2260 0018 FFF7FEFF 		bl	CyDelay
 506:mis.c         ****     MIS_Reg_Write(MIS_CTRL);
 2261              		.loc 1 506 0
 2262 001c 0420     		movs	r0, #4
 2263 001e FFF7FEFF 		bl	MIS_Reg_Write
 507:mis.c         **** }
 2264              		.loc 1 507 0
 2265 0022 00BF     		nop
 2266 0024 80BD     		pop	{r7, pc}
 2267              		.cfi_endproc
 2268              	.LFE98:
 2269              		.size	MIS_Stop, .-MIS_Stop
 2270 0026 00BF     		.section	.text.MIS_SetPulseTimeout,"ax",%progbits
 2271              		.align	2
 2272              		.global	MIS_SetPulseTimeout
 2273              		.thumb
 2274              		.thumb_func
 2275              		.type	MIS_SetPulseTimeout, %function
 2276              	MIS_SetPulseTimeout:
 2277              	.LFB99:
 508:mis.c         **** 
 509:mis.c         **** void MIS_SetPulseTimeout(uint32 t)
 510:mis.c         **** {
 2278              		.loc 1 510 0
 2279              		.cfi_startproc
 2280              		@ args = 0, pretend = 0, frame = 8
 2281              		@ frame_needed = 1, uses_anonymous_args = 0
 2282 0000 80B5     		push	{r7, lr}
 2283              		.cfi_def_cfa_offset 8
ARM GAS  C:\Users\Tomas\AppData\Local\Temp\cc1QFzoE.s 			page 50


 2284              		.cfi_offset 7, -8
 2285              		.cfi_offset 14, -4
 2286 0002 82B0     		sub	sp, sp, #8
 2287              		.cfi_def_cfa_offset 16
 2288 0004 00AF     		add	r7, sp, #0
 2289              		.cfi_def_cfa_register 7
 2290 0006 7860     		str	r0, [r7, #4]
 511:mis.c         ****     BurstTimeout_1_WritePeriod(t);
 2291              		.loc 1 511 0
 2292 0008 7B68     		ldr	r3, [r7, #4]
 2293 000a 9BB2     		uxth	r3, r3
 2294 000c 1846     		mov	r0, r3
 2295 000e FFF7FEFF 		bl	BurstTimeout_1_WritePeriod
 512:mis.c         ****     BurstTimeout_2_WritePeriod(t);
 2296              		.loc 1 512 0
 2297 0012 7B68     		ldr	r3, [r7, #4]
 2298 0014 9BB2     		uxth	r3, r3
 2299 0016 1846     		mov	r0, r3
 2300 0018 FFF7FEFF 		bl	BurstTimeout_2_WritePeriod
 513:mis.c         ****     BurstTimeout_3_WritePeriod(t);
 2301              		.loc 1 513 0
 2302 001c 7B68     		ldr	r3, [r7, #4]
 2303 001e 9BB2     		uxth	r3, r3
 2304 0020 1846     		mov	r0, r3
 2305 0022 FFF7FEFF 		bl	BurstTimeout_3_WritePeriod
 514:mis.c         ****     BurstTimeout_4_WritePeriod(t);
 2306              		.loc 1 514 0
 2307 0026 7B68     		ldr	r3, [r7, #4]
 2308 0028 9BB2     		uxth	r3, r3
 2309 002a 1846     		mov	r0, r3
 2310 002c FFF7FEFF 		bl	BurstTimeout_4_WritePeriod
 515:mis.c         **** }
 2311              		.loc 1 515 0
 2312 0030 00BF     		nop
 2313 0032 0837     		adds	r7, r7, #8
 2314              		.cfi_def_cfa_offset 8
 2315 0034 BD46     		mov	sp, r7
 2316              		.cfi_def_cfa_register 13
 2317              		@ sp needed
 2318 0036 80BD     		pop	{r7, pc}
 2319              		.cfi_endproc
 2320              	.LFE99:
 2321              		.size	MIS_SetPulseTimeout, .-MIS_SetPulseTimeout
 2322              		.section	.text.MIS_WaitPacket,"ax",%progbits
 2323              		.align	2
 2324              		.global	MIS_WaitPacket
 2325              		.thumb
 2326              		.thumb_func
 2327              		.type	MIS_WaitPacket, %function
 2328              	MIS_WaitPacket:
 2329              	.LFB100:
 516:mis.c         **** 
 517:mis.c         **** int MIS_WaitPacket(void)
 518:mis.c         **** {
 2330              		.loc 1 518 0
 2331              		.cfi_startproc
 2332              		@ args = 0, pretend = 0, frame = 0
ARM GAS  C:\Users\Tomas\AppData\Local\Temp\cc1QFzoE.s 			page 51


 2333              		@ frame_needed = 1, uses_anonymous_args = 0
 2334 0000 80B5     		push	{r7, lr}
 2335              		.cfi_def_cfa_offset 8
 2336              		.cfi_offset 7, -8
 2337              		.cfi_offset 14, -4
 2338 0002 00AF     		add	r7, sp, #0
 2339              		.cfi_def_cfa_register 7
 519:mis.c         ****     while (3 != MIS_Stat_Read());
 2340              		.loc 1 519 0
 2341 0004 00BF     		nop
 2342              	.L146:
 2343              		.loc 1 519 0 is_stmt 0 discriminator 1
 2344 0006 FFF7FEFF 		bl	MIS_Stat_Read
 2345 000a 0346     		mov	r3, r0
 2346 000c 032B     		cmp	r3, #3
 2347 000e FAD1     		bne	.L146
 520:mis.c         ****     return 0;
 2348              		.loc 1 520 0 is_stmt 1
 2349 0010 0023     		movs	r3, #0
 521:mis.c         **** }
 2350              		.loc 1 521 0
 2351 0012 1846     		mov	r0, r3
 2352 0014 80BD     		pop	{r7, pc}
 2353              		.cfi_endproc
 2354              	.LFE100:
 2355              		.size	MIS_WaitPacket, .-MIS_WaitPacket
 2356 0016 00BF     		.section	.text.MIS_Measure,"ax",%progbits
 2357              		.align	2
 2358              		.global	MIS_Measure
 2359              		.thumb
 2360              		.thumb_func
 2361              		.type	MIS_Measure, %function
 2362              	MIS_Measure:
 2363              	.LFB101:
 522:mis.c         **** 
 523:mis.c         **** int MIS_Measure(uint32 time_ms)
 524:mis.c         **** {
 2364              		.loc 1 524 0
 2365              		.cfi_startproc
 2366              		@ args = 0, pretend = 0, frame = 16
 2367              		@ frame_needed = 1, uses_anonymous_args = 0
 2368 0000 80B5     		push	{r7, lr}
 2369              		.cfi_def_cfa_offset 8
 2370              		.cfi_offset 7, -8
 2371              		.cfi_offset 14, -4
 2372 0002 84B0     		sub	sp, sp, #16
 2373              		.cfi_def_cfa_offset 24
 2374 0004 00AF     		add	r7, sp, #0
 2375              		.cfi_def_cfa_register 7
 2376 0006 7860     		str	r0, [r7, #4]
 525:mis.c         ****     int result;
 526:mis.c         ****     
 527:mis.c         ****     MIS_Start();
 2377              		.loc 1 527 0
 2378 0008 FFF7FEFF 		bl	MIS_Start
 528:mis.c         ****     
 529:mis.c         ****     result = MIS_WaitPacket();
ARM GAS  C:\Users\Tomas\AppData\Local\Temp\cc1QFzoE.s 			page 52


 2379              		.loc 1 529 0
 2380 000c FFF7FEFF 		bl	MIS_WaitPacket
 2381 0010 F860     		str	r0, [r7, #12]
 530:mis.c         ****     if (0 != result) return result;
 2382              		.loc 1 530 0
 2383 0012 FB68     		ldr	r3, [r7, #12]
 2384 0014 002B     		cmp	r3, #0
 2385 0016 01D0     		beq	.L149
 2386              		.loc 1 530 0 is_stmt 0 discriminator 1
 2387 0018 FB68     		ldr	r3, [r7, #12]
 2388 001a 0DE0     		b	.L150
 2389              	.L149:
 531:mis.c         ****     
 532:mis.c         ****     CyDelay(time_ms);
 2390              		.loc 1 532 0 is_stmt 1
 2391 001c 7868     		ldr	r0, [r7, #4]
 2392 001e FFF7FEFF 		bl	CyDelay
 533:mis.c         ****     
 534:mis.c         ****     MIS_Stop();
 2393              		.loc 1 534 0
 2394 0022 FFF7FEFF 		bl	MIS_Stop
 535:mis.c         ****     result = MIS_WaitPacket();
 2395              		.loc 1 535 0
 2396 0026 FFF7FEFF 		bl	MIS_WaitPacket
 2397 002a F860     		str	r0, [r7, #12]
 536:mis.c         ****     if (0 != result) return result;
 2398              		.loc 1 536 0
 2399 002c FB68     		ldr	r3, [r7, #12]
 2400 002e 002B     		cmp	r3, #0
 2401 0030 01D0     		beq	.L151
 2402              		.loc 1 536 0 is_stmt 0 discriminator 1
 2403 0032 FB68     		ldr	r3, [r7, #12]
 2404 0034 00E0     		b	.L150
 2405              	.L151:
 537:mis.c         ****     
 538:mis.c         ****     return result;
 2406              		.loc 1 538 0 is_stmt 1
 2407 0036 FB68     		ldr	r3, [r7, #12]
 2408              	.L150:
 539:mis.c         **** }
 2409              		.loc 1 539 0
 2410 0038 1846     		mov	r0, r3
 2411 003a 1037     		adds	r7, r7, #16
 2412              		.cfi_def_cfa_offset 8
 2413 003c BD46     		mov	sp, r7
 2414              		.cfi_def_cfa_register 13
 2415              		@ sp needed
 2416 003e 80BD     		pop	{r7, pc}
 2417              		.cfi_endproc
 2418              	.LFE101:
 2419              		.size	MIS_Measure, .-MIS_Measure
 2420              		.section	.text.MIS_PulseCounterStatus,"ax",%progbits
 2421              		.align	2
 2422              		.global	MIS_PulseCounterStatus
 2423              		.thumb
 2424              		.thumb_func
 2425              		.type	MIS_PulseCounterStatus, %function
ARM GAS  C:\Users\Tomas\AppData\Local\Temp\cc1QFzoE.s 			page 53


 2426              	MIS_PulseCounterStatus:
 2427              	.LFB102:
 540:mis.c         **** 
 541:mis.c         **** int MIS_PulseCounterStatus()
 542:mis.c         **** {   uint8 result;
 2428              		.loc 1 542 0
 2429              		.cfi_startproc
 2430              		@ args = 0, pretend = 0, frame = 8
 2431              		@ frame_needed = 1, uses_anonymous_args = 0
 2432 0000 80B5     		push	{r7, lr}
 2433              		.cfi_def_cfa_offset 8
 2434              		.cfi_offset 7, -8
 2435              		.cfi_offset 14, -4
 2436 0002 82B0     		sub	sp, sp, #8
 2437              		.cfi_def_cfa_offset 16
 2438 0004 00AF     		add	r7, sp, #0
 2439              		.cfi_def_cfa_register 7
 543:mis.c         ****     
 544:mis.c         ****     result = (0xF0u & MIS_Stat_Read());
 2440              		.loc 1 544 0
 2441 0006 FFF7FEFF 		bl	MIS_Stat_Read
 2442 000a 0346     		mov	r3, r0
 2443 000c 23F00F03 		bic	r3, r3, #15
 2444 0010 FB71     		strb	r3, [r7, #7]
 545:mis.c         ****     result = result >> 4;
 2445              		.loc 1 545 0
 2446 0012 FB79     		ldrb	r3, [r7, #7]	@ zero_extendqisi2
 2447 0014 1B09     		lsrs	r3, r3, #4
 2448 0016 FB71     		strb	r3, [r7, #7]
 546:mis.c         ****     return result;
 2449              		.loc 1 546 0
 2450 0018 FB79     		ldrb	r3, [r7, #7]	@ zero_extendqisi2
 547:mis.c         **** }
 2451              		.loc 1 547 0
 2452 001a 1846     		mov	r0, r3
 2453 001c 0837     		adds	r7, r7, #8
 2454              		.cfi_def_cfa_offset 8
 2455 001e BD46     		mov	sp, r7
 2456              		.cfi_def_cfa_register 13
 2457              		@ sp needed
 2458 0020 80BD     		pop	{r7, pc}
 2459              		.cfi_endproc
 2460              	.LFE102:
 2461              		.size	MIS_PulseCounterStatus, .-MIS_PulseCounterStatus
 2462 0022 00BF     		.text
 2463              	.Letext0:
 2464              		.file 2 "c:\\program files (x86)\\cypress\\psoc creator\\4.1\\psoc creator\\import\\gnu\\arm\\5.4.
 2465              		.file 3 "c:\\program files (x86)\\cypress\\psoc creator\\4.1\\psoc creator\\import\\gnu\\arm\\5.4.
 2466              		.file 4 "Generated_Source\\PSoC5/cytypes.h"
 2467              		.file 5 "Generated_Source\\PSoC5/core_cm3.h"