ARM GAS  C:\Users\Tomas\AppData\Local\Temp\cc1QFzoE.s 			page 1


   1              		.syntax unified
   2              		.cpu cortex-m3
   3              		.fpu softvfp
   4              		.eabi_attribute 20, 1
   5              		.eabi_attribute 21, 1
   6              		.eabi_attribute 23, 3
   7              		.eabi_attribute 24, 1
   8              		.eabi_attribute 25, 1
   9              		.eabi_attribute 26, 1
  10              		.eabi_attribute 30, 6
  11              		.eabi_attribute 34, 1
  12              		.eabi_attribute 18, 4
  13              		.thumb
  14              		.syntax unified
  15              		.file	"mis.c"
  16              		.text
  17              	.Ltext0:
  18              		.cfi_sections	.debug_frame
  19              		.comm	PulseCounter_1_Timestamp_hw,4,4
  20              		.global	pulseCounter1
  21              		.bss
  22              		.align	2
  23              		.type	pulseCounter1, %object
  24              		.size	pulseCounter1, 4
  25              	pulseCounter1:
  26 0000 00000000 		.space	4
  27              		.section	.text.isr_PulseCounter_1_handler,"ax",%progbits
  28              		.align	2
  29              		.global	isr_PulseCounter_1_handler
  30              		.thumb
  31              		.thumb_func
  32              		.type	isr_PulseCounter_1_handler, %function
  33              	isr_PulseCounter_1_handler:
  34              	.LFB63:
  35              		.file 1 "mis.c"
   1:mis.c         **** /* ========================================
   2:mis.c         ****  *
   3:mis.c         ****  * Copyright YOUR COMPANY, THE YEAR
   4:mis.c         ****  * All Rights Reserved
   5:mis.c         ****  * UNPUBLISHED, LICENSED SOFTWARE.
   6:mis.c         ****  *
   7:mis.c         ****  * CONFIDENTIAL AND PROPRIETARY INFORMATION
   8:mis.c         ****  * WHICH IS THE PROPERTY OF your company.
   9:mis.c         ****  *
  10:mis.c         ****  * ========================================
  11:mis.c         **** */
  12:mis.c         **** #include <device.h>
  13:mis.c         **** #include "mis.h"
  14:mis.c         **** /******************************************************************************
  15:mis.c         **** * Project Name		: MIS1
  16:mis.c         **** *******************************************************************************/
  17:mis.c         **** 
  18:mis.c         **** 
  19:mis.c         **** 
  20:mis.c         **** uint32 PulseCounter_1_Timestamp_hw;
  21:mis.c         **** uint32 pulseCounter1 = 0;
  22:mis.c         **** CY_ISR(isr_PulseCounter_1_handler)
ARM GAS  C:\Users\Tomas\AppData\Local\Temp\cc1QFzoE.s 			page 2


  23:mis.c         **** {
  36              		.loc 1 23 0
  37              		.cfi_startproc
  38              		@ args = 0, pretend = 0, frame = 0
  39              		@ frame_needed = 1, uses_anonymous_args = 0
  40              		@ link register save eliminated.
  41 0000 80B4     		push	{r7}
  42              		.cfi_def_cfa_offset 4
  43              		.cfi_offset 7, -4
  44 0002 00AF     		add	r7, sp, #0
  45              		.cfi_def_cfa_register 7
  24:mis.c         ****    pulseCounter1++;
  46              		.loc 1 24 0
  47 0004 044B     		ldr	r3, .L2
  48 0006 1B68     		ldr	r3, [r3]
  49 0008 0133     		adds	r3, r3, #1
  50 000a 034A     		ldr	r2, .L2
  51 000c 1360     		str	r3, [r2]
  25:mis.c         ****    //PulseCounter_1_Timestamp_hw = Timestamp_ReadCounter();
  26:mis.c         **** }
  52              		.loc 1 26 0
  53 000e 00BF     		nop
  54 0010 BD46     		mov	sp, r7
  55              		.cfi_def_cfa_register 13
  56              		@ sp needed
  57 0012 80BC     		pop	{r7}
  58              		.cfi_restore 7
  59              		.cfi_def_cfa_offset 0
  60 0014 7047     		bx	lr
  61              	.L3:
  62 0016 00BF     		.align	2
  63              	.L2:
  64 0018 00000000 		.word	pulseCounter1
  65              		.cfi_endproc
  66              	.LFE63:
  67              		.size	isr_PulseCounter_1_handler, .-isr_PulseCounter_1_handler
  68              		.global	timestampTimer
  69              		.bss
  70              		.align	2
  71              		.type	timestampTimer, %object
  72              		.size	timestampTimer, 4
  73              	timestampTimer:
  74 0004 00000000 		.space	4
  75              		.section	.text.isr_Timestamp_handler,"ax",%progbits
  76              		.align	2
  77              		.global	isr_Timestamp_handler
  78              		.thumb
  79              		.thumb_func
  80              		.type	isr_Timestamp_handler, %function
  81              	isr_Timestamp_handler:
  82              	.LFB64:
  27:mis.c         **** 
  28:mis.c         **** 
  29:mis.c         **** uint32 timestampTimer = 0;
  30:mis.c         **** 
  31:mis.c         **** CY_ISR(isr_Timestamp_handler)
  32:mis.c         **** {
ARM GAS  C:\Users\Tomas\AppData\Local\Temp\cc1QFzoE.s 			page 3


  83              		.loc 1 32 0
  84              		.cfi_startproc
  85              		@ args = 0, pretend = 0, frame = 0
  86              		@ frame_needed = 1, uses_anonymous_args = 0
  87              		@ link register save eliminated.
  88 0000 80B4     		push	{r7}
  89              		.cfi_def_cfa_offset 4
  90              		.cfi_offset 7, -4
  91 0002 00AF     		add	r7, sp, #0
  92              		.cfi_def_cfa_register 7
  33:mis.c         ****   timestampTimer--;
  93              		.loc 1 33 0
  94 0004 044B     		ldr	r3, .L5
  95 0006 1B68     		ldr	r3, [r3]
  96 0008 013B     		subs	r3, r3, #1
  97 000a 034A     		ldr	r2, .L5
  98 000c 1360     		str	r3, [r2]
  34:mis.c         **** }
  99              		.loc 1 34 0
 100 000e 00BF     		nop
 101 0010 BD46     		mov	sp, r7
 102              		.cfi_def_cfa_register 13
 103              		@ sp needed
 104 0012 80BC     		pop	{r7}
 105              		.cfi_restore 7
 106              		.cfi_def_cfa_offset 0
 107 0014 7047     		bx	lr
 108              	.L6:
 109 0016 00BF     		.align	2
 110              	.L5:
 111 0018 00000000 		.word	timestampTimer
 112              		.cfi_endproc
 113              	.LFE64:
 114              		.size	isr_Timestamp_handler, .-isr_Timestamp_handler
 115              		.comm	capture_1_count,4,4
 116              		.comm	capture_1_timestampTimer,8,4
 117              		.comm	capture_1_Timestamp_hw,2,4
 118              		.section	.text.isr_Capture_1,"ax",%progbits
 119              		.align	2
 120              		.global	isr_Capture_1
 121              		.thumb
 122              		.thumb_func
 123              		.type	isr_Capture_1, %function
 124              	isr_Capture_1:
 125              	.LFB65:
  35:mis.c         **** 
  36:mis.c         **** uint32 capture_1_count;
  37:mis.c         **** uint32 capture_1_timestampTimer[2];
  38:mis.c         **** uint8  capture_1_Timestamp_hw[2];
  39:mis.c         **** 
  40:mis.c         **** CY_ISR(isr_Capture_1)
  41:mis.c         **** {
 126              		.loc 1 41 0
 127              		.cfi_startproc
 128              		@ args = 0, pretend = 0, frame = 8
 129              		@ frame_needed = 1, uses_anonymous_args = 0
 130 0000 80B5     		push	{r7, lr}
ARM GAS  C:\Users\Tomas\AppData\Local\Temp\cc1QFzoE.s 			page 4


 131              		.cfi_def_cfa_offset 8
 132              		.cfi_offset 7, -8
 133              		.cfi_offset 14, -4
 134 0002 82B0     		sub	sp, sp, #8
 135              		.cfi_def_cfa_offset 16
 136 0004 00AF     		add	r7, sp, #0
 137              		.cfi_def_cfa_register 7
  42:mis.c         ****     uint32 hw_old;
  43:mis.c         ****     uint32 hw_new;
  44:mis.c         ****     if (capture_1_count < sizeof(capture_1_Timestamp_hw))
 138              		.loc 1 44 0
 139 0006 174B     		ldr	r3, .L11
 140 0008 1B68     		ldr	r3, [r3]
 141 000a 012B     		cmp	r3, #1
 142 000c 26D8     		bhi	.L10
  45:mis.c         ****     {   
  46:mis.c         ****         hw_old = Timestamp_ReadCounter();
 143              		.loc 1 46 0
 144 000e FFF7FEFF 		bl	Timestamp_ReadCounter
 145 0012 0346     		mov	r3, r0
 146 0014 7B60     		str	r3, [r7, #4]
  47:mis.c         ****         capture_1_timestampTimer[capture_1_count] = timestampTimer;
 147              		.loc 1 47 0
 148 0016 134B     		ldr	r3, .L11
 149 0018 1B68     		ldr	r3, [r3]
 150 001a 134A     		ldr	r2, .L11+4
 151 001c 1268     		ldr	r2, [r2]
 152 001e 1349     		ldr	r1, .L11+8
 153 0020 41F82320 		str	r2, [r1, r3, lsl #2]
  48:mis.c         ****         hw_new = Timestamp_ReadCounter();
 154              		.loc 1 48 0
 155 0024 FFF7FEFF 		bl	Timestamp_ReadCounter
 156 0028 0346     		mov	r3, r0
 157 002a 3B60     		str	r3, [r7]
  49:mis.c         ****         if (hw_new > hw_old)
 158              		.loc 1 49 0
 159 002c 3A68     		ldr	r2, [r7]
 160 002e 7B68     		ldr	r3, [r7, #4]
 161 0030 9A42     		cmp	r2, r3
 162 0032 08D9     		bls	.L9
  50:mis.c         ****         {
  51:mis.c         ****             //hardware overflow
  52:mis.c         ****             capture_1_timestampTimer[capture_1_count]--;
 163              		.loc 1 52 0
 164 0034 0B4B     		ldr	r3, .L11
 165 0036 1B68     		ldr	r3, [r3]
 166 0038 0C4A     		ldr	r2, .L11+8
 167 003a 52F82320 		ldr	r2, [r2, r3, lsl #2]
 168 003e 013A     		subs	r2, r2, #1
 169 0040 0A49     		ldr	r1, .L11+8
 170 0042 41F82320 		str	r2, [r1, r3, lsl #2]
 171              	.L9:
  53:mis.c         ****         }
  54:mis.c         ****         capture_1_Timestamp_hw[capture_1_count] = hw_new;
 172              		.loc 1 54 0
 173 0046 074B     		ldr	r3, .L11
 174 0048 1B68     		ldr	r3, [r3]
ARM GAS  C:\Users\Tomas\AppData\Local\Temp\cc1QFzoE.s 			page 5


 175 004a 3A68     		ldr	r2, [r7]
 176 004c D1B2     		uxtb	r1, r2
 177 004e 084A     		ldr	r2, .L11+12
 178 0050 D154     		strb	r1, [r2, r3]
  55:mis.c         ****         capture_1_count++;
 179              		.loc 1 55 0
 180 0052 044B     		ldr	r3, .L11
 181 0054 1B68     		ldr	r3, [r3]
 182 0056 0133     		adds	r3, r3, #1
 183 0058 024A     		ldr	r2, .L11
 184 005a 1360     		str	r3, [r2]
 185              	.L10:
  56:mis.c         ****     }
  57:mis.c         ****     
  58:mis.c         ****       
  59:mis.c         **** }
 186              		.loc 1 59 0
 187 005c 00BF     		nop
 188 005e 0837     		adds	r7, r7, #8
 189              		.cfi_def_cfa_offset 8
 190 0060 BD46     		mov	sp, r7
 191              		.cfi_def_cfa_register 13
 192              		@ sp needed
 193 0062 80BD     		pop	{r7, pc}
 194              	.L12:
 195              		.align	2
 196              	.L11:
 197 0064 00000000 		.word	capture_1_count
 198 0068 00000000 		.word	timestampTimer
 199 006c 00000000 		.word	capture_1_timestampTimer
 200 0070 00000000 		.word	capture_1_Timestamp_hw
 201              		.cfi_endproc
 202              	.LFE65:
 203              		.size	isr_Capture_1, .-isr_Capture_1
 204              		.section	.text.MIS1_LastPulseTime,"ax",%progbits
 205              		.align	2
 206              		.global	MIS1_LastPulseTime
 207              		.thumb
 208              		.thumb_func
 209              		.type	MIS1_LastPulseTime, %function
 210              	MIS1_LastPulseTime:
 211              	.LFB66:
  60:mis.c         **** uint32 MIS1_LastPulseTime(void)
  61:mis.c         **** {
 212              		.loc 1 61 0
 213              		.cfi_startproc
 214              		@ args = 0, pretend = 0, frame = 8
 215              		@ frame_needed = 1, uses_anonymous_args = 0
 216              		@ link register save eliminated.
 217 0000 80B4     		push	{r7}
 218              		.cfi_def_cfa_offset 4
 219              		.cfi_offset 7, -4
 220 0002 83B0     		sub	sp, sp, #12
 221              		.cfi_def_cfa_offset 16
 222 0004 00AF     		add	r7, sp, #0
 223              		.cfi_def_cfa_register 7
  62:mis.c         ****     uint32 result = 0;
ARM GAS  C:\Users\Tomas\AppData\Local\Temp\cc1QFzoE.s 			page 6


 224              		.loc 1 62 0
 225 0006 0023     		movs	r3, #0
 226 0008 7B60     		str	r3, [r7, #4]
  63:mis.c         ****     
  64:mis.c         ****         result  = (capture_1_timestampTimer[0]<<8) | (0xFF & capture_1_Timestamp_hw[0]); /* timesta
 227              		.loc 1 64 0
 228 000a 0B4B     		ldr	r3, .L15
 229 000c 1B68     		ldr	r3, [r3]
 230 000e 1B02     		lsls	r3, r3, #8
 231 0010 0A4A     		ldr	r2, .L15+4
 232 0012 1278     		ldrb	r2, [r2]	@ zero_extendqisi2
 233 0014 1343     		orrs	r3, r3, r2
 234 0016 7B60     		str	r3, [r7, #4]
  65:mis.c         ****         result -= (PulseCounter_1_Timestamp_hw<<8) | (0xFF & PulseCounter_1_Timestamp_hw); /* times
 235              		.loc 1 65 0
 236 0018 094B     		ldr	r3, .L15+8
 237 001a 1B68     		ldr	r3, [r3]
 238 001c 1A02     		lsls	r2, r3, #8
 239 001e 084B     		ldr	r3, .L15+8
 240 0020 1B68     		ldr	r3, [r3]
 241 0022 DBB2     		uxtb	r3, r3
 242 0024 1343     		orrs	r3, r3, r2
 243 0026 7A68     		ldr	r2, [r7, #4]
 244 0028 D31A     		subs	r3, r2, r3
 245 002a 7B60     		str	r3, [r7, #4]
  66:mis.c         ****     
  67:mis.c         ****     return result;
 246              		.loc 1 67 0
 247 002c 7B68     		ldr	r3, [r7, #4]
  68:mis.c         **** }
 248              		.loc 1 68 0
 249 002e 1846     		mov	r0, r3
 250 0030 0C37     		adds	r7, r7, #12
 251              		.cfi_def_cfa_offset 4
 252 0032 BD46     		mov	sp, r7
 253              		.cfi_def_cfa_register 13
 254              		@ sp needed
 255 0034 80BC     		pop	{r7}
 256              		.cfi_restore 7
 257              		.cfi_def_cfa_offset 0
 258 0036 7047     		bx	lr
 259              	.L16:
 260              		.align	2
 261              	.L15:
 262 0038 00000000 		.word	capture_1_timestampTimer
 263 003c 00000000 		.word	capture_1_Timestamp_hw
 264 0040 00000000 		.word	PulseCounter_1_Timestamp_hw
 265              		.cfi_endproc
 266              	.LFE66:
 267              		.size	MIS1_LastPulseTime, .-MIS1_LastPulseTime
 268              		.section	.text.MIS1_ReadCount,"ax",%progbits
 269              		.align	2
 270              		.global	MIS1_ReadCount
 271              		.thumb
 272              		.thumb_func
 273              		.type	MIS1_ReadCount, %function
 274              	MIS1_ReadCount:
ARM GAS  C:\Users\Tomas\AppData\Local\Temp\cc1QFzoE.s 			page 7


 275              	.LFB67:
  69:mis.c         **** 
  70:mis.c         **** 
  71:mis.c         **** uint32 MIS1_ReadCount(void)
  72:mis.c         **** {
 276              		.loc 1 72 0
 277              		.cfi_startproc
 278              		@ args = 0, pretend = 0, frame = 0
 279              		@ frame_needed = 1, uses_anonymous_args = 0
 280 0000 98B5     		push	{r3, r4, r7, lr}
 281              		.cfi_def_cfa_offset 16
 282              		.cfi_offset 3, -16
 283              		.cfi_offset 4, -12
 284              		.cfi_offset 7, -8
 285              		.cfi_offset 14, -4
 286 0002 00AF     		add	r7, sp, #0
 287              		.cfi_def_cfa_register 7
  73:mis.c         ****     return (pulseCounter1<<7) | (0x7F & PulseCounter_1_ReadCounter());
 288              		.loc 1 73 0
 289 0004 054B     		ldr	r3, .L19
 290 0006 1B68     		ldr	r3, [r3]
 291 0008 DC01     		lsls	r4, r3, #7
 292 000a FFF7FEFF 		bl	PulseCounter_1_ReadCounter
 293 000e 0346     		mov	r3, r0
 294 0010 03F07F03 		and	r3, r3, #127
 295 0014 2343     		orrs	r3, r3, r4
  74:mis.c         ****      
  75:mis.c         **** }
 296              		.loc 1 75 0
 297 0016 1846     		mov	r0, r3
 298 0018 98BD     		pop	{r3, r4, r7, pc}
 299              	.L20:
 300 001a 00BF     		.align	2
 301              	.L19:
 302 001c 00000000 		.word	pulseCounter1
 303              		.cfi_endproc
 304              	.LFE67:
 305              		.size	MIS1_ReadCount, .-MIS1_ReadCount
 306              		.section	.text.MIS1_ReadTotTime,"ax",%progbits
 307              		.align	2
 308              		.global	MIS1_ReadTotTime
 309              		.thumb
 310              		.thumb_func
 311              		.type	MIS1_ReadTotTime, %function
 312              	MIS1_ReadTotTime:
 313              	.LFB68:
  76:mis.c         **** 
  77:mis.c         **** uint32 MIS1_ReadTotTime(void)
  78:mis.c         **** {
 314              		.loc 1 78 0
 315              		.cfi_startproc
 316              		@ args = 0, pretend = 0, frame = 8
 317              		@ frame_needed = 1, uses_anonymous_args = 0
 318              		@ link register save eliminated.
 319 0000 80B4     		push	{r7}
 320              		.cfi_def_cfa_offset 4
 321              		.cfi_offset 7, -4
ARM GAS  C:\Users\Tomas\AppData\Local\Temp\cc1QFzoE.s 			page 8


 322 0002 83B0     		sub	sp, sp, #12
 323              		.cfi_def_cfa_offset 16
 324 0004 00AF     		add	r7, sp, #0
 325              		.cfi_def_cfa_register 7
  79:mis.c         ****     uint32 result = 0;
 326              		.loc 1 79 0
 327 0006 0023     		movs	r3, #0
 328 0008 7B60     		str	r3, [r7, #4]
  80:mis.c         ****     if (capture_1_count == 2)
 329              		.loc 1 80 0
 330 000a 0D4B     		ldr	r3, .L24
 331 000c 1B68     		ldr	r3, [r3]
 332 000e 022B     		cmp	r3, #2
 333 0010 0FD1     		bne	.L22
  81:mis.c         ****     {
  82:mis.c         ****         result  = (capture_1_timestampTimer[0]<<8) | (0xFF & capture_1_Timestamp_hw[0]); /* timesta
 334              		.loc 1 82 0
 335 0012 0C4B     		ldr	r3, .L24+4
 336 0014 1B68     		ldr	r3, [r3]
 337 0016 1B02     		lsls	r3, r3, #8
 338 0018 0B4A     		ldr	r2, .L24+8
 339 001a 1278     		ldrb	r2, [r2]	@ zero_extendqisi2
 340 001c 1343     		orrs	r3, r3, r2
 341 001e 7B60     		str	r3, [r7, #4]
  83:mis.c         ****         result -= (capture_1_timestampTimer[1]<<8) | (0xFF & capture_1_Timestamp_hw[1]); /* timesta
 342              		.loc 1 83 0
 343 0020 084B     		ldr	r3, .L24+4
 344 0022 5B68     		ldr	r3, [r3, #4]
 345 0024 1B02     		lsls	r3, r3, #8
 346 0026 084A     		ldr	r2, .L24+8
 347 0028 5278     		ldrb	r2, [r2, #1]	@ zero_extendqisi2
 348 002a 1343     		orrs	r3, r3, r2
 349 002c 7A68     		ldr	r2, [r7, #4]
 350 002e D31A     		subs	r3, r2, r3
 351 0030 7B60     		str	r3, [r7, #4]
 352              	.L22:
  84:mis.c         ****     }
  85:mis.c         ****     return result;
 353              		.loc 1 85 0
 354 0032 7B68     		ldr	r3, [r7, #4]
  86:mis.c         **** }
 355              		.loc 1 86 0
 356 0034 1846     		mov	r0, r3
 357 0036 0C37     		adds	r7, r7, #12
 358              		.cfi_def_cfa_offset 4
 359 0038 BD46     		mov	sp, r7
 360              		.cfi_def_cfa_register 13
 361              		@ sp needed
 362 003a 80BC     		pop	{r7}
 363              		.cfi_restore 7
 364              		.cfi_def_cfa_offset 0
 365 003c 7047     		bx	lr
 366              	.L25:
 367 003e 00BF     		.align	2
 368              	.L24:
 369 0040 00000000 		.word	capture_1_count
 370 0044 00000000 		.word	capture_1_timestampTimer
ARM GAS  C:\Users\Tomas\AppData\Local\Temp\cc1QFzoE.s 			page 9


 371 0048 00000000 		.word	capture_1_Timestamp_hw
 372              		.cfi_endproc
 373              	.LFE68:
 374              		.size	MIS1_ReadTotTime, .-MIS1_ReadTotTime
 375              		.section	.text.MIS1_ReadCurTime,"ax",%progbits
 376              		.align	2
 377              		.global	MIS1_ReadCurTime
 378              		.thumb
 379              		.thumb_func
 380              		.type	MIS1_ReadCurTime, %function
 381              	MIS1_ReadCurTime:
 382              	.LFB69:
  87:mis.c         **** 
  88:mis.c         **** uint32 MIS1_ReadCurTime(void)
  89:mis.c         **** {
 383              		.loc 1 89 0
 384              		.cfi_startproc
 385              		@ args = 0, pretend = 0, frame = 16
 386              		@ frame_needed = 1, uses_anonymous_args = 0
 387 0000 80B5     		push	{r7, lr}
 388              		.cfi_def_cfa_offset 8
 389              		.cfi_offset 7, -8
 390              		.cfi_offset 14, -4
 391 0002 84B0     		sub	sp, sp, #16
 392              		.cfi_def_cfa_offset 24
 393 0004 00AF     		add	r7, sp, #0
 394              		.cfi_def_cfa_register 7
  90:mis.c         ****     uint32 result = 0;
 395              		.loc 1 90 0
 396 0006 0023     		movs	r3, #0
 397 0008 FB60     		str	r3, [r7, #12]
  91:mis.c         ****      uint32 cur_timestampTimer = 0;
 398              		.loc 1 91 0
 399 000a 0023     		movs	r3, #0
 400 000c BB60     		str	r3, [r7, #8]
  92:mis.c         ****     if (capture_1_count == 2)
 401              		.loc 1 92 0
 402 000e 1F4B     		ldr	r3, .L31
 403 0010 1B68     		ldr	r3, [r3]
 404 0012 022B     		cmp	r3, #2
 405 0014 10D1     		bne	.L27
  93:mis.c         ****     {
  94:mis.c         ****         result  = (capture_1_timestampTimer[0]<<8) | (0xFF & capture_1_Timestamp_hw[0]); /* timesta
 406              		.loc 1 94 0
 407 0016 1E4B     		ldr	r3, .L31+4
 408 0018 1B68     		ldr	r3, [r3]
 409 001a 1B02     		lsls	r3, r3, #8
 410 001c 1D4A     		ldr	r2, .L31+8
 411 001e 1278     		ldrb	r2, [r2]	@ zero_extendqisi2
 412 0020 1343     		orrs	r3, r3, r2
 413 0022 FB60     		str	r3, [r7, #12]
  95:mis.c         ****         result -= (capture_1_timestampTimer[1]<<8) | (0xFF & capture_1_Timestamp_hw[1]); /* timesta
 414              		.loc 1 95 0
 415 0024 1A4B     		ldr	r3, .L31+4
 416 0026 5B68     		ldr	r3, [r3, #4]
 417 0028 1B02     		lsls	r3, r3, #8
 418 002a 1A4A     		ldr	r2, .L31+8
ARM GAS  C:\Users\Tomas\AppData\Local\Temp\cc1QFzoE.s 			page 10


 419 002c 5278     		ldrb	r2, [r2, #1]	@ zero_extendqisi2
 420 002e 1343     		orrs	r3, r3, r2
 421 0030 FA68     		ldr	r2, [r7, #12]
 422 0032 D31A     		subs	r3, r2, r3
 423 0034 FB60     		str	r3, [r7, #12]
 424 0036 23E0     		b	.L28
 425              	.L27:
  96:mis.c         ****     }
  97:mis.c         ****     else if (capture_1_count == 1)
 426              		.loc 1 97 0
 427 0038 144B     		ldr	r3, .L31
 428 003a 1B68     		ldr	r3, [r3]
 429 003c 012B     		cmp	r3, #1
 430 003e 1FD1     		bne	.L28
 431              	.LBB2:
  98:mis.c         ****     {
  99:mis.c         ****         result  = (capture_1_timestampTimer[0]<<8) | (0xFF & capture_1_Timestamp_hw[0]); /* timesta
 432              		.loc 1 99 0
 433 0040 134B     		ldr	r3, .L31+4
 434 0042 1B68     		ldr	r3, [r3]
 435 0044 1B02     		lsls	r3, r3, #8
 436 0046 134A     		ldr	r2, .L31+8
 437 0048 1278     		ldrb	r2, [r2]	@ zero_extendqisi2
 438 004a 1343     		orrs	r3, r3, r2
 439 004c FB60     		str	r3, [r7, #12]
 100:mis.c         ****         uint8 hw_old;
 101:mis.c         ****         uint8 hw_new;
 102:mis.c         ****         hw_old = Timestamp_ReadCounter();
 440              		.loc 1 102 0
 441 004e FFF7FEFF 		bl	Timestamp_ReadCounter
 442 0052 0346     		mov	r3, r0
 443 0054 FB71     		strb	r3, [r7, #7]
 103:mis.c         ****         cur_timestampTimer = timestampTimer;
 444              		.loc 1 103 0
 445 0056 104B     		ldr	r3, .L31+12
 446 0058 1B68     		ldr	r3, [r3]
 447 005a BB60     		str	r3, [r7, #8]
 104:mis.c         ****         hw_new = Timestamp_ReadCounter();
 448              		.loc 1 104 0
 449 005c FFF7FEFF 		bl	Timestamp_ReadCounter
 450 0060 0346     		mov	r3, r0
 451 0062 BB71     		strb	r3, [r7, #6]
 105:mis.c         ****         if (hw_new > hw_old)
 452              		.loc 1 105 0
 453 0064 BA79     		ldrb	r2, [r7, #6]	@ zero_extendqisi2
 454 0066 FB79     		ldrb	r3, [r7, #7]	@ zero_extendqisi2
 455 0068 9A42     		cmp	r2, r3
 456 006a 02D9     		bls	.L29
 106:mis.c         ****         {
 107:mis.c         ****             //hardware overflow
 108:mis.c         ****             cur_timestampTimer--;
 457              		.loc 1 108 0
 458 006c BB68     		ldr	r3, [r7, #8]
 459 006e 013B     		subs	r3, r3, #1
 460 0070 BB60     		str	r3, [r7, #8]
 461              	.L29:
 109:mis.c         ****         }
ARM GAS  C:\Users\Tomas\AppData\Local\Temp\cc1QFzoE.s 			page 11


 110:mis.c         ****         result -= (cur_timestampTimer<<8) | (0xFF & hw_new); /* timestampTimerStop  */
 462              		.loc 1 110 0
 463 0072 BB68     		ldr	r3, [r7, #8]
 464 0074 1A02     		lsls	r2, r3, #8
 465 0076 BB79     		ldrb	r3, [r7, #6]	@ zero_extendqisi2
 466 0078 1343     		orrs	r3, r3, r2
 467 007a FA68     		ldr	r2, [r7, #12]
 468 007c D31A     		subs	r3, r2, r3
 469 007e FB60     		str	r3, [r7, #12]
 470              	.L28:
 471              	.LBE2:
 111:mis.c         ****     }
 112:mis.c         ****     return result;
 472              		.loc 1 112 0
 473 0080 FB68     		ldr	r3, [r7, #12]
 113:mis.c         **** }
 474              		.loc 1 113 0
 475 0082 1846     		mov	r0, r3
 476 0084 1037     		adds	r7, r7, #16
 477              		.cfi_def_cfa_offset 8
 478 0086 BD46     		mov	sp, r7
 479              		.cfi_def_cfa_register 13
 480              		@ sp needed
 481 0088 80BD     		pop	{r7, pc}
 482              	.L32:
 483 008a 00BF     		.align	2
 484              	.L31:
 485 008c 00000000 		.word	capture_1_count
 486 0090 00000000 		.word	capture_1_timestampTimer
 487 0094 00000000 		.word	capture_1_Timestamp_hw
 488 0098 00000000 		.word	timestampTimer
 489              		.cfi_endproc
 490              	.LFE69:
 491              		.size	MIS1_ReadCurTime, .-MIS1_ReadCurTime
 492              		.section	.text.MIS1_SetBurstTimeout,"ax",%progbits
 493              		.align	2
 494              		.global	MIS1_SetBurstTimeout
 495              		.thumb
 496              		.thumb_func
 497              		.type	MIS1_SetBurstTimeout, %function
 498              	MIS1_SetBurstTimeout:
 499              	.LFB70:
 114:mis.c         **** 
 115:mis.c         **** void MIS1_SetBurstTimeout(uint32 t)
 116:mis.c         **** {
 500              		.loc 1 116 0
 501              		.cfi_startproc
 502              		@ args = 0, pretend = 0, frame = 8
 503              		@ frame_needed = 1, uses_anonymous_args = 0
 504 0000 80B5     		push	{r7, lr}
 505              		.cfi_def_cfa_offset 8
 506              		.cfi_offset 7, -8
 507              		.cfi_offset 14, -4
 508 0002 82B0     		sub	sp, sp, #8
 509              		.cfi_def_cfa_offset 16
 510 0004 00AF     		add	r7, sp, #0
 511              		.cfi_def_cfa_register 7
ARM GAS  C:\Users\Tomas\AppData\Local\Temp\cc1QFzoE.s 			page 12


 512 0006 7860     		str	r0, [r7, #4]
 117:mis.c         ****     BurstTimeout_1_WritePeriod(t);
 513              		.loc 1 117 0
 514 0008 7B68     		ldr	r3, [r7, #4]
 515 000a 9BB2     		uxth	r3, r3
 516 000c 1846     		mov	r0, r3
 517 000e FFF7FEFF 		bl	BurstTimeout_1_WritePeriod
 118:mis.c         **** }
 518              		.loc 1 118 0
 519 0012 00BF     		nop
 520 0014 0837     		adds	r7, r7, #8
 521              		.cfi_def_cfa_offset 8
 522 0016 BD46     		mov	sp, r7
 523              		.cfi_def_cfa_register 13
 524              		@ sp needed
 525 0018 80BD     		pop	{r7, pc}
 526              		.cfi_endproc
 527              	.LFE70:
 528              		.size	MIS1_SetBurstTimeout, .-MIS1_SetBurstTimeout
 529 001a 00BF     		.section	.text.MIS1_WaitPacket,"ax",%progbits
 530              		.align	2
 531              		.global	MIS1_WaitPacket
 532              		.thumb
 533              		.thumb_func
 534              		.type	MIS1_WaitPacket, %function
 535              	MIS1_WaitPacket:
 536              	.LFB71:
 119:mis.c         **** 
 120:mis.c         **** int MIS1_WaitPacket(void)
 121:mis.c         **** {
 537              		.loc 1 121 0
 538              		.cfi_startproc
 539              		@ args = 0, pretend = 0, frame = 0
 540              		@ frame_needed = 1, uses_anonymous_args = 0
 541 0000 80B5     		push	{r7, lr}
 542              		.cfi_def_cfa_offset 8
 543              		.cfi_offset 7, -8
 544              		.cfi_offset 14, -4
 545 0002 00AF     		add	r7, sp, #0
 546              		.cfi_def_cfa_register 7
 122:mis.c         ****     while (0 == (1 & MIS_Stat_Read()));
 547              		.loc 1 122 0
 548 0004 00BF     		nop
 549              	.L35:
 550              		.loc 1 122 0 is_stmt 0 discriminator 1
 551 0006 FFF7FEFF 		bl	MIS_Stat_Read
 552 000a 0346     		mov	r3, r0
 553 000c 03F00103 		and	r3, r3, #1
 554 0010 DBB2     		uxtb	r3, r3
 555 0012 002B     		cmp	r3, #0
 556 0014 F7D0     		beq	.L35
 123:mis.c         ****     return 0;
 557              		.loc 1 123 0 is_stmt 1
 558 0016 0023     		movs	r3, #0
 124:mis.c         **** }
 559              		.loc 1 124 0
 560 0018 1846     		mov	r0, r3
ARM GAS  C:\Users\Tomas\AppData\Local\Temp\cc1QFzoE.s 			page 13


 561 001a 80BD     		pop	{r7, pc}
 562              		.cfi_endproc
 563              	.LFE71:
 564              		.size	MIS1_WaitPacket, .-MIS1_WaitPacket
 565              		.section	.text.MIS1_Measure,"ax",%progbits
 566              		.align	2
 567              		.global	MIS1_Measure
 568              		.thumb
 569              		.thumb_func
 570              		.type	MIS1_Measure, %function
 571              	MIS1_Measure:
 572              	.LFB72:
 125:mis.c         **** 
 126:mis.c         **** int MIS1_Measure(uint32 time_ms)
 127:mis.c         **** {
 573              		.loc 1 127 0
 574              		.cfi_startproc
 575              		@ args = 0, pretend = 0, frame = 16
 576              		@ frame_needed = 1, uses_anonymous_args = 0
 577 0000 80B5     		push	{r7, lr}
 578              		.cfi_def_cfa_offset 8
 579              		.cfi_offset 7, -8
 580              		.cfi_offset 14, -4
 581 0002 84B0     		sub	sp, sp, #16
 582              		.cfi_def_cfa_offset 24
 583 0004 00AF     		add	r7, sp, #0
 584              		.cfi_def_cfa_register 7
 585 0006 7860     		str	r0, [r7, #4]
 128:mis.c         ****     int result;
 129:mis.c         ****     
 130:mis.c         ****     MIS_Start();
 586              		.loc 1 130 0
 587 0008 FFF7FEFF 		bl	MIS_Start
 131:mis.c         ****     
 132:mis.c         ****     result = MIS1_WaitPacket();
 588              		.loc 1 132 0
 589 000c FFF7FEFF 		bl	MIS1_WaitPacket
 590 0010 F860     		str	r0, [r7, #12]
 133:mis.c         ****     if (0 != result) return result;
 591              		.loc 1 133 0
 592 0012 FB68     		ldr	r3, [r7, #12]
 593 0014 002B     		cmp	r3, #0
 594 0016 01D0     		beq	.L38
 595              		.loc 1 133 0 is_stmt 0 discriminator 1
 596 0018 FB68     		ldr	r3, [r7, #12]
 597 001a 0DE0     		b	.L39
 598              	.L38:
 134:mis.c         ****     
 135:mis.c         ****     CyDelay(time_ms);
 599              		.loc 1 135 0 is_stmt 1
 600 001c 7868     		ldr	r0, [r7, #4]
 601 001e FFF7FEFF 		bl	CyDelay
 136:mis.c         ****     
 137:mis.c         ****     MIS_Stop();
 602              		.loc 1 137 0
 603 0022 FFF7FEFF 		bl	MIS_Stop
 138:mis.c         ****     result = MIS1_WaitPacket();
ARM GAS  C:\Users\Tomas\AppData\Local\Temp\cc1QFzoE.s 			page 14


 604              		.loc 1 138 0
 605 0026 FFF7FEFF 		bl	MIS1_WaitPacket
 606 002a F860     		str	r0, [r7, #12]
 139:mis.c         ****     if (0 != result) return result;
 607              		.loc 1 139 0
 608 002c FB68     		ldr	r3, [r7, #12]
 609 002e 002B     		cmp	r3, #0
 610 0030 01D0     		beq	.L40
 611              		.loc 1 139 0 is_stmt 0 discriminator 1
 612 0032 FB68     		ldr	r3, [r7, #12]
 613 0034 00E0     		b	.L39
 614              	.L40:
 140:mis.c         ****     
 141:mis.c         ****     return result;
 615              		.loc 1 141 0 is_stmt 1
 616 0036 FB68     		ldr	r3, [r7, #12]
 617              	.L39:
 142:mis.c         **** }
 618              		.loc 1 142 0
 619 0038 1846     		mov	r0, r3
 620 003a 1037     		adds	r7, r7, #16
 621              		.cfi_def_cfa_offset 8
 622 003c BD46     		mov	sp, r7
 623              		.cfi_def_cfa_register 13
 624              		@ sp needed
 625 003e 80BD     		pop	{r7, pc}
 626              		.cfi_endproc
 627              	.LFE72:
 628              		.size	MIS1_Measure, .-MIS1_Measure
 629              		.global	pulseCounter2
 630              		.bss
 631              		.align	2
 632              		.type	pulseCounter2, %object
 633              		.size	pulseCounter2, 4
 634              	pulseCounter2:
 635 0008 00000000 		.space	4
 636              		.section	.text.isr_PulseCounter_2_handler,"ax",%progbits
 637              		.align	2
 638              		.global	isr_PulseCounter_2_handler
 639              		.thumb
 640              		.thumb_func
 641              		.type	isr_PulseCounter_2_handler, %function
 642              	isr_PulseCounter_2_handler:
 643              	.LFB73:
 143:mis.c         **** /******************************************************************************
 144:mis.c         **** *******************************************************************************/
 145:mis.c         **** 
 146:mis.c         **** /******************************************************************************
 147:mis.c         **** * Project Name		: MIS2
 148:mis.c         **** *******************************************************************************/
 149:mis.c         **** 
 150:mis.c         **** uint32 pulseCounter2 = 0;
 151:mis.c         **** CY_ISR(isr_PulseCounter_2_handler)
 152:mis.c         **** {
 644              		.loc 1 152 0
 645              		.cfi_startproc
 646              		@ args = 0, pretend = 0, frame = 0
ARM GAS  C:\Users\Tomas\AppData\Local\Temp\cc1QFzoE.s 			page 15


 647              		@ frame_needed = 1, uses_anonymous_args = 0
 648              		@ link register save eliminated.
 649 0000 80B4     		push	{r7}
 650              		.cfi_def_cfa_offset 4
 651              		.cfi_offset 7, -4
 652 0002 00AF     		add	r7, sp, #0
 653              		.cfi_def_cfa_register 7
 153:mis.c         ****    pulseCounter2++;
 654              		.loc 1 153 0
 655 0004 044B     		ldr	r3, .L42
 656 0006 1B68     		ldr	r3, [r3]
 657 0008 0133     		adds	r3, r3, #1
 658 000a 034A     		ldr	r2, .L42
 659 000c 1360     		str	r3, [r2]
 154:mis.c         **** }
 660              		.loc 1 154 0
 661 000e 00BF     		nop
 662 0010 BD46     		mov	sp, r7
 663              		.cfi_def_cfa_register 13
 664              		@ sp needed
 665 0012 80BC     		pop	{r7}
 666              		.cfi_restore 7
 667              		.cfi_def_cfa_offset 0
 668 0014 7047     		bx	lr
 669              	.L43:
 670 0016 00BF     		.align	2
 671              	.L42:
 672 0018 00000000 		.word	pulseCounter2
 673              		.cfi_endproc
 674              	.LFE73:
 675              		.size	isr_PulseCounter_2_handler, .-isr_PulseCounter_2_handler
 676              		.comm	capture_2_count,4,4
 677              		.comm	capture_2_timestampTimer,8,4
 678              		.comm	capture_2_Timestamp_hw,2,4
 679              		.section	.text.isr_Capture_2,"ax",%progbits
 680              		.align	2
 681              		.global	isr_Capture_2
 682              		.thumb
 683              		.thumb_func
 684              		.type	isr_Capture_2, %function
 685              	isr_Capture_2:
 686              	.LFB74:
 155:mis.c         **** 
 156:mis.c         **** 
 157:mis.c         **** uint32 capture_2_count;
 158:mis.c         **** uint32 capture_2_timestampTimer[2];
 159:mis.c         **** uint8  capture_2_Timestamp_hw[2];
 160:mis.c         **** 
 161:mis.c         **** CY_ISR(isr_Capture_2)
 162:mis.c         **** {
 687              		.loc 1 162 0
 688              		.cfi_startproc
 689              		@ args = 0, pretend = 0, frame = 8
 690              		@ frame_needed = 1, uses_anonymous_args = 0
 691 0000 80B5     		push	{r7, lr}
 692              		.cfi_def_cfa_offset 8
 693              		.cfi_offset 7, -8
ARM GAS  C:\Users\Tomas\AppData\Local\Temp\cc1QFzoE.s 			page 16


 694              		.cfi_offset 14, -4
 695 0002 82B0     		sub	sp, sp, #8
 696              		.cfi_def_cfa_offset 16
 697 0004 00AF     		add	r7, sp, #0
 698              		.cfi_def_cfa_register 7
 163:mis.c         ****     uint8 hw_old;
 164:mis.c         ****     uint8 hw_new;
 165:mis.c         ****     if (capture_2_count < sizeof(capture_2_Timestamp_hw))
 699              		.loc 1 165 0
 700 0006 174B     		ldr	r3, .L48
 701 0008 1B68     		ldr	r3, [r3]
 702 000a 012B     		cmp	r3, #1
 703 000c 25D8     		bhi	.L47
 166:mis.c         ****     {   
 167:mis.c         ****         hw_old = Timestamp_ReadCounter();
 704              		.loc 1 167 0
 705 000e FFF7FEFF 		bl	Timestamp_ReadCounter
 706 0012 0346     		mov	r3, r0
 707 0014 FB71     		strb	r3, [r7, #7]
 168:mis.c         ****         capture_2_timestampTimer[capture_2_count] = timestampTimer;
 708              		.loc 1 168 0
 709 0016 134B     		ldr	r3, .L48
 710 0018 1B68     		ldr	r3, [r3]
 711 001a 134A     		ldr	r2, .L48+4
 712 001c 1268     		ldr	r2, [r2]
 713 001e 1349     		ldr	r1, .L48+8
 714 0020 41F82320 		str	r2, [r1, r3, lsl #2]
 169:mis.c         ****         hw_new = Timestamp_ReadCounter();
 715              		.loc 1 169 0
 716 0024 FFF7FEFF 		bl	Timestamp_ReadCounter
 717 0028 0346     		mov	r3, r0
 718 002a BB71     		strb	r3, [r7, #6]
 170:mis.c         ****         if (hw_new > hw_old)
 719              		.loc 1 170 0
 720 002c BA79     		ldrb	r2, [r7, #6]	@ zero_extendqisi2
 721 002e FB79     		ldrb	r3, [r7, #7]	@ zero_extendqisi2
 722 0030 9A42     		cmp	r2, r3
 723 0032 08D9     		bls	.L46
 171:mis.c         ****         {
 172:mis.c         ****             //hardware overflow
 173:mis.c         ****             capture_2_timestampTimer[capture_2_count]--;
 724              		.loc 1 173 0
 725 0034 0B4B     		ldr	r3, .L48
 726 0036 1B68     		ldr	r3, [r3]
 727 0038 0C4A     		ldr	r2, .L48+8
 728 003a 52F82320 		ldr	r2, [r2, r3, lsl #2]
 729 003e 013A     		subs	r2, r2, #1
 730 0040 0A49     		ldr	r1, .L48+8
 731 0042 41F82320 		str	r2, [r1, r3, lsl #2]
 732              	.L46:
 174:mis.c         ****         }
 175:mis.c         ****         capture_2_Timestamp_hw[capture_2_count] = hw_new;
 733              		.loc 1 175 0
 734 0046 074B     		ldr	r3, .L48
 735 0048 1B68     		ldr	r3, [r3]
 736 004a 0949     		ldr	r1, .L48+12
 737 004c BA79     		ldrb	r2, [r7, #6]
ARM GAS  C:\Users\Tomas\AppData\Local\Temp\cc1QFzoE.s 			page 17


 738 004e CA54     		strb	r2, [r1, r3]
 176:mis.c         ****         capture_2_count++;
 739              		.loc 1 176 0
 740 0050 044B     		ldr	r3, .L48
 741 0052 1B68     		ldr	r3, [r3]
 742 0054 0133     		adds	r3, r3, #1
 743 0056 034A     		ldr	r2, .L48
 744 0058 1360     		str	r3, [r2]
 745              	.L47:
 177:mis.c         ****     }
 178:mis.c         **** }
 746              		.loc 1 178 0
 747 005a 00BF     		nop
 748 005c 0837     		adds	r7, r7, #8
 749              		.cfi_def_cfa_offset 8
 750 005e BD46     		mov	sp, r7
 751              		.cfi_def_cfa_register 13
 752              		@ sp needed
 753 0060 80BD     		pop	{r7, pc}
 754              	.L49:
 755 0062 00BF     		.align	2
 756              	.L48:
 757 0064 00000000 		.word	capture_2_count
 758 0068 00000000 		.word	timestampTimer
 759 006c 00000000 		.word	capture_2_timestampTimer
 760 0070 00000000 		.word	capture_2_Timestamp_hw
 761              		.cfi_endproc
 762              	.LFE74:
 763              		.size	isr_Capture_2, .-isr_Capture_2
 764              		.section	.text.MIS2_ReadCount,"ax",%progbits
 765              		.align	2
 766              		.global	MIS2_ReadCount
 767              		.thumb
 768              		.thumb_func
 769              		.type	MIS2_ReadCount, %function
 770              	MIS2_ReadCount:
 771              	.LFB75:
 179:mis.c         **** 
 180:mis.c         **** uint32 MIS2_ReadCount(void)
 181:mis.c         **** {
 772              		.loc 1 181 0
 773              		.cfi_startproc
 774              		@ args = 0, pretend = 0, frame = 0
 775              		@ frame_needed = 1, uses_anonymous_args = 0
 776 0000 98B5     		push	{r3, r4, r7, lr}
 777              		.cfi_def_cfa_offset 16
 778              		.cfi_offset 3, -16
 779              		.cfi_offset 4, -12
 780              		.cfi_offset 7, -8
 781              		.cfi_offset 14, -4
 782 0002 00AF     		add	r7, sp, #0
 783              		.cfi_def_cfa_register 7
 182:mis.c         ****     return (pulseCounter2<<7) | (0x7F & PulseCounter_2_ReadCounter());
 784              		.loc 1 182 0
 785 0004 054B     		ldr	r3, .L52
 786 0006 1B68     		ldr	r3, [r3]
 787 0008 DC01     		lsls	r4, r3, #7
ARM GAS  C:\Users\Tomas\AppData\Local\Temp\cc1QFzoE.s 			page 18


 788 000a FFF7FEFF 		bl	PulseCounter_2_ReadCounter
 789 000e 0346     		mov	r3, r0
 790 0010 03F07F03 		and	r3, r3, #127
 791 0014 2343     		orrs	r3, r3, r4
 183:mis.c         **** }
 792              		.loc 1 183 0
 793 0016 1846     		mov	r0, r3
 794 0018 98BD     		pop	{r3, r4, r7, pc}
 795              	.L53:
 796 001a 00BF     		.align	2
 797              	.L52:
 798 001c 00000000 		.word	pulseCounter2
 799              		.cfi_endproc
 800              	.LFE75:
 801              		.size	MIS2_ReadCount, .-MIS2_ReadCount
 802              		.section	.text.MIS2_ReadTotTime,"ax",%progbits
 803              		.align	2
 804              		.global	MIS2_ReadTotTime
 805              		.thumb
 806              		.thumb_func
 807              		.type	MIS2_ReadTotTime, %function
 808              	MIS2_ReadTotTime:
 809              	.LFB76:
 184:mis.c         **** 
 185:mis.c         **** uint32 MIS2_ReadTotTime(void)
 186:mis.c         **** {
 810              		.loc 1 186 0
 811              		.cfi_startproc
 812              		@ args = 0, pretend = 0, frame = 8
 813              		@ frame_needed = 1, uses_anonymous_args = 0
 814              		@ link register save eliminated.
 815 0000 80B4     		push	{r7}
 816              		.cfi_def_cfa_offset 4
 817              		.cfi_offset 7, -4
 818 0002 83B0     		sub	sp, sp, #12
 819              		.cfi_def_cfa_offset 16
 820 0004 00AF     		add	r7, sp, #0
 821              		.cfi_def_cfa_register 7
 187:mis.c         ****     uint32 result = 0;
 822              		.loc 1 187 0
 823 0006 0023     		movs	r3, #0
 824 0008 7B60     		str	r3, [r7, #4]
 188:mis.c         ****     if (capture_2_count == 2)
 825              		.loc 1 188 0
 826 000a 0D4B     		ldr	r3, .L57
 827 000c 1B68     		ldr	r3, [r3]
 828 000e 022B     		cmp	r3, #2
 829 0010 0FD1     		bne	.L55
 189:mis.c         ****     {
 190:mis.c         ****         result  = (capture_2_timestampTimer[0]<<8) | (0xFF & capture_2_Timestamp_hw[0]); /* timesta
 830              		.loc 1 190 0
 831 0012 0C4B     		ldr	r3, .L57+4
 832 0014 1B68     		ldr	r3, [r3]
 833 0016 1B02     		lsls	r3, r3, #8
 834 0018 0B4A     		ldr	r2, .L57+8
 835 001a 1278     		ldrb	r2, [r2]	@ zero_extendqisi2
 836 001c 1343     		orrs	r3, r3, r2
ARM GAS  C:\Users\Tomas\AppData\Local\Temp\cc1QFzoE.s 			page 19


 837 001e 7B60     		str	r3, [r7, #4]
 191:mis.c         ****         result -= (capture_2_timestampTimer[1]<<8) | (0xFF & capture_2_Timestamp_hw[1]); /* timesta
 838              		.loc 1 191 0
 839 0020 084B     		ldr	r3, .L57+4
 840 0022 5B68     		ldr	r3, [r3, #4]
 841 0024 1B02     		lsls	r3, r3, #8
 842 0026 084A     		ldr	r2, .L57+8
 843 0028 5278     		ldrb	r2, [r2, #1]	@ zero_extendqisi2
 844 002a 1343     		orrs	r3, r3, r2
 845 002c 7A68     		ldr	r2, [r7, #4]
 846 002e D31A     		subs	r3, r2, r3
 847 0030 7B60     		str	r3, [r7, #4]
 848              	.L55:
 192:mis.c         ****     }
 193:mis.c         ****     return result;
 849              		.loc 1 193 0
 850 0032 7B68     		ldr	r3, [r7, #4]
 194:mis.c         **** }
 851              		.loc 1 194 0
 852 0034 1846     		mov	r0, r3
 853 0036 0C37     		adds	r7, r7, #12
 854              		.cfi_def_cfa_offset 4
 855 0038 BD46     		mov	sp, r7
 856              		.cfi_def_cfa_register 13
 857              		@ sp needed
 858 003a 80BC     		pop	{r7}
 859              		.cfi_restore 7
 860              		.cfi_def_cfa_offset 0
 861 003c 7047     		bx	lr
 862              	.L58:
 863 003e 00BF     		.align	2
 864              	.L57:
 865 0040 00000000 		.word	capture_2_count
 866 0044 00000000 		.word	capture_2_timestampTimer
 867 0048 00000000 		.word	capture_2_Timestamp_hw
 868              		.cfi_endproc
 869              	.LFE76:
 870              		.size	MIS2_ReadTotTime, .-MIS2_ReadTotTime
 871              		.section	.text.MIS2_ReadCurTime,"ax",%progbits
 872              		.align	2
 873              		.global	MIS2_ReadCurTime
 874              		.thumb
 875              		.thumb_func
 876              		.type	MIS2_ReadCurTime, %function
 877              	MIS2_ReadCurTime:
 878              	.LFB77:
 195:mis.c         **** 
 196:mis.c         **** uint32 MIS2_ReadCurTime(void)
 197:mis.c         **** {
 879              		.loc 1 197 0
 880              		.cfi_startproc
 881              		@ args = 0, pretend = 0, frame = 16
 882              		@ frame_needed = 1, uses_anonymous_args = 0
 883 0000 80B5     		push	{r7, lr}
 884              		.cfi_def_cfa_offset 8
 885              		.cfi_offset 7, -8
 886              		.cfi_offset 14, -4
ARM GAS  C:\Users\Tomas\AppData\Local\Temp\cc1QFzoE.s 			page 20


 887 0002 84B0     		sub	sp, sp, #16
 888              		.cfi_def_cfa_offset 24
 889 0004 00AF     		add	r7, sp, #0
 890              		.cfi_def_cfa_register 7
 198:mis.c         ****     uint32 result = 0;
 891              		.loc 1 198 0
 892 0006 0023     		movs	r3, #0
 893 0008 FB60     		str	r3, [r7, #12]
 199:mis.c         ****      uint32 cur_timestampTimer = 0;
 894              		.loc 1 199 0
 895 000a 0023     		movs	r3, #0
 896 000c BB60     		str	r3, [r7, #8]
 200:mis.c         ****     if (capture_2_count == 2)
 897              		.loc 1 200 0
 898 000e 1F4B     		ldr	r3, .L64
 899 0010 1B68     		ldr	r3, [r3]
 900 0012 022B     		cmp	r3, #2
 901 0014 10D1     		bne	.L60
 201:mis.c         ****     {
 202:mis.c         ****         result  = (capture_2_timestampTimer[0]<<8) | (0xFF & capture_2_Timestamp_hw[0]); /* timesta
 902              		.loc 1 202 0
 903 0016 1E4B     		ldr	r3, .L64+4
 904 0018 1B68     		ldr	r3, [r3]
 905 001a 1B02     		lsls	r3, r3, #8
 906 001c 1D4A     		ldr	r2, .L64+8
 907 001e 1278     		ldrb	r2, [r2]	@ zero_extendqisi2
 908 0020 1343     		orrs	r3, r3, r2
 909 0022 FB60     		str	r3, [r7, #12]
 203:mis.c         ****         result -= (capture_2_timestampTimer[1]<<8) | (0xFF & capture_2_Timestamp_hw[1]); /* timesta
 910              		.loc 1 203 0
 911 0024 1A4B     		ldr	r3, .L64+4
 912 0026 5B68     		ldr	r3, [r3, #4]
 913 0028 1B02     		lsls	r3, r3, #8
 914 002a 1A4A     		ldr	r2, .L64+8
 915 002c 5278     		ldrb	r2, [r2, #1]	@ zero_extendqisi2
 916 002e 1343     		orrs	r3, r3, r2
 917 0030 FA68     		ldr	r2, [r7, #12]
 918 0032 D31A     		subs	r3, r2, r3
 919 0034 FB60     		str	r3, [r7, #12]
 920 0036 23E0     		b	.L61
 921              	.L60:
 204:mis.c         ****     }
 205:mis.c         ****     else if (capture_2_count == 1)
 922              		.loc 1 205 0
 923 0038 144B     		ldr	r3, .L64
 924 003a 1B68     		ldr	r3, [r3]
 925 003c 012B     		cmp	r3, #1
 926 003e 1FD1     		bne	.L61
 927              	.LBB3:
 206:mis.c         ****     {
 207:mis.c         ****         result  = (capture_2_timestampTimer[0]<<8) | (0xFF & capture_2_Timestamp_hw[0]); /* timesta
 928              		.loc 1 207 0
 929 0040 134B     		ldr	r3, .L64+4
 930 0042 1B68     		ldr	r3, [r3]
 931 0044 1B02     		lsls	r3, r3, #8
 932 0046 134A     		ldr	r2, .L64+8
 933 0048 1278     		ldrb	r2, [r2]	@ zero_extendqisi2
ARM GAS  C:\Users\Tomas\AppData\Local\Temp\cc1QFzoE.s 			page 21


 934 004a 1343     		orrs	r3, r3, r2
 935 004c FB60     		str	r3, [r7, #12]
 208:mis.c         ****         uint8 hw_old;
 209:mis.c         ****         uint8 hw_new;
 210:mis.c         ****         hw_old = Timestamp_ReadCounter();
 936              		.loc 1 210 0
 937 004e FFF7FEFF 		bl	Timestamp_ReadCounter
 938 0052 0346     		mov	r3, r0
 939 0054 FB71     		strb	r3, [r7, #7]
 211:mis.c         ****         cur_timestampTimer = timestampTimer;
 940              		.loc 1 211 0
 941 0056 104B     		ldr	r3, .L64+12
 942 0058 1B68     		ldr	r3, [r3]
 943 005a BB60     		str	r3, [r7, #8]
 212:mis.c         ****         hw_new = Timestamp_ReadCounter();
 944              		.loc 1 212 0
 945 005c FFF7FEFF 		bl	Timestamp_ReadCounter
 946 0060 0346     		mov	r3, r0
 947 0062 BB71     		strb	r3, [r7, #6]
 213:mis.c         ****         if (hw_new > hw_old)
 948              		.loc 1 213 0
 949 0064 BA79     		ldrb	r2, [r7, #6]	@ zero_extendqisi2
 950 0066 FB79     		ldrb	r3, [r7, #7]	@ zero_extendqisi2
 951 0068 9A42     		cmp	r2, r3
 952 006a 02D9     		bls	.L62
 214:mis.c         ****         {
 215:mis.c         ****             //hardware overflow
 216:mis.c         ****             cur_timestampTimer--;
 953              		.loc 1 216 0
 954 006c BB68     		ldr	r3, [r7, #8]
 955 006e 013B     		subs	r3, r3, #1
 956 0070 BB60     		str	r3, [r7, #8]
 957              	.L62:
 217:mis.c         ****         }
 218:mis.c         ****         result -= (cur_timestampTimer<<8) | (0xFF & hw_new); /* timestampTimerStop  */
 958              		.loc 1 218 0
 959 0072 BB68     		ldr	r3, [r7, #8]
 960 0074 1A02     		lsls	r2, r3, #8
 961 0076 BB79     		ldrb	r3, [r7, #6]	@ zero_extendqisi2
 962 0078 1343     		orrs	r3, r3, r2
 963 007a FA68     		ldr	r2, [r7, #12]
 964 007c D31A     		subs	r3, r2, r3
 965 007e FB60     		str	r3, [r7, #12]
 966              	.L61:
 967              	.LBE3:
 219:mis.c         ****     }
 220:mis.c         ****     return result;
 968              		.loc 1 220 0
 969 0080 FB68     		ldr	r3, [r7, #12]
 221:mis.c         **** }
 970              		.loc 1 221 0
 971 0082 1846     		mov	r0, r3
 972 0084 1037     		adds	r7, r7, #16
 973              		.cfi_def_cfa_offset 8
 974 0086 BD46     		mov	sp, r7
 975              		.cfi_def_cfa_register 13
 976              		@ sp needed
ARM GAS  C:\Users\Tomas\AppData\Local\Temp\cc1QFzoE.s 			page 22


 977 0088 80BD     		pop	{r7, pc}
 978              	.L65:
 979 008a 00BF     		.align	2
 980              	.L64:
 981 008c 00000000 		.word	capture_2_count
 982 0090 00000000 		.word	capture_2_timestampTimer
 983 0094 00000000 		.word	capture_2_Timestamp_hw
 984 0098 00000000 		.word	timestampTimer
 985              		.cfi_endproc
 986              	.LFE77:
 987              		.size	MIS2_ReadCurTime, .-MIS2_ReadCurTime
 988              		.section	.text.MIS2_SetBurstTimeout,"ax",%progbits
 989              		.align	2
 990              		.global	MIS2_SetBurstTimeout
 991              		.thumb
 992              		.thumb_func
 993              		.type	MIS2_SetBurstTimeout, %function
 994              	MIS2_SetBurstTimeout:
 995              	.LFB78:
 222:mis.c         **** 
 223:mis.c         **** void MIS2_SetBurstTimeout(uint32 t)
 224:mis.c         **** {
 996              		.loc 1 224 0
 997              		.cfi_startproc
 998              		@ args = 0, pretend = 0, frame = 8
 999              		@ frame_needed = 1, uses_anonymous_args = 0
 1000 0000 80B5     		push	{r7, lr}
 1001              		.cfi_def_cfa_offset 8
 1002              		.cfi_offset 7, -8
 1003              		.cfi_offset 14, -4
 1004 0002 82B0     		sub	sp, sp, #8
 1005              		.cfi_def_cfa_offset 16
 1006 0004 00AF     		add	r7, sp, #0
 1007              		.cfi_def_cfa_register 7
 1008 0006 7860     		str	r0, [r7, #4]
 225:mis.c         ****     BurstTimeout_2_WritePeriod(t);
 1009              		.loc 1 225 0
 1010 0008 7B68     		ldr	r3, [r7, #4]
 1011 000a 9BB2     		uxth	r3, r3
 1012 000c 1846     		mov	r0, r3
 1013 000e FFF7FEFF 		bl	BurstTimeout_2_WritePeriod
 226:mis.c         **** }
 1014              		.loc 1 226 0
 1015 0012 00BF     		nop
 1016 0014 0837     		adds	r7, r7, #8
 1017              		.cfi_def_cfa_offset 8
 1018 0016 BD46     		mov	sp, r7
 1019              		.cfi_def_cfa_register 13
 1020              		@ sp needed
 1021 0018 80BD     		pop	{r7, pc}
 1022              		.cfi_endproc
 1023              	.LFE78:
 1024              		.size	MIS2_SetBurstTimeout, .-MIS2_SetBurstTimeout
 1025 001a 00BF     		.section	.text.MIS2_WaitPacket,"ax",%progbits
 1026              		.align	2
 1027              		.global	MIS2_WaitPacket
 1028              		.thumb
ARM GAS  C:\Users\Tomas\AppData\Local\Temp\cc1QFzoE.s 			page 23


 1029              		.thumb_func
 1030              		.type	MIS2_WaitPacket, %function
 1031              	MIS2_WaitPacket:
 1032              	.LFB79:
 227:mis.c         **** 
 228:mis.c         **** int MIS2_WaitPacket(void)
 229:mis.c         **** {
 1033              		.loc 1 229 0
 1034              		.cfi_startproc
 1035              		@ args = 0, pretend = 0, frame = 0
 1036              		@ frame_needed = 1, uses_anonymous_args = 0
 1037 0000 80B5     		push	{r7, lr}
 1038              		.cfi_def_cfa_offset 8
 1039              		.cfi_offset 7, -8
 1040              		.cfi_offset 14, -4
 1041 0002 00AF     		add	r7, sp, #0
 1042              		.cfi_def_cfa_register 7
 230:mis.c         ****     while (0 == (2 & MIS_Stat_Read()));
 1043              		.loc 1 230 0
 1044 0004 00BF     		nop
 1045              	.L68:
 1046              		.loc 1 230 0 is_stmt 0 discriminator 1
 1047 0006 FFF7FEFF 		bl	MIS_Stat_Read
 1048 000a 0346     		mov	r3, r0
 1049 000c 03F00203 		and	r3, r3, #2
 1050 0010 DBB2     		uxtb	r3, r3
 1051 0012 002B     		cmp	r3, #0
 1052 0014 F7D0     		beq	.L68
 231:mis.c         ****     return 0;
 1053              		.loc 1 231 0 is_stmt 1
 1054 0016 0023     		movs	r3, #0
 232:mis.c         **** }
 1055              		.loc 1 232 0
 1056 0018 1846     		mov	r0, r3
 1057 001a 80BD     		pop	{r7, pc}
 1058              		.cfi_endproc
 1059              	.LFE79:
 1060              		.size	MIS2_WaitPacket, .-MIS2_WaitPacket
 1061              		.section	.text.MIS2_Measure,"ax",%progbits
 1062              		.align	2
 1063              		.global	MIS2_Measure
 1064              		.thumb
 1065              		.thumb_func
 1066              		.type	MIS2_Measure, %function
 1067              	MIS2_Measure:
 1068              	.LFB80:
 233:mis.c         **** 
 234:mis.c         **** int MIS2_Measure(uint32 time_ms)
 235:mis.c         **** {
 1069              		.loc 1 235 0
 1070              		.cfi_startproc
 1071              		@ args = 0, pretend = 0, frame = 16
 1072              		@ frame_needed = 1, uses_anonymous_args = 0
 1073 0000 80B5     		push	{r7, lr}
 1074              		.cfi_def_cfa_offset 8
 1075              		.cfi_offset 7, -8
 1076              		.cfi_offset 14, -4
ARM GAS  C:\Users\Tomas\AppData\Local\Temp\cc1QFzoE.s 			page 24


 1077 0002 84B0     		sub	sp, sp, #16
 1078              		.cfi_def_cfa_offset 24
 1079 0004 00AF     		add	r7, sp, #0
 1080              		.cfi_def_cfa_register 7
 1081 0006 7860     		str	r0, [r7, #4]
 236:mis.c         ****     int result;
 237:mis.c         ****     
 238:mis.c         ****     MIS_Start();
 1082              		.loc 1 238 0
 1083 0008 FFF7FEFF 		bl	MIS_Start
 239:mis.c         ****     
 240:mis.c         ****     result = MIS2_WaitPacket();
 1084              		.loc 1 240 0
 1085 000c FFF7FEFF 		bl	MIS2_WaitPacket
 1086 0010 F860     		str	r0, [r7, #12]
 241:mis.c         ****     if (0 != result) return result;
 1087              		.loc 1 241 0
 1088 0012 FB68     		ldr	r3, [r7, #12]
 1089 0014 002B     		cmp	r3, #0
 1090 0016 01D0     		beq	.L71
 1091              		.loc 1 241 0 is_stmt 0 discriminator 1
 1092 0018 FB68     		ldr	r3, [r7, #12]
 1093 001a 0DE0     		b	.L72
 1094              	.L71:
 242:mis.c         ****     
 243:mis.c         ****     CyDelay(time_ms);
 1095              		.loc 1 243 0 is_stmt 1
 1096 001c 7868     		ldr	r0, [r7, #4]
 1097 001e FFF7FEFF 		bl	CyDelay
 244:mis.c         ****     
 245:mis.c         ****     MIS_Stop();
 1098              		.loc 1 245 0
 1099 0022 FFF7FEFF 		bl	MIS_Stop
 246:mis.c         ****     result = MIS2_WaitPacket();
 1100              		.loc 1 246 0
 1101 0026 FFF7FEFF 		bl	MIS2_WaitPacket
 1102 002a F860     		str	r0, [r7, #12]
 247:mis.c         ****     if (0 != result) return result;
 1103              		.loc 1 247 0
 1104 002c FB68     		ldr	r3, [r7, #12]
 1105 002e 002B     		cmp	r3, #0
 1106 0030 01D0     		beq	.L73
 1107              		.loc 1 247 0 is_stmt 0 discriminator 1
 1108 0032 FB68     		ldr	r3, [r7, #12]
 1109 0034 00E0     		b	.L72
 1110              	.L73:
 248:mis.c         ****     
 249:mis.c         ****     return result;
 1111              		.loc 1 249 0 is_stmt 1
 1112 0036 FB68     		ldr	r3, [r7, #12]
 1113              	.L72:
 250:mis.c         **** }
 1114              		.loc 1 250 0
 1115 0038 1846     		mov	r0, r3
 1116 003a 1037     		adds	r7, r7, #16
 1117              		.cfi_def_cfa_offset 8
 1118 003c BD46     		mov	sp, r7
ARM GAS  C:\Users\Tomas\AppData\Local\Temp\cc1QFzoE.s 			page 25


 1119              		.cfi_def_cfa_register 13
 1120              		@ sp needed
 1121 003e 80BD     		pop	{r7, pc}
 1122              		.cfi_endproc
 1123              	.LFE80:
 1124              		.size	MIS2_Measure, .-MIS2_Measure
 1125              		.global	pulseCounter3
 1126              		.bss
 1127              		.align	2
 1128              		.type	pulseCounter3, %object
 1129              		.size	pulseCounter3, 4
 1130              	pulseCounter3:
 1131 000c 00000000 		.space	4
 1132              		.section	.text.isr_PulseCounter_3_handler,"ax",%progbits
 1133              		.align	2
 1134              		.global	isr_PulseCounter_3_handler
 1135              		.thumb
 1136              		.thumb_func
 1137              		.type	isr_PulseCounter_3_handler, %function
 1138              	isr_PulseCounter_3_handler:
 1139              	.LFB81:
 251:mis.c         **** 
 252:mis.c         **** /******************************************************************************
 253:mis.c         **** *******************************************************************************/
 254:mis.c         **** 
 255:mis.c         **** /******************************************************************************
 256:mis.c         **** * Project Name		: MIS3
 257:mis.c         **** *******************************************************************************/
 258:mis.c         **** 
 259:mis.c         **** uint32 pulseCounter3 = 0;
 260:mis.c         **** CY_ISR(isr_PulseCounter_3_handler)
 261:mis.c         **** {
 1140              		.loc 1 261 0
 1141              		.cfi_startproc
 1142              		@ args = 0, pretend = 0, frame = 0
 1143              		@ frame_needed = 1, uses_anonymous_args = 0
 1144              		@ link register save eliminated.
 1145 0000 80B4     		push	{r7}
 1146              		.cfi_def_cfa_offset 4
 1147              		.cfi_offset 7, -4
 1148 0002 00AF     		add	r7, sp, #0
 1149              		.cfi_def_cfa_register 7
 262:mis.c         ****    pulseCounter3++;
 1150              		.loc 1 262 0
 1151 0004 044B     		ldr	r3, .L75
 1152 0006 1B68     		ldr	r3, [r3]
 1153 0008 0133     		adds	r3, r3, #1
 1154 000a 034A     		ldr	r2, .L75
 1155 000c 1360     		str	r3, [r2]
 263:mis.c         **** }
 1156              		.loc 1 263 0
 1157 000e 00BF     		nop
 1158 0010 BD46     		mov	sp, r7
 1159              		.cfi_def_cfa_register 13
 1160              		@ sp needed
 1161 0012 80BC     		pop	{r7}
 1162              		.cfi_restore 7
ARM GAS  C:\Users\Tomas\AppData\Local\Temp\cc1QFzoE.s 			page 26


 1163              		.cfi_def_cfa_offset 0
 1164 0014 7047     		bx	lr
 1165              	.L76:
 1166 0016 00BF     		.align	2
 1167              	.L75:
 1168 0018 00000000 		.word	pulseCounter3
 1169              		.cfi_endproc
 1170              	.LFE81:
 1171              		.size	isr_PulseCounter_3_handler, .-isr_PulseCounter_3_handler
 1172              		.comm	capture_3_count,4,4
 1173              		.comm	capture_3_timestampTimer,8,4
 1174              		.comm	capture_3_Timestamp_hw,2,4
 1175              		.section	.text.isr_Capture_3,"ax",%progbits
 1176              		.align	2
 1177              		.global	isr_Capture_3
 1178              		.thumb
 1179              		.thumb_func
 1180              		.type	isr_Capture_3, %function
 1181              	isr_Capture_3:
 1182              	.LFB82:
 264:mis.c         **** 
 265:mis.c         **** 
 266:mis.c         **** uint32 capture_3_count;
 267:mis.c         **** uint32 capture_3_timestampTimer[2];
 268:mis.c         **** uint8  capture_3_Timestamp_hw[2];
 269:mis.c         **** 
 270:mis.c         **** CY_ISR(isr_Capture_3)
 271:mis.c         **** {
 1183              		.loc 1 271 0
 1184              		.cfi_startproc
 1185              		@ args = 0, pretend = 0, frame = 8
 1186              		@ frame_needed = 1, uses_anonymous_args = 0
 1187 0000 80B5     		push	{r7, lr}
 1188              		.cfi_def_cfa_offset 8
 1189              		.cfi_offset 7, -8
 1190              		.cfi_offset 14, -4
 1191 0002 82B0     		sub	sp, sp, #8
 1192              		.cfi_def_cfa_offset 16
 1193 0004 00AF     		add	r7, sp, #0
 1194              		.cfi_def_cfa_register 7
 272:mis.c         ****     uint8 hw_old;
 273:mis.c         ****     uint8 hw_new;
 274:mis.c         ****     if (capture_3_count < sizeof(capture_2_Timestamp_hw))
 1195              		.loc 1 274 0
 1196 0006 174B     		ldr	r3, .L81
 1197 0008 1B68     		ldr	r3, [r3]
 1198 000a 012B     		cmp	r3, #1
 1199 000c 25D8     		bhi	.L80
 275:mis.c         ****     {   
 276:mis.c         ****         hw_old = Timestamp_ReadCounter();
 1200              		.loc 1 276 0
 1201 000e FFF7FEFF 		bl	Timestamp_ReadCounter
 1202 0012 0346     		mov	r3, r0
 1203 0014 FB71     		strb	r3, [r7, #7]
 277:mis.c         ****         capture_3_timestampTimer[capture_3_count] = timestampTimer;
 1204              		.loc 1 277 0
 1205 0016 134B     		ldr	r3, .L81
ARM GAS  C:\Users\Tomas\AppData\Local\Temp\cc1QFzoE.s 			page 27


 1206 0018 1B68     		ldr	r3, [r3]
 1207 001a 134A     		ldr	r2, .L81+4
 1208 001c 1268     		ldr	r2, [r2]
 1209 001e 1349     		ldr	r1, .L81+8
 1210 0020 41F82320 		str	r2, [r1, r3, lsl #2]
 278:mis.c         ****         hw_new = Timestamp_ReadCounter();
 1211              		.loc 1 278 0
 1212 0024 FFF7FEFF 		bl	Timestamp_ReadCounter
 1213 0028 0346     		mov	r3, r0
 1214 002a BB71     		strb	r3, [r7, #6]
 279:mis.c         ****         if (hw_new > hw_old)
 1215              		.loc 1 279 0
 1216 002c BA79     		ldrb	r2, [r7, #6]	@ zero_extendqisi2
 1217 002e FB79     		ldrb	r3, [r7, #7]	@ zero_extendqisi2
 1218 0030 9A42     		cmp	r2, r3
 1219 0032 08D9     		bls	.L79
 280:mis.c         ****         {
 281:mis.c         ****             //hardware overflow
 282:mis.c         ****             capture_3_timestampTimer[capture_3_count]--;
 1220              		.loc 1 282 0
 1221 0034 0B4B     		ldr	r3, .L81
 1222 0036 1B68     		ldr	r3, [r3]
 1223 0038 0C4A     		ldr	r2, .L81+8
 1224 003a 52F82320 		ldr	r2, [r2, r3, lsl #2]
 1225 003e 013A     		subs	r2, r2, #1
 1226 0040 0A49     		ldr	r1, .L81+8
 1227 0042 41F82320 		str	r2, [r1, r3, lsl #2]
 1228              	.L79:
 283:mis.c         ****         }
 284:mis.c         ****         capture_3_Timestamp_hw[capture_3_count] = hw_new;
 1229              		.loc 1 284 0
 1230 0046 074B     		ldr	r3, .L81
 1231 0048 1B68     		ldr	r3, [r3]
 1232 004a 0949     		ldr	r1, .L81+12
 1233 004c BA79     		ldrb	r2, [r7, #6]
 1234 004e CA54     		strb	r2, [r1, r3]
 285:mis.c         ****         capture_3_count++;
 1235              		.loc 1 285 0
 1236 0050 044B     		ldr	r3, .L81
 1237 0052 1B68     		ldr	r3, [r3]
 1238 0054 0133     		adds	r3, r3, #1
 1239 0056 034A     		ldr	r2, .L81
 1240 0058 1360     		str	r3, [r2]
 1241              	.L80:
 286:mis.c         ****     }
 287:mis.c         **** }
 1242              		.loc 1 287 0
 1243 005a 00BF     		nop
 1244 005c 0837     		adds	r7, r7, #8
 1245              		.cfi_def_cfa_offset 8
 1246 005e BD46     		mov	sp, r7
 1247              		.cfi_def_cfa_register 13
 1248              		@ sp needed
 1249 0060 80BD     		pop	{r7, pc}
 1250              	.L82:
 1251 0062 00BF     		.align	2
 1252              	.L81:
ARM GAS  C:\Users\Tomas\AppData\Local\Temp\cc1QFzoE.s 			page 28


 1253 0064 00000000 		.word	capture_3_count
 1254 0068 00000000 		.word	timestampTimer
 1255 006c 00000000 		.word	capture_3_timestampTimer
 1256 0070 00000000 		.word	capture_3_Timestamp_hw
 1257              		.cfi_endproc
 1258              	.LFE82:
 1259              		.size	isr_Capture_3, .-isr_Capture_3
 1260              		.section	.text.MIS3_ReadCount,"ax",%progbits
 1261              		.align	2
 1262              		.global	MIS3_ReadCount
 1263              		.thumb
 1264              		.thumb_func
 1265              		.type	MIS3_ReadCount, %function
 1266              	MIS3_ReadCount:
 1267              	.LFB83:
 288:mis.c         **** 
 289:mis.c         **** uint32 MIS3_ReadCount(void)
 290:mis.c         **** {
 1268              		.loc 1 290 0
 1269              		.cfi_startproc
 1270              		@ args = 0, pretend = 0, frame = 0
 1271              		@ frame_needed = 1, uses_anonymous_args = 0
 1272 0000 98B5     		push	{r3, r4, r7, lr}
 1273              		.cfi_def_cfa_offset 16
 1274              		.cfi_offset 3, -16
 1275              		.cfi_offset 4, -12
 1276              		.cfi_offset 7, -8
 1277              		.cfi_offset 14, -4
 1278 0002 00AF     		add	r7, sp, #0
 1279              		.cfi_def_cfa_register 7
 291:mis.c         ****     return (pulseCounter3<<7) | (0x7F & PulseCounter_3_ReadCounter());
 1280              		.loc 1 291 0
 1281 0004 054B     		ldr	r3, .L85
 1282 0006 1B68     		ldr	r3, [r3]
 1283 0008 DC01     		lsls	r4, r3, #7
 1284 000a FFF7FEFF 		bl	PulseCounter_3_ReadCounter
 1285 000e 0346     		mov	r3, r0
 1286 0010 03F07F03 		and	r3, r3, #127
 1287 0014 2343     		orrs	r3, r3, r4
 292:mis.c         **** }
 1288              		.loc 1 292 0
 1289 0016 1846     		mov	r0, r3
 1290 0018 98BD     		pop	{r3, r4, r7, pc}
 1291              	.L86:
 1292 001a 00BF     		.align	2
 1293              	.L85:
 1294 001c 00000000 		.word	pulseCounter3
 1295              		.cfi_endproc
 1296              	.LFE83:
 1297              		.size	MIS3_ReadCount, .-MIS3_ReadCount
 1298              		.section	.text.MIS3_ReadTotTime,"ax",%progbits
 1299              		.align	2
 1300              		.global	MIS3_ReadTotTime
 1301              		.thumb
 1302              		.thumb_func
 1303              		.type	MIS3_ReadTotTime, %function
 1304              	MIS3_ReadTotTime:
ARM GAS  C:\Users\Tomas\AppData\Local\Temp\cc1QFzoE.s 			page 29


 1305              	.LFB84:
 293:mis.c         **** 
 294:mis.c         **** uint32 MIS3_ReadTotTime(void)
 295:mis.c         **** {
 1306              		.loc 1 295 0
 1307              		.cfi_startproc
 1308              		@ args = 0, pretend = 0, frame = 8
 1309              		@ frame_needed = 1, uses_anonymous_args = 0
 1310              		@ link register save eliminated.
 1311 0000 80B4     		push	{r7}
 1312              		.cfi_def_cfa_offset 4
 1313              		.cfi_offset 7, -4
 1314 0002 83B0     		sub	sp, sp, #12
 1315              		.cfi_def_cfa_offset 16
 1316 0004 00AF     		add	r7, sp, #0
 1317              		.cfi_def_cfa_register 7
 296:mis.c         ****     uint32 result = 0;
 1318              		.loc 1 296 0
 1319 0006 0023     		movs	r3, #0
 1320 0008 7B60     		str	r3, [r7, #4]
 297:mis.c         ****     if (capture_3_count == 2)
 1321              		.loc 1 297 0
 1322 000a 0D4B     		ldr	r3, .L90
 1323 000c 1B68     		ldr	r3, [r3]
 1324 000e 022B     		cmp	r3, #2
 1325 0010 0FD1     		bne	.L88
 298:mis.c         ****     {
 299:mis.c         ****         result  = (capture_3_timestampTimer[0]<<8) | (0xFF & capture_3_Timestamp_hw[0]); /* timesta
 1326              		.loc 1 299 0
 1327 0012 0C4B     		ldr	r3, .L90+4
 1328 0014 1B68     		ldr	r3, [r3]
 1329 0016 1B02     		lsls	r3, r3, #8
 1330 0018 0B4A     		ldr	r2, .L90+8
 1331 001a 1278     		ldrb	r2, [r2]	@ zero_extendqisi2
 1332 001c 1343     		orrs	r3, r3, r2
 1333 001e 7B60     		str	r3, [r7, #4]
 300:mis.c         ****         result -= (capture_3_timestampTimer[1]<<8) | (0xFF & capture_2_Timestamp_hw[1]); /* timesta
 1334              		.loc 1 300 0
 1335 0020 084B     		ldr	r3, .L90+4
 1336 0022 5B68     		ldr	r3, [r3, #4]
 1337 0024 1B02     		lsls	r3, r3, #8
 1338 0026 094A     		ldr	r2, .L90+12
 1339 0028 5278     		ldrb	r2, [r2, #1]	@ zero_extendqisi2
 1340 002a 1343     		orrs	r3, r3, r2
 1341 002c 7A68     		ldr	r2, [r7, #4]
 1342 002e D31A     		subs	r3, r2, r3
 1343 0030 7B60     		str	r3, [r7, #4]
 1344              	.L88:
 301:mis.c         ****     }
 302:mis.c         ****     return result;
 1345              		.loc 1 302 0
 1346 0032 7B68     		ldr	r3, [r7, #4]
 303:mis.c         **** }
 1347              		.loc 1 303 0
 1348 0034 1846     		mov	r0, r3
 1349 0036 0C37     		adds	r7, r7, #12
 1350              		.cfi_def_cfa_offset 4
ARM GAS  C:\Users\Tomas\AppData\Local\Temp\cc1QFzoE.s 			page 30


 1351 0038 BD46     		mov	sp, r7
 1352              		.cfi_def_cfa_register 13
 1353              		@ sp needed
 1354 003a 80BC     		pop	{r7}
 1355              		.cfi_restore 7
 1356              		.cfi_def_cfa_offset 0
 1357 003c 7047     		bx	lr
 1358              	.L91:
 1359 003e 00BF     		.align	2
 1360              	.L90:
 1361 0040 00000000 		.word	capture_3_count
 1362 0044 00000000 		.word	capture_3_timestampTimer
 1363 0048 00000000 		.word	capture_3_Timestamp_hw
 1364 004c 00000000 		.word	capture_2_Timestamp_hw
 1365              		.cfi_endproc
 1366              	.LFE84:
 1367              		.size	MIS3_ReadTotTime, .-MIS3_ReadTotTime
 1368              		.section	.text.MIS3_ReadCurTime,"ax",%progbits
 1369              		.align	2
 1370              		.global	MIS3_ReadCurTime
 1371              		.thumb
 1372              		.thumb_func
 1373              		.type	MIS3_ReadCurTime, %function
 1374              	MIS3_ReadCurTime:
 1375              	.LFB85:
 304:mis.c         **** uint32 MIS3_ReadCurTime(void)
 305:mis.c         **** {
 1376              		.loc 1 305 0
 1377              		.cfi_startproc
 1378              		@ args = 0, pretend = 0, frame = 16
 1379              		@ frame_needed = 1, uses_anonymous_args = 0
 1380 0000 80B5     		push	{r7, lr}
 1381              		.cfi_def_cfa_offset 8
 1382              		.cfi_offset 7, -8
 1383              		.cfi_offset 14, -4
 1384 0002 84B0     		sub	sp, sp, #16
 1385              		.cfi_def_cfa_offset 24
 1386 0004 00AF     		add	r7, sp, #0
 1387              		.cfi_def_cfa_register 7
 306:mis.c         ****     uint32 result = 0;
 1388              		.loc 1 306 0
 1389 0006 0023     		movs	r3, #0
 1390 0008 FB60     		str	r3, [r7, #12]
 307:mis.c         ****      uint32 cur_timestampTimer = 0;
 1391              		.loc 1 307 0
 1392 000a 0023     		movs	r3, #0
 1393 000c BB60     		str	r3, [r7, #8]
 308:mis.c         ****     if (capture_3_count == 2)
 1394              		.loc 1 308 0
 1395 000e 1F4B     		ldr	r3, .L97
 1396 0010 1B68     		ldr	r3, [r3]
 1397 0012 022B     		cmp	r3, #2
 1398 0014 10D1     		bne	.L93
 309:mis.c         ****     {
 310:mis.c         ****         result  = (capture_3_timestampTimer[0]<<8) | (0xFF & capture_3_Timestamp_hw[0]); /* timesta
 1399              		.loc 1 310 0
 1400 0016 1E4B     		ldr	r3, .L97+4
ARM GAS  C:\Users\Tomas\AppData\Local\Temp\cc1QFzoE.s 			page 31


 1401 0018 1B68     		ldr	r3, [r3]
 1402 001a 1B02     		lsls	r3, r3, #8
 1403 001c 1D4A     		ldr	r2, .L97+8
 1404 001e 1278     		ldrb	r2, [r2]	@ zero_extendqisi2
 1405 0020 1343     		orrs	r3, r3, r2
 1406 0022 FB60     		str	r3, [r7, #12]
 311:mis.c         ****         result -= (capture_3_timestampTimer[1]<<8) | (0xFF & capture_3_Timestamp_hw[1]); /* timesta
 1407              		.loc 1 311 0
 1408 0024 1A4B     		ldr	r3, .L97+4
 1409 0026 5B68     		ldr	r3, [r3, #4]
 1410 0028 1B02     		lsls	r3, r3, #8
 1411 002a 1A4A     		ldr	r2, .L97+8
 1412 002c 5278     		ldrb	r2, [r2, #1]	@ zero_extendqisi2
 1413 002e 1343     		orrs	r3, r3, r2
 1414 0030 FA68     		ldr	r2, [r7, #12]
 1415 0032 D31A     		subs	r3, r2, r3
 1416 0034 FB60     		str	r3, [r7, #12]
 1417 0036 23E0     		b	.L94
 1418              	.L93:
 312:mis.c         ****     }
 313:mis.c         ****     else if (capture_3_count == 1)
 1419              		.loc 1 313 0
 1420 0038 144B     		ldr	r3, .L97
 1421 003a 1B68     		ldr	r3, [r3]
 1422 003c 012B     		cmp	r3, #1
 1423 003e 1FD1     		bne	.L94
 1424              	.LBB4:
 314:mis.c         ****     {
 315:mis.c         ****         result  = (capture_3_timestampTimer[0]<<8) | (0xFF & capture_3_Timestamp_hw[0]); /* timesta
 1425              		.loc 1 315 0
 1426 0040 134B     		ldr	r3, .L97+4
 1427 0042 1B68     		ldr	r3, [r3]
 1428 0044 1B02     		lsls	r3, r3, #8
 1429 0046 134A     		ldr	r2, .L97+8
 1430 0048 1278     		ldrb	r2, [r2]	@ zero_extendqisi2
 1431 004a 1343     		orrs	r3, r3, r2
 1432 004c FB60     		str	r3, [r7, #12]
 316:mis.c         ****         uint8 hw_old;
 317:mis.c         ****         uint8 hw_new;
 318:mis.c         ****         hw_old = Timestamp_ReadCounter();
 1433              		.loc 1 318 0
 1434 004e FFF7FEFF 		bl	Timestamp_ReadCounter
 1435 0052 0346     		mov	r3, r0
 1436 0054 FB71     		strb	r3, [r7, #7]
 319:mis.c         ****         cur_timestampTimer = timestampTimer;
 1437              		.loc 1 319 0
 1438 0056 104B     		ldr	r3, .L97+12
 1439 0058 1B68     		ldr	r3, [r3]
 1440 005a BB60     		str	r3, [r7, #8]
 320:mis.c         ****         hw_new = Timestamp_ReadCounter();
 1441              		.loc 1 320 0
 1442 005c FFF7FEFF 		bl	Timestamp_ReadCounter
 1443 0060 0346     		mov	r3, r0
 1444 0062 BB71     		strb	r3, [r7, #6]
 321:mis.c         ****         if (hw_new > hw_old)
 1445              		.loc 1 321 0
 1446 0064 BA79     		ldrb	r2, [r7, #6]	@ zero_extendqisi2
ARM GAS  C:\Users\Tomas\AppData\Local\Temp\cc1QFzoE.s 			page 32


 1447 0066 FB79     		ldrb	r3, [r7, #7]	@ zero_extendqisi2
 1448 0068 9A42     		cmp	r2, r3
 1449 006a 02D9     		bls	.L95
 322:mis.c         ****         {
 323:mis.c         ****             //hardware overflow
 324:mis.c         ****             cur_timestampTimer--;
 1450              		.loc 1 324 0
 1451 006c BB68     		ldr	r3, [r7, #8]
 1452 006e 013B     		subs	r3, r3, #1
 1453 0070 BB60     		str	r3, [r7, #8]
 1454              	.L95:
 325:mis.c         ****         }
 326:mis.c         ****         result -= (cur_timestampTimer<<8) | (0xFF & hw_new); /* timestampTimerStop  */
 1455              		.loc 1 326 0
 1456 0072 BB68     		ldr	r3, [r7, #8]
 1457 0074 1A02     		lsls	r2, r3, #8
 1458 0076 BB79     		ldrb	r3, [r7, #6]	@ zero_extendqisi2
 1459 0078 1343     		orrs	r3, r3, r2
 1460 007a FA68     		ldr	r2, [r7, #12]
 1461 007c D31A     		subs	r3, r2, r3
 1462 007e FB60     		str	r3, [r7, #12]
 1463              	.L94:
 1464              	.LBE4:
 327:mis.c         ****     }
 328:mis.c         ****     return result;
 1465              		.loc 1 328 0
 1466 0080 FB68     		ldr	r3, [r7, #12]
 329:mis.c         **** }
 1467              		.loc 1 329 0
 1468 0082 1846     		mov	r0, r3
 1469 0084 1037     		adds	r7, r7, #16
 1470              		.cfi_def_cfa_offset 8
 1471 0086 BD46     		mov	sp, r7
 1472              		.cfi_def_cfa_register 13
 1473              		@ sp needed
 1474 0088 80BD     		pop	{r7, pc}
 1475              	.L98:
 1476 008a 00BF     		.align	2
 1477              	.L97:
 1478 008c 00000000 		.word	capture_3_count
 1479 0090 00000000 		.word	capture_3_timestampTimer
 1480 0094 00000000 		.word	capture_3_Timestamp_hw
 1481 0098 00000000 		.word	timestampTimer
 1482              		.cfi_endproc
 1483              	.LFE85:
 1484              		.size	MIS3_ReadCurTime, .-MIS3_ReadCurTime
 1485              		.section	.text.MIS3_SetBurstTimeout,"ax",%progbits
 1486              		.align	2
 1487              		.global	MIS3_SetBurstTimeout
 1488              		.thumb
 1489              		.thumb_func
 1490              		.type	MIS3_SetBurstTimeout, %function
 1491              	MIS3_SetBurstTimeout:
 1492              	.LFB86:
 330:mis.c         **** void MIS3_SetBurstTimeout(uint32 t)
 331:mis.c         **** {
 1493              		.loc 1 331 0
ARM GAS  C:\Users\Tomas\AppData\Local\Temp\cc1QFzoE.s 			page 33


 1494              		.cfi_startproc
 1495              		@ args = 0, pretend = 0, frame = 8
 1496              		@ frame_needed = 1, uses_anonymous_args = 0
 1497 0000 80B5     		push	{r7, lr}
 1498              		.cfi_def_cfa_offset 8
 1499              		.cfi_offset 7, -8
 1500              		.cfi_offset 14, -4
 1501 0002 82B0     		sub	sp, sp, #8
 1502              		.cfi_def_cfa_offset 16
 1503 0004 00AF     		add	r7, sp, #0
 1504              		.cfi_def_cfa_register 7
 1505 0006 7860     		str	r0, [r7, #4]
 332:mis.c         ****     BurstTimeout_3_WritePeriod(t);
 1506              		.loc 1 332 0
 1507 0008 7B68     		ldr	r3, [r7, #4]
 1508 000a 9BB2     		uxth	r3, r3
 1509 000c 1846     		mov	r0, r3
 1510 000e FFF7FEFF 		bl	BurstTimeout_3_WritePeriod
 333:mis.c         **** }
 1511              		.loc 1 333 0
 1512 0012 00BF     		nop
 1513 0014 0837     		adds	r7, r7, #8
 1514              		.cfi_def_cfa_offset 8
 1515 0016 BD46     		mov	sp, r7
 1516              		.cfi_def_cfa_register 13
 1517              		@ sp needed
 1518 0018 80BD     		pop	{r7, pc}
 1519              		.cfi_endproc
 1520              	.LFE86:
 1521              		.size	MIS3_SetBurstTimeout, .-MIS3_SetBurstTimeout
 1522 001a 00BF     		.section	.text.MIS3_WaitPacket,"ax",%progbits
 1523              		.align	2
 1524              		.global	MIS3_WaitPacket
 1525              		.thumb
 1526              		.thumb_func
 1527              		.type	MIS3_WaitPacket, %function
 1528              	MIS3_WaitPacket:
 1529              	.LFB87:
 334:mis.c         **** 
 335:mis.c         **** int MIS3_WaitPacket(void)
 336:mis.c         **** {
 1530              		.loc 1 336 0
 1531              		.cfi_startproc
 1532              		@ args = 0, pretend = 0, frame = 0
 1533              		@ frame_needed = 1, uses_anonymous_args = 0
 1534 0000 80B5     		push	{r7, lr}
 1535              		.cfi_def_cfa_offset 8
 1536              		.cfi_offset 7, -8
 1537              		.cfi_offset 14, -4
 1538 0002 00AF     		add	r7, sp, #0
 1539              		.cfi_def_cfa_register 7
 337:mis.c         ****     while (0 == (3 & MIS_Stat_Read()));
 1540              		.loc 1 337 0
 1541 0004 00BF     		nop
 1542              	.L101:
 1543              		.loc 1 337 0 is_stmt 0 discriminator 1
 1544 0006 FFF7FEFF 		bl	MIS_Stat_Read
ARM GAS  C:\Users\Tomas\AppData\Local\Temp\cc1QFzoE.s 			page 34


 1545 000a 0346     		mov	r3, r0
 1546 000c 03F00303 		and	r3, r3, #3
 1547 0010 DBB2     		uxtb	r3, r3
 1548 0012 002B     		cmp	r3, #0
 1549 0014 F7D0     		beq	.L101
 338:mis.c         ****     return 0;
 1550              		.loc 1 338 0 is_stmt 1
 1551 0016 0023     		movs	r3, #0
 339:mis.c         **** }
 1552              		.loc 1 339 0
 1553 0018 1846     		mov	r0, r3
 1554 001a 80BD     		pop	{r7, pc}
 1555              		.cfi_endproc
 1556              	.LFE87:
 1557              		.size	MIS3_WaitPacket, .-MIS3_WaitPacket
 1558              		.section	.text.MIS3_Measure,"ax",%progbits
 1559              		.align	2
 1560              		.global	MIS3_Measure
 1561              		.thumb
 1562              		.thumb_func
 1563              		.type	MIS3_Measure, %function
 1564              	MIS3_Measure:
 1565              	.LFB88:
 340:mis.c         **** 
 341:mis.c         **** int MIS3_Measure(uint32 time_ms)
 342:mis.c         **** {
 1566              		.loc 1 342 0
 1567              		.cfi_startproc
 1568              		@ args = 0, pretend = 0, frame = 16
 1569              		@ frame_needed = 1, uses_anonymous_args = 0
 1570 0000 80B5     		push	{r7, lr}
 1571              		.cfi_def_cfa_offset 8
 1572              		.cfi_offset 7, -8
 1573              		.cfi_offset 14, -4
 1574 0002 84B0     		sub	sp, sp, #16
 1575              		.cfi_def_cfa_offset 24
 1576 0004 00AF     		add	r7, sp, #0
 1577              		.cfi_def_cfa_register 7
 1578 0006 7860     		str	r0, [r7, #4]
 343:mis.c         ****     int result;
 344:mis.c         ****     
 345:mis.c         ****     MIS_Start();
 1579              		.loc 1 345 0
 1580 0008 FFF7FEFF 		bl	MIS_Start
 346:mis.c         ****     
 347:mis.c         ****     result = MIS3_WaitPacket();
 1581              		.loc 1 347 0
 1582 000c FFF7FEFF 		bl	MIS3_WaitPacket
 1583 0010 F860     		str	r0, [r7, #12]
 348:mis.c         ****     if (0 != result) return result;
 1584              		.loc 1 348 0
 1585 0012 FB68     		ldr	r3, [r7, #12]
 1586 0014 002B     		cmp	r3, #0
 1587 0016 01D0     		beq	.L104
 1588              		.loc 1 348 0 is_stmt 0 discriminator 1
 1589 0018 FB68     		ldr	r3, [r7, #12]
 1590 001a 0DE0     		b	.L105
ARM GAS  C:\Users\Tomas\AppData\Local\Temp\cc1QFzoE.s 			page 35


 1591              	.L104:
 349:mis.c         ****     
 350:mis.c         ****     CyDelay(time_ms);
 1592              		.loc 1 350 0 is_stmt 1
 1593 001c 7868     		ldr	r0, [r7, #4]
 1594 001e FFF7FEFF 		bl	CyDelay
 351:mis.c         ****     
 352:mis.c         ****     MIS_Stop();
 1595              		.loc 1 352 0
 1596 0022 FFF7FEFF 		bl	MIS_Stop
 353:mis.c         ****     result = MIS3_WaitPacket();
 1597              		.loc 1 353 0
 1598 0026 FFF7FEFF 		bl	MIS3_WaitPacket
 1599 002a F860     		str	r0, [r7, #12]
 354:mis.c         ****     if (0 != result) return result;
 1600              		.loc 1 354 0
 1601 002c FB68     		ldr	r3, [r7, #12]
 1602 002e 002B     		cmp	r3, #0
 1603 0030 01D0     		beq	.L106
 1604              		.loc 1 354 0 is_stmt 0 discriminator 1
 1605 0032 FB68     		ldr	r3, [r7, #12]
 1606 0034 00E0     		b	.L105
 1607              	.L106:
 355:mis.c         ****     
 356:mis.c         ****     return result;
 1608              		.loc 1 356 0 is_stmt 1
 1609 0036 FB68     		ldr	r3, [r7, #12]
 1610              	.L105:
 357:mis.c         **** }
 1611              		.loc 1 357 0
 1612 0038 1846     		mov	r0, r3
 1613 003a 1037     		adds	r7, r7, #16
 1614              		.cfi_def_cfa_offset 8
 1615 003c BD46     		mov	sp, r7
 1616              		.cfi_def_cfa_register 13
 1617              		@ sp needed
 1618 003e 80BD     		pop	{r7, pc}
 1619              		.cfi_endproc
 1620              	.LFE88:
 1621              		.size	MIS3_Measure, .-MIS3_Measure
 1622              		.global	pulseCounter4
 1623              		.bss
 1624              		.align	2
 1625              		.type	pulseCounter4, %object
 1626              		.size	pulseCounter4, 4
 1627              	pulseCounter4:
 1628 0010 00000000 		.space	4
 1629              		.section	.text.isr_PulseCounter_4_handler,"ax",%progbits
 1630              		.align	2
 1631              		.global	isr_PulseCounter_4_handler
 1632              		.thumb
 1633              		.thumb_func
 1634              		.type	isr_PulseCounter_4_handler, %function
 1635              	isr_PulseCounter_4_handler:
 1636              	.LFB89:
 358:mis.c         **** 
 359:mis.c         **** /******************************************************************************
ARM GAS  C:\Users\Tomas\AppData\Local\Temp\cc1QFzoE.s 			page 36


 360:mis.c         **** *******************************************************************************/
 361:mis.c         **** 
 362:mis.c         **** /******************************************************************************
 363:mis.c         **** * Project Name		: MIS4
 364:mis.c         **** *******************************************************************************/
 365:mis.c         **** 
 366:mis.c         **** uint32 pulseCounter4 = 0;
 367:mis.c         **** CY_ISR(isr_PulseCounter_4_handler)
 368:mis.c         **** {
 1637              		.loc 1 368 0
 1638              		.cfi_startproc
 1639              		@ args = 0, pretend = 0, frame = 0
 1640              		@ frame_needed = 1, uses_anonymous_args = 0
 1641              		@ link register save eliminated.
 1642 0000 80B4     		push	{r7}
 1643              		.cfi_def_cfa_offset 4
 1644              		.cfi_offset 7, -4
 1645 0002 00AF     		add	r7, sp, #0
 1646              		.cfi_def_cfa_register 7
 369:mis.c         ****    pulseCounter4++;
 1647              		.loc 1 369 0
 1648 0004 044B     		ldr	r3, .L108
 1649 0006 1B68     		ldr	r3, [r3]
 1650 0008 0133     		adds	r3, r3, #1
 1651 000a 034A     		ldr	r2, .L108
 1652 000c 1360     		str	r3, [r2]
 370:mis.c         **** }
 1653              		.loc 1 370 0
 1654 000e 00BF     		nop
 1655 0010 BD46     		mov	sp, r7
 1656              		.cfi_def_cfa_register 13
 1657              		@ sp needed
 1658 0012 80BC     		pop	{r7}
 1659              		.cfi_restore 7
 1660              		.cfi_def_cfa_offset 0
 1661 0014 7047     		bx	lr
 1662              	.L109:
 1663 0016 00BF     		.align	2
 1664              	.L108:
 1665 0018 00000000 		.word	pulseCounter4
 1666              		.cfi_endproc
 1667              	.LFE89:
 1668              		.size	isr_PulseCounter_4_handler, .-isr_PulseCounter_4_handler
 1669              		.comm	capture_4_count,4,4
 1670              		.comm	capture_4_timestampTimer,8,4
 1671              		.comm	capture_4_Timestamp_hw,2,4
 1672              		.section	.text.isr_Capture_4,"ax",%progbits
 1673              		.align	2
 1674              		.global	isr_Capture_4
 1675              		.thumb
 1676              		.thumb_func
 1677              		.type	isr_Capture_4, %function
 1678              	isr_Capture_4:
 1679              	.LFB90:
 371:mis.c         **** 
 372:mis.c         **** 
 373:mis.c         **** uint32 capture_4_count;
ARM GAS  C:\Users\Tomas\AppData\Local\Temp\cc1QFzoE.s 			page 37


 374:mis.c         **** uint32 capture_4_timestampTimer[2];
 375:mis.c         **** uint8  capture_4_Timestamp_hw[2];
 376:mis.c         **** 
 377:mis.c         **** CY_ISR(isr_Capture_4)
 378:mis.c         **** {
 1680              		.loc 1 378 0
 1681              		.cfi_startproc
 1682              		@ args = 0, pretend = 0, frame = 8
 1683              		@ frame_needed = 1, uses_anonymous_args = 0
 1684 0000 80B5     		push	{r7, lr}
 1685              		.cfi_def_cfa_offset 8
 1686              		.cfi_offset 7, -8
 1687              		.cfi_offset 14, -4
 1688 0002 82B0     		sub	sp, sp, #8
 1689              		.cfi_def_cfa_offset 16
 1690 0004 00AF     		add	r7, sp, #0
 1691              		.cfi_def_cfa_register 7
 379:mis.c         ****     uint8 hw_old;
 380:mis.c         ****     uint8 hw_new;
 381:mis.c         ****     if (capture_4_count < sizeof(capture_4_Timestamp_hw))
 1692              		.loc 1 381 0
 1693 0006 174B     		ldr	r3, .L114
 1694 0008 1B68     		ldr	r3, [r3]
 1695 000a 012B     		cmp	r3, #1
 1696 000c 25D8     		bhi	.L113
 382:mis.c         ****     {   
 383:mis.c         ****         hw_old = Timestamp_ReadCounter();
 1697              		.loc 1 383 0
 1698 000e FFF7FEFF 		bl	Timestamp_ReadCounter
 1699 0012 0346     		mov	r3, r0
 1700 0014 FB71     		strb	r3, [r7, #7]
 384:mis.c         ****         capture_4_timestampTimer[capture_4_count] = timestampTimer;
 1701              		.loc 1 384 0
 1702 0016 134B     		ldr	r3, .L114
 1703 0018 1B68     		ldr	r3, [r3]
 1704 001a 134A     		ldr	r2, .L114+4
 1705 001c 1268     		ldr	r2, [r2]
 1706 001e 1349     		ldr	r1, .L114+8
 1707 0020 41F82320 		str	r2, [r1, r3, lsl #2]
 385:mis.c         ****         hw_new = Timestamp_ReadCounter();
 1708              		.loc 1 385 0
 1709 0024 FFF7FEFF 		bl	Timestamp_ReadCounter
 1710 0028 0346     		mov	r3, r0
 1711 002a BB71     		strb	r3, [r7, #6]
 386:mis.c         ****         if (hw_new > hw_old)
 1712              		.loc 1 386 0
 1713 002c BA79     		ldrb	r2, [r7, #6]	@ zero_extendqisi2
 1714 002e FB79     		ldrb	r3, [r7, #7]	@ zero_extendqisi2
 1715 0030 9A42     		cmp	r2, r3
 1716 0032 08D9     		bls	.L112
 387:mis.c         ****         {
 388:mis.c         ****             //hardware overflow
 389:mis.c         ****             capture_4_timestampTimer[capture_4_count]--;
 1717              		.loc 1 389 0
 1718 0034 0B4B     		ldr	r3, .L114
 1719 0036 1B68     		ldr	r3, [r3]
 1720 0038 0C4A     		ldr	r2, .L114+8
ARM GAS  C:\Users\Tomas\AppData\Local\Temp\cc1QFzoE.s 			page 38


 1721 003a 52F82320 		ldr	r2, [r2, r3, lsl #2]
 1722 003e 013A     		subs	r2, r2, #1
 1723 0040 0A49     		ldr	r1, .L114+8
 1724 0042 41F82320 		str	r2, [r1, r3, lsl #2]
 1725              	.L112:
 390:mis.c         ****         }
 391:mis.c         ****         capture_4_Timestamp_hw[capture_4_count] = hw_new;
 1726              		.loc 1 391 0
 1727 0046 074B     		ldr	r3, .L114
 1728 0048 1B68     		ldr	r3, [r3]
 1729 004a 0949     		ldr	r1, .L114+12
 1730 004c BA79     		ldrb	r2, [r7, #6]
 1731 004e CA54     		strb	r2, [r1, r3]
 392:mis.c         ****         capture_4_count++;
 1732              		.loc 1 392 0
 1733 0050 044B     		ldr	r3, .L114
 1734 0052 1B68     		ldr	r3, [r3]
 1735 0054 0133     		adds	r3, r3, #1
 1736 0056 034A     		ldr	r2, .L114
 1737 0058 1360     		str	r3, [r2]
 1738              	.L113:
 393:mis.c         ****     }
 394:mis.c         **** }
 1739              		.loc 1 394 0
 1740 005a 00BF     		nop
 1741 005c 0837     		adds	r7, r7, #8
 1742              		.cfi_def_cfa_offset 8
 1743 005e BD46     		mov	sp, r7
 1744              		.cfi_def_cfa_register 13
 1745              		@ sp needed
 1746 0060 80BD     		pop	{r7, pc}
 1747              	.L115:
 1748 0062 00BF     		.align	2
 1749              	.L114:
 1750 0064 00000000 		.word	capture_4_count
 1751 0068 00000000 		.word	timestampTimer
 1752 006c 00000000 		.word	capture_4_timestampTimer
 1753 0070 00000000 		.word	capture_4_Timestamp_hw
 1754              		.cfi_endproc
 1755              	.LFE90:
 1756              		.size	isr_Capture_4, .-isr_Capture_4
 1757              		.section	.text.MIS4_ReadCount,"ax",%progbits
 1758              		.align	2
 1759              		.global	MIS4_ReadCount
 1760              		.thumb
 1761              		.thumb_func
 1762              		.type	MIS4_ReadCount, %function
 1763              	MIS4_ReadCount:
 1764              	.LFB91:
 395:mis.c         **** 
 396:mis.c         **** uint32 MIS4_ReadCount(void)
 397:mis.c         **** {
 1765              		.loc 1 397 0
 1766              		.cfi_startproc
 1767              		@ args = 0, pretend = 0, frame = 0
 1768              		@ frame_needed = 1, uses_anonymous_args = 0
 1769 0000 98B5     		push	{r3, r4, r7, lr}
ARM GAS  C:\Users\Tomas\AppData\Local\Temp\cc1QFzoE.s 			page 39


 1770              		.cfi_def_cfa_offset 16
 1771              		.cfi_offset 3, -16
 1772              		.cfi_offset 4, -12
 1773              		.cfi_offset 7, -8
 1774              		.cfi_offset 14, -4
 1775 0002 00AF     		add	r7, sp, #0
 1776              		.cfi_def_cfa_register 7
 398:mis.c         ****     return (pulseCounter4<<7) | (0x7F & PulseCounter_4_ReadCounter());
 1777              		.loc 1 398 0
 1778 0004 054B     		ldr	r3, .L118
 1779 0006 1B68     		ldr	r3, [r3]
 1780 0008 DC01     		lsls	r4, r3, #7
 1781 000a FFF7FEFF 		bl	PulseCounter_4_ReadCounter
 1782 000e 0346     		mov	r3, r0
 1783 0010 03F07F03 		and	r3, r3, #127
 1784 0014 2343     		orrs	r3, r3, r4
 399:mis.c         **** }
 1785              		.loc 1 399 0
 1786 0016 1846     		mov	r0, r3
 1787 0018 98BD     		pop	{r3, r4, r7, pc}
 1788              	.L119:
 1789 001a 00BF     		.align	2
 1790              	.L118:
 1791 001c 00000000 		.word	pulseCounter4
 1792              		.cfi_endproc
 1793              	.LFE91:
 1794              		.size	MIS4_ReadCount, .-MIS4_ReadCount
 1795              		.section	.text.MIS4_ReadTotTime,"ax",%progbits
 1796              		.align	2
 1797              		.global	MIS4_ReadTotTime
 1798              		.thumb
 1799              		.thumb_func
 1800              		.type	MIS4_ReadTotTime, %function
 1801              	MIS4_ReadTotTime:
 1802              	.LFB92:
 400:mis.c         **** 
 401:mis.c         **** uint32 MIS4_ReadTotTime(void)
 402:mis.c         **** {
 1803              		.loc 1 402 0
 1804              		.cfi_startproc
 1805              		@ args = 0, pretend = 0, frame = 8
 1806              		@ frame_needed = 1, uses_anonymous_args = 0
 1807              		@ link register save eliminated.
 1808 0000 80B4     		push	{r7}
 1809              		.cfi_def_cfa_offset 4
 1810              		.cfi_offset 7, -4
 1811 0002 83B0     		sub	sp, sp, #12
 1812              		.cfi_def_cfa_offset 16
 1813 0004 00AF     		add	r7, sp, #0
 1814              		.cfi_def_cfa_register 7
 403:mis.c         ****     uint32 result = 0;
 1815              		.loc 1 403 0
 1816 0006 0023     		movs	r3, #0
 1817 0008 7B60     		str	r3, [r7, #4]
 404:mis.c         ****     if (capture_4_count == 2)
 1818              		.loc 1 404 0
 1819 000a 0D4B     		ldr	r3, .L123
ARM GAS  C:\Users\Tomas\AppData\Local\Temp\cc1QFzoE.s 			page 40


 1820 000c 1B68     		ldr	r3, [r3]
 1821 000e 022B     		cmp	r3, #2
 1822 0010 0FD1     		bne	.L121
 405:mis.c         ****     {
 406:mis.c         ****         result  = (capture_4_timestampTimer[0]<<8) | (0xFF & capture_4_Timestamp_hw[0]); /* timesta
 1823              		.loc 1 406 0
 1824 0012 0C4B     		ldr	r3, .L123+4
 1825 0014 1B68     		ldr	r3, [r3]
 1826 0016 1B02     		lsls	r3, r3, #8
 1827 0018 0B4A     		ldr	r2, .L123+8
 1828 001a 1278     		ldrb	r2, [r2]	@ zero_extendqisi2
 1829 001c 1343     		orrs	r3, r3, r2
 1830 001e 7B60     		str	r3, [r7, #4]
 407:mis.c         ****         result -= (capture_4_timestampTimer[1]<<8) | (0xFF & capture_4_Timestamp_hw[1]); /* timesta
 1831              		.loc 1 407 0
 1832 0020 084B     		ldr	r3, .L123+4
 1833 0022 5B68     		ldr	r3, [r3, #4]
 1834 0024 1B02     		lsls	r3, r3, #8
 1835 0026 084A     		ldr	r2, .L123+8
 1836 0028 5278     		ldrb	r2, [r2, #1]	@ zero_extendqisi2
 1837 002a 1343     		orrs	r3, r3, r2
 1838 002c 7A68     		ldr	r2, [r7, #4]
 1839 002e D31A     		subs	r3, r2, r3
 1840 0030 7B60     		str	r3, [r7, #4]
 1841              	.L121:
 408:mis.c         ****     }
 409:mis.c         ****     return result;
 1842              		.loc 1 409 0
 1843 0032 7B68     		ldr	r3, [r7, #4]
 410:mis.c         **** }
 1844              		.loc 1 410 0
 1845 0034 1846     		mov	r0, r3
 1846 0036 0C37     		adds	r7, r7, #12
 1847              		.cfi_def_cfa_offset 4
 1848 0038 BD46     		mov	sp, r7
 1849              		.cfi_def_cfa_register 13
 1850              		@ sp needed
 1851 003a 80BC     		pop	{r7}
 1852              		.cfi_restore 7
 1853              		.cfi_def_cfa_offset 0
 1854 003c 7047     		bx	lr
 1855              	.L124:
 1856 003e 00BF     		.align	2
 1857              	.L123:
 1858 0040 00000000 		.word	capture_4_count
 1859 0044 00000000 		.word	capture_4_timestampTimer
 1860 0048 00000000 		.word	capture_4_Timestamp_hw
 1861              		.cfi_endproc
 1862              	.LFE92:
 1863              		.size	MIS4_ReadTotTime, .-MIS4_ReadTotTime
 1864              		.section	.text.MIS4_ReadCurTime,"ax",%progbits
 1865              		.align	2
 1866              		.global	MIS4_ReadCurTime
 1867              		.thumb
 1868              		.thumb_func
 1869              		.type	MIS4_ReadCurTime, %function
 1870              	MIS4_ReadCurTime:
ARM GAS  C:\Users\Tomas\AppData\Local\Temp\cc1QFzoE.s 			page 41


 1871              	.LFB93:
 411:mis.c         **** 
 412:mis.c         **** uint32 MIS4_ReadCurTime(void)
 413:mis.c         **** {
 1872              		.loc 1 413 0
 1873              		.cfi_startproc
 1874              		@ args = 0, pretend = 0, frame = 16
 1875              		@ frame_needed = 1, uses_anonymous_args = 0
 1876 0000 80B5     		push	{r7, lr}
 1877              		.cfi_def_cfa_offset 8
 1878              		.cfi_offset 7, -8
 1879              		.cfi_offset 14, -4
 1880 0002 84B0     		sub	sp, sp, #16
 1881              		.cfi_def_cfa_offset 24
 1882 0004 00AF     		add	r7, sp, #0
 1883              		.cfi_def_cfa_register 7
 414:mis.c         ****     uint32 result = 0;
 1884              		.loc 1 414 0
 1885 0006 0023     		movs	r3, #0
 1886 0008 FB60     		str	r3, [r7, #12]
 415:mis.c         ****      uint32 cur_timestampTimer = 0;
 1887              		.loc 1 415 0
 1888 000a 0023     		movs	r3, #0
 1889 000c BB60     		str	r3, [r7, #8]
 416:mis.c         ****     if (capture_4_count == 2)
 1890              		.loc 1 416 0
 1891 000e 1F4B     		ldr	r3, .L130
 1892 0010 1B68     		ldr	r3, [r3]
 1893 0012 022B     		cmp	r3, #2
 1894 0014 10D1     		bne	.L126
 417:mis.c         ****     {
 418:mis.c         ****         result  = (capture_4_timestampTimer[0]<<8) | (0xFF & capture_4_Timestamp_hw[0]); /* timesta
 1895              		.loc 1 418 0
 1896 0016 1E4B     		ldr	r3, .L130+4
 1897 0018 1B68     		ldr	r3, [r3]
 1898 001a 1B02     		lsls	r3, r3, #8
 1899 001c 1D4A     		ldr	r2, .L130+8
 1900 001e 1278     		ldrb	r2, [r2]	@ zero_extendqisi2
 1901 0020 1343     		orrs	r3, r3, r2
 1902 0022 FB60     		str	r3, [r7, #12]
 419:mis.c         ****         result -= (capture_4_timestampTimer[1]<<8) | (0xFF & capture_4_Timestamp_hw[1]); /* timesta
 1903              		.loc 1 419 0
 1904 0024 1A4B     		ldr	r3, .L130+4
 1905 0026 5B68     		ldr	r3, [r3, #4]
 1906 0028 1B02     		lsls	r3, r3, #8
 1907 002a 1A4A     		ldr	r2, .L130+8
 1908 002c 5278     		ldrb	r2, [r2, #1]	@ zero_extendqisi2
 1909 002e 1343     		orrs	r3, r3, r2
 1910 0030 FA68     		ldr	r2, [r7, #12]
 1911 0032 D31A     		subs	r3, r2, r3
 1912 0034 FB60     		str	r3, [r7, #12]
 1913 0036 23E0     		b	.L127
 1914              	.L126:
 420:mis.c         ****     }
 421:mis.c         ****     else if (capture_4_count == 1)
 1915              		.loc 1 421 0
 1916 0038 144B     		ldr	r3, .L130
ARM GAS  C:\Users\Tomas\AppData\Local\Temp\cc1QFzoE.s 			page 42


 1917 003a 1B68     		ldr	r3, [r3]
 1918 003c 012B     		cmp	r3, #1
 1919 003e 1FD1     		bne	.L127
 1920              	.LBB5:
 422:mis.c         ****     {
 423:mis.c         ****         result  = (capture_4_timestampTimer[0]<<8) | (0xFF & capture_4_Timestamp_hw[0]); /* timesta
 1921              		.loc 1 423 0
 1922 0040 134B     		ldr	r3, .L130+4
 1923 0042 1B68     		ldr	r3, [r3]
 1924 0044 1B02     		lsls	r3, r3, #8
 1925 0046 134A     		ldr	r2, .L130+8
 1926 0048 1278     		ldrb	r2, [r2]	@ zero_extendqisi2
 1927 004a 1343     		orrs	r3, r3, r2
 1928 004c FB60     		str	r3, [r7, #12]
 424:mis.c         ****         uint8 hw_old;
 425:mis.c         ****         uint8 hw_new;
 426:mis.c         ****         hw_old = Timestamp_ReadCounter();
 1929              		.loc 1 426 0
 1930 004e FFF7FEFF 		bl	Timestamp_ReadCounter
 1931 0052 0346     		mov	r3, r0
 1932 0054 FB71     		strb	r3, [r7, #7]
 427:mis.c         ****         cur_timestampTimer = timestampTimer;
 1933              		.loc 1 427 0
 1934 0056 104B     		ldr	r3, .L130+12
 1935 0058 1B68     		ldr	r3, [r3]
 1936 005a BB60     		str	r3, [r7, #8]
 428:mis.c         ****         hw_new = Timestamp_ReadCounter();
 1937              		.loc 1 428 0
 1938 005c FFF7FEFF 		bl	Timestamp_ReadCounter
 1939 0060 0346     		mov	r3, r0
 1940 0062 BB71     		strb	r3, [r7, #6]
 429:mis.c         ****         if (hw_new > hw_old)
 1941              		.loc 1 429 0
 1942 0064 BA79     		ldrb	r2, [r7, #6]	@ zero_extendqisi2
 1943 0066 FB79     		ldrb	r3, [r7, #7]	@ zero_extendqisi2
 1944 0068 9A42     		cmp	r2, r3
 1945 006a 02D9     		bls	.L128
 430:mis.c         ****         {
 431:mis.c         ****             //hardware overflow
 432:mis.c         ****             cur_timestampTimer--;
 1946              		.loc 1 432 0
 1947 006c BB68     		ldr	r3, [r7, #8]
 1948 006e 013B     		subs	r3, r3, #1
 1949 0070 BB60     		str	r3, [r7, #8]
 1950              	.L128:
 433:mis.c         ****         }
 434:mis.c         ****         result -= (cur_timestampTimer<<8) | (0xFF & hw_new); /* timestampTimerStop  */
 1951              		.loc 1 434 0
 1952 0072 BB68     		ldr	r3, [r7, #8]
 1953 0074 1A02     		lsls	r2, r3, #8
 1954 0076 BB79     		ldrb	r3, [r7, #6]	@ zero_extendqisi2
 1955 0078 1343     		orrs	r3, r3, r2
 1956 007a FA68     		ldr	r2, [r7, #12]
 1957 007c D31A     		subs	r3, r2, r3
 1958 007e FB60     		str	r3, [r7, #12]
 1959              	.L127:
 1960              	.LBE5:
ARM GAS  C:\Users\Tomas\AppData\Local\Temp\cc1QFzoE.s 			page 43


 435:mis.c         ****     }
 436:mis.c         ****     return result;
 1961              		.loc 1 436 0
 1962 0080 FB68     		ldr	r3, [r7, #12]
 437:mis.c         **** }
 1963              		.loc 1 437 0
 1964 0082 1846     		mov	r0, r3
 1965 0084 1037     		adds	r7, r7, #16
 1966              		.cfi_def_cfa_offset 8
 1967 0086 BD46     		mov	sp, r7
 1968              		.cfi_def_cfa_register 13
 1969              		@ sp needed
 1970 0088 80BD     		pop	{r7, pc}
 1971              	.L131:
 1972 008a 00BF     		.align	2
 1973              	.L130:
 1974 008c 00000000 		.word	capture_4_count
 1975 0090 00000000 		.word	capture_4_timestampTimer
 1976 0094 00000000 		.word	capture_4_Timestamp_hw
 1977 0098 00000000 		.word	timestampTimer
 1978              		.cfi_endproc
 1979              	.LFE93:
 1980              		.size	MIS4_ReadCurTime, .-MIS4_ReadCurTime
 1981              		.section	.text.MIS4_SetBurstTimeout,"ax",%progbits
 1982              		.align	2
 1983              		.global	MIS4_SetBurstTimeout
 1984              		.thumb
 1985              		.thumb_func
 1986              		.type	MIS4_SetBurstTimeout, %function
 1987              	MIS4_SetBurstTimeout:
 1988              	.LFB94:
 438:mis.c         **** 
 439:mis.c         **** void MIS4_SetBurstTimeout(uint32 t)
 440:mis.c         **** {
 1989              		.loc 1 440 0
 1990              		.cfi_startproc
 1991              		@ args = 0, pretend = 0, frame = 8
 1992              		@ frame_needed = 1, uses_anonymous_args = 0
 1993 0000 80B5     		push	{r7, lr}
 1994              		.cfi_def_cfa_offset 8
 1995              		.cfi_offset 7, -8
 1996              		.cfi_offset 14, -4
 1997 0002 82B0     		sub	sp, sp, #8
 1998              		.cfi_def_cfa_offset 16
 1999 0004 00AF     		add	r7, sp, #0
 2000              		.cfi_def_cfa_register 7
 2001 0006 7860     		str	r0, [r7, #4]
 441:mis.c         ****     BurstTimeout_4_WritePeriod(t);
 2002              		.loc 1 441 0
 2003 0008 7B68     		ldr	r3, [r7, #4]
 2004 000a 9BB2     		uxth	r3, r3
 2005 000c 1846     		mov	r0, r3
 2006 000e FFF7FEFF 		bl	BurstTimeout_4_WritePeriod
 442:mis.c         **** }
 2007              		.loc 1 442 0
 2008 0012 00BF     		nop
 2009 0014 0837     		adds	r7, r7, #8
ARM GAS  C:\Users\Tomas\AppData\Local\Temp\cc1QFzoE.s 			page 44


 2010              		.cfi_def_cfa_offset 8
 2011 0016 BD46     		mov	sp, r7
 2012              		.cfi_def_cfa_register 13
 2013              		@ sp needed
 2014 0018 80BD     		pop	{r7, pc}
 2015              		.cfi_endproc
 2016              	.LFE94:
 2017              		.size	MIS4_SetBurstTimeout, .-MIS4_SetBurstTimeout
 2018 001a 00BF     		.section	.text.MIS4_WaitPacket,"ax",%progbits
 2019              		.align	2
 2020              		.global	MIS4_WaitPacket
 2021              		.thumb
 2022              		.thumb_func
 2023              		.type	MIS4_WaitPacket, %function
 2024              	MIS4_WaitPacket:
 2025              	.LFB95:
 443:mis.c         **** 
 444:mis.c         **** int MIS4_WaitPacket(void)
 445:mis.c         **** {
 2026              		.loc 1 445 0
 2027              		.cfi_startproc
 2028              		@ args = 0, pretend = 0, frame = 0
 2029              		@ frame_needed = 1, uses_anonymous_args = 0
 2030 0000 80B5     		push	{r7, lr}
 2031              		.cfi_def_cfa_offset 8
 2032              		.cfi_offset 7, -8
 2033              		.cfi_offset 14, -4
 2034 0002 00AF     		add	r7, sp, #0
 2035              		.cfi_def_cfa_register 7
 446:mis.c         ****     while (0 == (4 & MIS_Stat_Read()));
 2036              		.loc 1 446 0
 2037 0004 00BF     		nop
 2038              	.L134:
 2039              		.loc 1 446 0 is_stmt 0 discriminator 1
 2040 0006 FFF7FEFF 		bl	MIS_Stat_Read
 2041 000a 0346     		mov	r3, r0
 2042 000c 03F00403 		and	r3, r3, #4
 2043 0010 DBB2     		uxtb	r3, r3
 2044 0012 002B     		cmp	r3, #0
 2045 0014 F7D0     		beq	.L134
 447:mis.c         ****     return 0;
 2046              		.loc 1 447 0 is_stmt 1
 2047 0016 0023     		movs	r3, #0
 448:mis.c         **** }
 2048              		.loc 1 448 0
 2049 0018 1846     		mov	r0, r3
 2050 001a 80BD     		pop	{r7, pc}
 2051              		.cfi_endproc
 2052              	.LFE95:
 2053              		.size	MIS4_WaitPacket, .-MIS4_WaitPacket
 2054              		.section	.text.MIS4_Measure,"ax",%progbits
 2055              		.align	2
 2056              		.global	MIS4_Measure
 2057              		.thumb
 2058              		.thumb_func
 2059              		.type	MIS4_Measure, %function
 2060              	MIS4_Measure:
ARM GAS  C:\Users\Tomas\AppData\Local\Temp\cc1QFzoE.s 			page 45


 2061              	.LFB96:
 449:mis.c         **** 
 450:mis.c         **** int MIS4_Measure(uint32 time_ms)
 451:mis.c         **** {
 2062              		.loc 1 451 0
 2063              		.cfi_startproc
 2064              		@ args = 0, pretend = 0, frame = 16
 2065              		@ frame_needed = 1, uses_anonymous_args = 0
 2066 0000 80B5     		push	{r7, lr}
 2067              		.cfi_def_cfa_offset 8
 2068              		.cfi_offset 7, -8
 2069              		.cfi_offset 14, -4
 2070 0002 84B0     		sub	sp, sp, #16
 2071              		.cfi_def_cfa_offset 24
 2072 0004 00AF     		add	r7, sp, #0
 2073              		.cfi_def_cfa_register 7
 2074 0006 7860     		str	r0, [r7, #4]
 452:mis.c         ****     int result;
 453:mis.c         ****     
 454:mis.c         ****     MIS_Start();
 2075              		.loc 1 454 0
 2076 0008 FFF7FEFF 		bl	MIS_Start
 455:mis.c         ****     
 456:mis.c         ****     result = MIS4_WaitPacket();
 2077              		.loc 1 456 0
 2078 000c FFF7FEFF 		bl	MIS4_WaitPacket
 2079 0010 F860     		str	r0, [r7, #12]
 457:mis.c         ****     if (0 != result) return result;
 2080              		.loc 1 457 0
 2081 0012 FB68     		ldr	r3, [r7, #12]
 2082 0014 002B     		cmp	r3, #0
 2083 0016 01D0     		beq	.L137
 2084              		.loc 1 457 0 is_stmt 0 discriminator 1
 2085 0018 FB68     		ldr	r3, [r7, #12]
 2086 001a 0DE0     		b	.L138
 2087              	.L137:
 458:mis.c         ****     
 459:mis.c         ****     CyDelay(time_ms);
 2088              		.loc 1 459 0 is_stmt 1
 2089 001c 7868     		ldr	r0, [r7, #4]
 2090 001e FFF7FEFF 		bl	CyDelay
 460:mis.c         ****     
 461:mis.c         ****     MIS_Stop();
 2091              		.loc 1 461 0
 2092 0022 FFF7FEFF 		bl	MIS_Stop
 462:mis.c         ****     result = MIS4_WaitPacket();
 2093              		.loc 1 462 0
 2094 0026 FFF7FEFF 		bl	MIS4_WaitPacket
 2095 002a F860     		str	r0, [r7, #12]
 463:mis.c         ****     if (0 != result) return result;
 2096              		.loc 1 463 0
 2097 002c FB68     		ldr	r3, [r7, #12]
 2098 002e 002B     		cmp	r3, #0
 2099 0030 01D0     		beq	.L139
 2100              		.loc 1 463 0 is_stmt 0 discriminator 1
 2101 0032 FB68     		ldr	r3, [r7, #12]
 2102 0034 00E0     		b	.L138
ARM GAS  C:\Users\Tomas\AppData\Local\Temp\cc1QFzoE.s 			page 46


 2103              	.L139:
 464:mis.c         ****     
 465:mis.c         ****     return result;
 2104              		.loc 1 465 0 is_stmt 1
 2105 0036 FB68     		ldr	r3, [r7, #12]
 2106              	.L138:
 466:mis.c         **** }
 2107              		.loc 1 466 0
 2108 0038 1846     		mov	r0, r3
 2109 003a 1037     		adds	r7, r7, #16
 2110              		.cfi_def_cfa_offset 8
 2111 003c BD46     		mov	sp, r7
 2112              		.cfi_def_cfa_register 13
 2113              		@ sp needed
 2114 003e 80BD     		pop	{r7, pc}
 2115              		.cfi_endproc
 2116              	.LFE96:
 2117              		.size	MIS4_Measure, .-MIS4_Measure
 2118              		.section	.text.MIS_Start,"ax",%progbits
 2119              		.align	2
 2120              		.global	MIS_Start
 2121              		.thumb
 2122              		.thumb_func
 2123              		.type	MIS_Start, %function
 2124              	MIS_Start:
 2125              	.LFB97:
 467:mis.c         **** 
 468:mis.c         **** /******************************************************************************
 469:mis.c         **** *******************************************************************************/
 470:mis.c         **** 
 471:mis.c         **** 
 472:mis.c         **** /******************************************************************************
 473:mis.c         **** * Project Name		: MIS
 474:mis.c         **** *******************************************************************************/
 475:mis.c         **** 
 476:mis.c         **** #define MIS_RST0 (1)
 477:mis.c         **** #define MIS_RST  (2)
 478:mis.c         **** #define MIS_CTRL (4)
 479:mis.c         **** 
 480:mis.c         **** 
 481:mis.c         **** void MIS_Start(void)
 482:mis.c         **** {
 2126              		.loc 1 482 0
 2127              		.cfi_startproc
 2128              		@ args = 0, pretend = 0, frame = 16
 2129              		@ frame_needed = 1, uses_anonymous_args = 0
 2130 0000 80B5     		push	{r7, lr}
 2131              		.cfi_def_cfa_offset 8
 2132              		.cfi_offset 7, -8
 2133              		.cfi_offset 14, -4
 2134 0002 84B0     		sub	sp, sp, #16
 2135              		.cfi_def_cfa_offset 24
 2136 0004 00AF     		add	r7, sp, #0
 2137              		.cfi_def_cfa_register 7
 483:mis.c         ****     MIS_Reg_Write(MIS_RST0 + MIS_RST);
 2138              		.loc 1 483 0
 2139 0006 0320     		movs	r0, #3
ARM GAS  C:\Users\Tomas\AppData\Local\Temp\cc1QFzoE.s 			page 47


 2140 0008 FFF7FEFF 		bl	MIS_Reg_Write
 484:mis.c         ****     CyDelay(1);
 2141              		.loc 1 484 0
 2142 000c 0120     		movs	r0, #1
 2143 000e FFF7FEFF 		bl	CyDelay
 485:mis.c         ****     capture_1_count=capture_2_count=capture_3_count=capture_4_count=0;
 2144              		.loc 1 485 0
 2145 0012 1F4B     		ldr	r3, .L141
 2146 0014 0022     		movs	r2, #0
 2147 0016 1A60     		str	r2, [r3]
 2148 0018 1D4B     		ldr	r3, .L141
 2149 001a 1B68     		ldr	r3, [r3]
 2150 001c 1D4A     		ldr	r2, .L141+4
 2151 001e 1360     		str	r3, [r2]
 2152 0020 1C4B     		ldr	r3, .L141+4
 2153 0022 1B68     		ldr	r3, [r3]
 2154 0024 1C4A     		ldr	r2, .L141+8
 2155 0026 1360     		str	r3, [r2]
 2156 0028 1B4B     		ldr	r3, .L141+8
 2157 002a 1B68     		ldr	r3, [r3]
 2158 002c 1B4A     		ldr	r2, .L141+12
 2159 002e 1360     		str	r3, [r2]
 486:mis.c         ****     PulseCounter_1_WriteCounter(0);
 2160              		.loc 1 486 0
 2161 0030 0020     		movs	r0, #0
 2162 0032 FFF7FEFF 		bl	PulseCounter_1_WriteCounter
 487:mis.c         ****     PulseCounter_2_WriteCounter(0);
 2163              		.loc 1 487 0
 2164 0036 0020     		movs	r0, #0
 2165 0038 FFF7FEFF 		bl	PulseCounter_2_WriteCounter
 488:mis.c         ****     PulseCounter_3_WriteCounter(0);
 2166              		.loc 1 488 0
 2167 003c 0020     		movs	r0, #0
 2168 003e FFF7FEFF 		bl	PulseCounter_3_WriteCounter
 489:mis.c         ****     PulseCounter_4_WriteCounter(0);
 2169              		.loc 1 489 0
 2170 0042 0020     		movs	r0, #0
 2171 0044 FFF7FEFF 		bl	PulseCounter_4_WriteCounter
 490:mis.c         ****     pulseCounter1 = pulseCounter2 = pulseCounter3 = pulseCounter4 = 0;
 2172              		.loc 1 490 0
 2173 0048 154B     		ldr	r3, .L141+16
 2174 004a 0022     		movs	r2, #0
 2175 004c 1A60     		str	r2, [r3]
 2176 004e 144B     		ldr	r3, .L141+16
 2177 0050 1B68     		ldr	r3, [r3]
 2178 0052 144A     		ldr	r2, .L141+20
 2179 0054 1360     		str	r3, [r2]
 2180 0056 134B     		ldr	r3, .L141+20
 2181 0058 1B68     		ldr	r3, [r3]
 2182 005a 134A     		ldr	r2, .L141+24
 2183 005c 1360     		str	r3, [r2]
 2184 005e 124B     		ldr	r3, .L141+24
 2185 0060 1B68     		ldr	r3, [r3]
 2186 0062 124A     		ldr	r2, .L141+28
 2187 0064 1360     		str	r3, [r2]
 491:mis.c         ****     uint32 old_MIS1_pulse = 0;
 2188              		.loc 1 491 0
ARM GAS  C:\Users\Tomas\AppData\Local\Temp\cc1QFzoE.s 			page 48


 2189 0066 0023     		movs	r3, #0
 2190 0068 FB60     		str	r3, [r7, #12]
 492:mis.c         ****     uint32 old_MIS2_pulse = 0;
 2191              		.loc 1 492 0
 2192 006a 0023     		movs	r3, #0
 2193 006c BB60     		str	r3, [r7, #8]
 493:mis.c         ****     uint32 old_MIS3_pulse = 0;
 2194              		.loc 1 493 0
 2195 006e 0023     		movs	r3, #0
 2196 0070 7B60     		str	r3, [r7, #4]
 494:mis.c         ****     uint32 old_MIS4_pulse = 0;
 2197              		.loc 1 494 0
 2198 0072 0023     		movs	r3, #0
 2199 0074 3B60     		str	r3, [r7]
 495:mis.c         ****     MIS_Reg_Write(0);
 2200              		.loc 1 495 0
 2201 0076 0020     		movs	r0, #0
 2202 0078 FFF7FEFF 		bl	MIS_Reg_Write
 496:mis.c         ****     QuadDec_1_SetCounter(0);
 2203              		.loc 1 496 0
 2204 007c 0020     		movs	r0, #0
 2205 007e FFF7FEFF 		bl	QuadDec_1_SetCounter
 497:mis.c         ****     QuadDec_2_SetCounter(0);
 2206              		.loc 1 497 0
 2207 0082 0020     		movs	r0, #0
 2208 0084 FFF7FEFF 		bl	QuadDec_2_SetCounter
 498:mis.c         **** }
 2209              		.loc 1 498 0
 2210 0088 00BF     		nop
 2211 008a 1037     		adds	r7, r7, #16
 2212              		.cfi_def_cfa_offset 8
 2213 008c BD46     		mov	sp, r7
 2214              		.cfi_def_cfa_register 13
 2215              		@ sp needed
 2216 008e 80BD     		pop	{r7, pc}
 2217              	.L142:
 2218              		.align	2
 2219              	.L141:
 2220 0090 00000000 		.word	capture_4_count
 2221 0094 00000000 		.word	capture_3_count
 2222 0098 00000000 		.word	capture_2_count
 2223 009c 00000000 		.word	capture_1_count
 2224 00a0 00000000 		.word	pulseCounter4
 2225 00a4 00000000 		.word	pulseCounter3
 2226 00a8 00000000 		.word	pulseCounter2
 2227 00ac 00000000 		.word	pulseCounter1
 2228              		.cfi_endproc
 2229              	.LFE97:
 2230              		.size	MIS_Start, .-MIS_Start
 2231              		.section	.text.MIS_Stop,"ax",%progbits
 2232              		.align	2
 2233              		.global	MIS_Stop
 2234              		.thumb
 2235              		.thumb_func
 2236              		.type	MIS_Stop, %function
 2237              	MIS_Stop:
 2238              	.LFB98:
ARM GAS  C:\Users\Tomas\AppData\Local\Temp\cc1QFzoE.s 			page 49


 499:mis.c         **** 
 500:mis.c         **** void MIS_Stop(void)
 501:mis.c         **** {
 2239              		.loc 1 501 0
 2240              		.cfi_startproc
 2241              		@ args = 0, pretend = 0, frame = 0
 2242              		@ frame_needed = 1, uses_anonymous_args = 0
 2243 0000 80B5     		push	{r7, lr}
 2244              		.cfi_def_cfa_offset 8
 2245              		.cfi_offset 7, -8
 2246              		.cfi_offset 14, -4
 2247 0002 00AF     		add	r7, sp, #0
 2248              		.cfi_def_cfa_register 7
 502:mis.c         ****     MIS_Reg_Write(MIS_RST);
 2249              		.loc 1 502 0
 2250 0004 0220     		movs	r0, #2
 2251 0006 FFF7FEFF 		bl	MIS_Reg_Write
 503:mis.c         ****     CyDelay(1);
 2252              		.loc 1 503 0
 2253 000a 0120     		movs	r0, #1
 2254 000c FFF7FEFF 		bl	CyDelay
 504:mis.c         ****     MIS_Reg_Write(MIS_RST + MIS_CTRL);
 2255              		.loc 1 504 0
 2256 0010 0620     		movs	r0, #6
 2257 0012 FFF7FEFF 		bl	MIS_Reg_Write
 505:mis.c         ****     CyDelay(1);
 2258              		.loc 1 505 0
 2259 0016 0120     		movs	r0, #1
 2260 0018 FFF7FEFF 		bl	CyDelay
 506:mis.c         ****     MIS_Reg_Write(MIS_CTRL);
 2261              		.loc 1 506 0
 2262 001c 0420     		movs	r0, #4
 2263 001e FFF7FEFF 		bl	MIS_Reg_Write
 507:mis.c         **** }
 2264              		.loc 1 507 0
 2265 0022 00BF     		nop
 2266 0024 80BD     		pop	{r7, pc}
 2267              		.cfi_endproc
 2268              	.LFE98:
 2269              		.size	MIS_Stop, .-MIS_Stop
 2270 0026 00BF     		.section	.text.MIS_SetPulseTimeout,"ax",%progbits
 2271              		.align	2
 2272              		.global	MIS_SetPulseTimeout
 2273              		.thumb
 2274              		.thumb_func
 2275              		.type	MIS_SetPulseTimeout, %function
 2276              	MIS_SetPulseTimeout:
 2277              	.LFB99:
 508:mis.c         **** 
 509:mis.c         **** void MIS_SetPulseTimeout(uint32 t)
 510:mis.c         **** {
 2278              		.loc 1 510 0
 2279              		.cfi_startproc
 2280              		@ args = 0, pretend = 0, frame = 8
 2281              		@ frame_needed = 1, uses_anonymous_args = 0
 2282 0000 80B5     		push	{r7, lr}
 2283              		.cfi_def_cfa_offset 8
ARM GAS  C:\Users\Tomas\AppData\Local\Temp\cc1QFzoE.s 			page 50


 2284              		.cfi_offset 7, -8
 2285              		.cfi_offset 14, -4
 2286 0002 82B0     		sub	sp, sp, #8
 2287              		.cfi_def_cfa_offset 16
 2288 0004 00AF     		add	r7, sp, #0
 2289              		.cfi_def_cfa_register 7
 2290 0006 7860     		str	r0, [r7, #4]
 511:mis.c         ****     BurstTimeout_1_WritePeriod(t);
 2291              		.loc 1 511 0
 2292 0008 7B68     		ldr	r3, [r7, #4]
 2293 000a 9BB2     		uxth	r3, r3
 2294 000c 1846     		mov	r0, r3
 2295 000e FFF7FEFF 		bl	BurstTimeout_1_WritePeriod
 512:mis.c         ****     BurstTimeout_2_WritePeriod(t);
 2296              		.loc 1 512 0
 2297 0012 7B68     		ldr	r3, [r7, #4]
 2298 0014 9BB2     		uxth	r3, r3
 2299 0016 1846     		mov	r0, r3
 2300 0018 FFF7FEFF 		bl	BurstTimeout_2_WritePeriod
 513:mis.c         ****     BurstTimeout_3_WritePeriod(t);
 2301              		.loc 1 513 0
 2302 001c 7B68     		ldr	r3, [r7, #4]
 2303 001e 9BB2     		uxth	r3, r3
 2304 0020 1846     		mov	r0, r3
 2305 0022 FFF7FEFF 		bl	BurstTimeout_3_WritePeriod
 514:mis.c         ****     BurstTimeout_4_WritePeriod(t);
 2306              		.loc 1 514 0
 2307 0026 7B68     		ldr	r3, [r7, #4]
 2308 0028 9BB2     		uxth	r3, r3
 2309 002a 1846     		mov	r0, r3
 2310 002c FFF7FEFF 		bl	BurstTimeout_4_WritePeriod
 515:mis.c         **** }
 2311              		.loc 1 515 0
 2312 0030 00BF     		nop
 2313 0032 0837     		adds	r7, r7, #8
 2314              		.cfi_def_cfa_offset 8
 2315 0034 BD46     		mov	sp, r7
 2316              		.cfi_def_cfa_register 13
 2317              		@ sp needed
 2318 0036 80BD     		pop	{r7, pc}
 2319              		.cfi_endproc
 2320              	.LFE99:
 2321              		.size	MIS_SetPulseTimeout, .-MIS_SetPulseTimeout
 2322              		.section	.text.MIS_WaitPacket,"ax",%progbits
 2323              		.align	2
 2324              		.global	MIS_WaitPacket
 2325              		.thumb
 2326              		.thumb_func
 2327              		.type	MIS_WaitPacket, %function
 2328              	MIS_WaitPacket:
 2329              	.LFB100:
 516:mis.c         **** 
 517:mis.c         **** int MIS_WaitPacket(void)
 518:mis.c         **** {
 2330              		.loc 1 518 0
 2331              		.cfi_startproc
 2332              		@ args = 0, pretend = 0, frame = 0
ARM GAS  C:\Users\Tomas\AppData\Local\Temp\cc1QFzoE.s 			page 51


 2333              		@ frame_needed = 1, uses_anonymous_args = 0
 2334 0000 80B5     		push	{r7, lr}
 2335              		.cfi_def_cfa_offset 8
 2336              		.cfi_offset 7, -8
 2337              		.cfi_offset 14, -4
 2338 0002 00AF     		add	r7, sp, #0
 2339              		.cfi_def_cfa_register 7
 519:mis.c         ****     while (3 != MIS_Stat_Read());
 2340              		.loc 1 519 0
 2341 0004 00BF     		nop
 2342              	.L146:
 2343              		.loc 1 519 0 is_stmt 0 discriminator 1
 2344 0006 FFF7FEFF 		bl	MIS_Stat_Read
 2345 000a 0346     		mov	r3, r0
 2346 000c 032B     		cmp	r3, #3
 2347 000e FAD1     		bne	.L146
 520:mis.c         ****     return 0;
 2348              		.loc 1 520 0 is_stmt 1
 2349 0010 0023     		movs	r3, #0
 521:mis.c         **** }
 2350              		.loc 1 521 0
 2351 0012 1846     		mov	r0, r3
 2352 0014 80BD     		pop	{r7, pc}
 2353              		.cfi_endproc
 2354              	.LFE100:
 2355              		.size	MIS_WaitPacket, .-MIS_WaitPacket
 2356 0016 00BF     		.section	.text.MIS_Measure,"ax",%progbits
 2357              		.align	2
 2358              		.global	MIS_Measure
 2359              		.thumb
 2360              		.thumb_func
 2361              		.type	MIS_Measure, %function
 2362              	MIS_Measure:
 2363              	.LFB101:
 522:mis.c         **** 
 523:mis.c         **** int MIS_Measure(uint32 time_ms)
 524:mis.c         **** {
 2364              		.loc 1 524 0
 2365              		.cfi_startproc
 2366              		@ args = 0, pretend = 0, frame = 16
 2367              		@ frame_needed = 1, uses_anonymous_args = 0
 2368 0000 80B5     		push	{r7, lr}
 2369              		.cfi_def_cfa_offset 8
 2370              		.cfi_offset 7, -8
 2371              		.cfi_offset 14, -4
 2372 0002 84B0     		sub	sp, sp, #16
 2373              		.cfi_def_cfa_offset 24
 2374 0004 00AF     		add	r7, sp, #0
 2375              		.cfi_def_cfa_register 7
 2376 0006 7860     		str	r0, [r7, #4]
 525:mis.c         ****     int result;
 526:mis.c         ****     
 527:mis.c         ****     MIS_Start();
 2377              		.loc 1 527 0
 2378 0008 FFF7FEFF 		bl	MIS_Start
 528:mis.c         ****     
 529:mis.c         ****     result = MIS_WaitPacket();
ARM GAS  C:\Users\Tomas\AppData\Local\Temp\cc1QFzoE.s 			page 52


 2379              		.loc 1 529 0
 2380 000c FFF7FEFF 		bl	MIS_WaitPacket
 2381 0010 F860     		str	r0, [r7, #12]
 530:mis.c         ****     if (0 != result) return result;
 2382              		.loc 1 530 0
 2383 0012 FB68     		ldr	r3, [r7, #12]
 2384 0014 002B     		cmp	r3, #0
 2385 0016 01D0     		beq	.L149
 2386              		.loc 1 530 0 is_stmt 0 discriminator 1
 2387 0018 FB68     		ldr	r3, [r7, #12]
 2388 001a 0DE0     		b	.L150
 2389              	.L149:
 531:mis.c         ****     
 532:mis.c         ****     CyDelay(time_ms);
 2390              		.loc 1 532 0 is_stmt 1
 2391 001c 7868     		ldr	r0, [r7, #4]
 2392 001e FFF7FEFF 		bl	CyDelay
 533:mis.c         ****     
 534:mis.c         ****     MIS_Stop();
 2393              		.loc 1 534 0
 2394 0022 FFF7FEFF 		bl	MIS_Stop
 535:mis.c         ****     result = MIS_WaitPacket();
 2395              		.loc 1 535 0
 2396 0026 FFF7FEFF 		bl	MIS_WaitPacket
 2397 002a F860     		str	r0, [r7, #12]
 536:mis.c         ****     if (0 != result) return result;
 2398              		.loc 1 536 0
 2399 002c FB68     		ldr	r3, [r7, #12]
 2400 002e 002B     		cmp	r3, #0
 2401 0030 01D0     		beq	.L151
 2402              		.loc 1 536 0 is_stmt 0 discriminator 1
 2403 0032 FB68     		ldr	r3, [r7, #12]
 2404 0034 00E0     		b	.L150
 2405              	.L151:
 537:mis.c         ****     
 538:mis.c         ****     return result;
 2406              		.loc 1 538 0 is_stmt 1
 2407 0036 FB68     		ldr	r3, [r7, #12]
 2408              	.L150:
 539:mis.c         **** }
 2409              		.loc 1 539 0
 2410 0038 1846     		mov	r0, r3
 2411 003a 1037     		adds	r7, r7, #16
 2412              		.cfi_def_cfa_offset 8
 2413 003c BD46     		mov	sp, r7
 2414              		.cfi_def_cfa_register 13
 2415              		@ sp needed
 2416 003e 80BD     		pop	{r7, pc}
 2417              		.cfi_endproc
 2418              	.LFE101:
 2419              		.size	MIS_Measure, .-MIS_Measure
 2420              		.section	.text.MIS_PulseCounterStatus,"ax",%progbits
 2421              		.align	2
 2422              		.global	MIS_PulseCounterStatus
 2423              		.thumb
 2424              		.thumb_func
 2425              		.type	MIS_PulseCounterStatus, %function
ARM GAS  C:\Users\Tomas\AppData\Local\Temp\cc1QFzoE.s 			page 53


 2426              	MIS_PulseCounterStatus:
 2427              	.LFB102:
 540:mis.c         **** 
 541:mis.c         **** int MIS_PulseCounterStatus()
 542:mis.c         **** {   uint8 result;
 2428              		.loc 1 542 0
 2429              		.cfi_startproc
 2430              		@ args = 0, pretend = 0, frame = 8
 2431              		@ frame_needed = 1, uses_anonymous_args = 0
 2432 0000 80B5     		push	{r7, lr}
 2433              		.cfi_def_cfa_offset 8
 2434              		.cfi_offset 7, -8
 2435              		.cfi_offset 14, -4
 2436 0002 82B0     		sub	sp, sp, #8
 2437              		.cfi_def_cfa_offset 16
 2438 0004 00AF     		add	r7, sp, #0
 2439              		.cfi_def_cfa_register 7
 543:mis.c         ****     
 544:mis.c         ****     result = (0xF0u & MIS_Stat_Read());
 2440              		.loc 1 544 0
 2441 0006 FFF7FEFF 		bl	MIS_Stat_Read
 2442 000a 0346     		mov	r3, r0
 2443 000c 23F00F03 		bic	r3, r3, #15
 2444 0010 FB71     		strb	r3, [r7, #7]
 545:mis.c         ****     result = result >> 4;
 2445              		.loc 1 545 0
 2446 0012 FB79     		ldrb	r3, [r7, #7]	@ zero_extendqisi2
 2447 0014 1B09     		lsrs	r3, r3, #4
 2448 0016 FB71     		strb	r3, [r7, #7]
 546:mis.c         ****     return result;
 2449              		.loc 1 546 0
 2450 0018 FB79     		ldrb	r3, [r7, #7]	@ zero_extendqisi2
 547:mis.c         **** }
 2451              		.loc 1 547 0
 2452 001a 1846     		mov	r0, r3
 2453 001c 0837     		adds	r7, r7, #8
 2454              		.cfi_def_cfa_offset 8
 2455 001e BD46     		mov	sp, r7
 2456              		.cfi_def_cfa_register 13
 2457              		@ sp needed
 2458 0020 80BD     		pop	{r7, pc}
 2459              		.cfi_endproc
 2460              	.LFE102:
 2461              		.size	MIS_PulseCounterStatus, .-MIS_PulseCounterStatus
 2462 0022 00BF     		.text
 2463              	.Letext0:
 2464              		.file 2 "c:\\program files (x86)\\cypress\\psoc creator\\4.1\\psoc creator\\import\\gnu\\arm\\5.4.
 2465              		.file 3 "c:\\program files (x86)\\cypress\\psoc creator\\4.1\\psoc creator\\import\\gnu\\arm\\5.4.
 2466              		.file 4 "Generated_Source\\PSoC5/cytypes.h"
 2467              		.file 5 "Generated_Source\\PSoC5/core_cm3.h"
 2468              		.section	.debug_info,"",%progbits
 2469              	.Ldebug_info0:
 2470 0000 A7080000 		.4byte	0x8a7
 2471 0004 0400     		.2byte	0x4
 2472 0006 00000000 		.4byte	.Ldebug_abbrev0
 2473 000a 04       		.byte	0x4
 2474 000b 01       		.uleb128 0x1
ARM GAS  C:\Users\Tomas\AppData\Local\Temp\cc1QFzoE.s 			page 54


 2475 000c D8000000 		.4byte	.LASF86
 2476 0010 0C       		.byte	0xc
 2477 0011 3C050000 		.4byte	.LASF87
 2478 0015 52000000 		.4byte	.LASF88
 2479 0019 00000000 		.4byte	.Ldebug_ranges0+0
 2480 001d 00000000 		.4byte	0
 2481 0021 00000000 		.4byte	.Ldebug_line0
 2482 0025 02       		.uleb128 0x2
 2483 0026 01       		.byte	0x1
 2484 0027 06       		.byte	0x6
 2485 0028 95030000 		.4byte	.LASF0
 2486 002c 02       		.uleb128 0x2
 2487 002d 01       		.byte	0x1
 2488 002e 08       		.byte	0x8
 2489 002f 27030000 		.4byte	.LASF1
 2490 0033 02       		.uleb128 0x2
 2491 0034 02       		.byte	0x2
 2492 0035 05       		.byte	0x5
 2493 0036 B5000000 		.4byte	.LASF2
 2494 003a 02       		.uleb128 0x2
 2495 003b 02       		.byte	0x2
 2496 003c 07       		.byte	0x7
 2497 003d 1C040000 		.4byte	.LASF3
 2498 0041 03       		.uleb128 0x3
 2499 0042 12050000 		.4byte	.LASF9
 2500 0046 02       		.byte	0x2
 2501 0047 3F       		.byte	0x3f
 2502 0048 4C000000 		.4byte	0x4c
 2503 004c 02       		.uleb128 0x2
 2504 004d 04       		.byte	0x4
 2505 004e 05       		.byte	0x5
 2506 004f BE020000 		.4byte	.LASF4
 2507 0053 02       		.uleb128 0x2
 2508 0054 04       		.byte	0x4
 2509 0055 07       		.byte	0x7
 2510 0056 B8040000 		.4byte	.LASF5
 2511 005a 02       		.uleb128 0x2
 2512 005b 08       		.byte	0x8
 2513 005c 05       		.byte	0x5
 2514 005d 6D020000 		.4byte	.LASF6
 2515 0061 02       		.uleb128 0x2
 2516 0062 08       		.byte	0x8
 2517 0063 07       		.byte	0x7
 2518 0064 A9030000 		.4byte	.LASF7
 2519 0068 04       		.uleb128 0x4
 2520 0069 04       		.byte	0x4
 2521 006a 05       		.byte	0x5
 2522 006b 696E7400 		.ascii	"int\000"
 2523 006f 02       		.uleb128 0x2
 2524 0070 04       		.byte	0x4
 2525 0071 07       		.byte	0x7
 2526 0072 E5030000 		.4byte	.LASF8
 2527 0076 03       		.uleb128 0x3
 2528 0077 A1030000 		.4byte	.LASF10
 2529 007b 03       		.byte	0x3
 2530 007c 2C       		.byte	0x2c
 2531 007d 41000000 		.4byte	0x41
ARM GAS  C:\Users\Tomas\AppData\Local\Temp\cc1QFzoE.s 			page 55


 2532 0081 05       		.uleb128 0x5
 2533 0082 00020000 		.4byte	.LASF11
 2534 0086 04       		.byte	0x4
 2535 0087 9201     		.2byte	0x192
 2536 0089 2C000000 		.4byte	0x2c
 2537 008d 05       		.uleb128 0x5
 2538 008e A1040000 		.4byte	.LASF12
 2539 0092 04       		.byte	0x4
 2540 0093 9401     		.2byte	0x194
 2541 0095 53000000 		.4byte	0x53
 2542 0099 02       		.uleb128 0x2
 2543 009a 04       		.byte	0x4
 2544 009b 04       		.byte	0x4
 2545 009c 58020000 		.4byte	.LASF13
 2546 00a0 02       		.uleb128 0x2
 2547 00a1 08       		.byte	0x8
 2548 00a2 04       		.byte	0x4
 2549 00a3 CA040000 		.4byte	.LASF14
 2550 00a7 02       		.uleb128 0x2
 2551 00a8 01       		.byte	0x1
 2552 00a9 08       		.byte	0x8
 2553 00aa 46040000 		.4byte	.LASF15
 2554 00ae 02       		.uleb128 0x2
 2555 00af 08       		.byte	0x8
 2556 00b0 04       		.byte	0x4
 2557 00b1 35030000 		.4byte	.LASF16
 2558 00b5 02       		.uleb128 0x2
 2559 00b6 04       		.byte	0x4
 2560 00b7 07       		.byte	0x7
 2561 00b8 BF000000 		.4byte	.LASF17
 2562 00bc 06       		.uleb128 0x6
 2563 00bd 1D020000 		.4byte	.LASF18
 2564 00c1 01       		.byte	0x1
 2565 00c2 16       		.byte	0x16
 2566 00c3 00000000 		.4byte	.LFB63
 2567 00c7 1C000000 		.4byte	.LFE63-.LFB63
 2568 00cb 01       		.uleb128 0x1
 2569 00cc 9C       		.byte	0x9c
 2570 00cd 06       		.uleb128 0x6
 2571 00ce 09060000 		.4byte	.LASF19
 2572 00d2 01       		.byte	0x1
 2573 00d3 1F       		.byte	0x1f
 2574 00d4 00000000 		.4byte	.LFB64
 2575 00d8 1C000000 		.4byte	.LFE64-.LFB64
 2576 00dc 01       		.uleb128 0x1
 2577 00dd 9C       		.byte	0x9c
 2578 00de 07       		.uleb128 0x7
 2579 00df 4F050000 		.4byte	.LASF27
 2580 00e3 01       		.byte	0x1
 2581 00e4 28       		.byte	0x28
 2582 00e5 00000000 		.4byte	.LFB65
 2583 00e9 74000000 		.4byte	.LFE65-.LFB65
 2584 00ed 01       		.uleb128 0x1
 2585 00ee 9C       		.byte	0x9c
 2586 00ef 10010000 		.4byte	0x110
 2587 00f3 08       		.uleb128 0x8
 2588 00f4 3F040000 		.4byte	.LASF20
ARM GAS  C:\Users\Tomas\AppData\Local\Temp\cc1QFzoE.s 			page 56


 2589 00f8 01       		.byte	0x1
 2590 00f9 2A       		.byte	0x2a
 2591 00fa 8D000000 		.4byte	0x8d
 2592 00fe 02       		.uleb128 0x2
 2593 00ff 91       		.byte	0x91
 2594 0100 74       		.sleb128 -12
 2595 0101 08       		.uleb128 0x8
 2596 0102 65040000 		.4byte	.LASF21
 2597 0106 01       		.byte	0x1
 2598 0107 2B       		.byte	0x2b
 2599 0108 8D000000 		.4byte	0x8d
 2600 010c 02       		.uleb128 0x2
 2601 010d 91       		.byte	0x91
 2602 010e 70       		.sleb128 -16
 2603 010f 00       		.byte	0
 2604 0110 09       		.uleb128 0x9
 2605 0111 29050000 		.4byte	.LASF23
 2606 0115 01       		.byte	0x1
 2607 0116 3C       		.byte	0x3c
 2608 0117 8D000000 		.4byte	0x8d
 2609 011b 00000000 		.4byte	.LFB66
 2610 011f 44000000 		.4byte	.LFE66-.LFB66
 2611 0123 01       		.uleb128 0x1
 2612 0124 9C       		.byte	0x9c
 2613 0125 38010000 		.4byte	0x138
 2614 0129 08       		.uleb128 0x8
 2615 012a 00000000 		.4byte	.LASF22
 2616 012e 01       		.byte	0x1
 2617 012f 3E       		.byte	0x3e
 2618 0130 8D000000 		.4byte	0x8d
 2619 0134 02       		.uleb128 0x2
 2620 0135 91       		.byte	0x91
 2621 0136 74       		.sleb128 -12
 2622 0137 00       		.byte	0
 2623 0138 0A       		.uleb128 0xa
 2624 0139 38020000 		.4byte	.LASF29
 2625 013d 01       		.byte	0x1
 2626 013e 47       		.byte	0x47
 2627 013f 8D000000 		.4byte	0x8d
 2628 0143 00000000 		.4byte	.LFB67
 2629 0147 20000000 		.4byte	.LFE67-.LFB67
 2630 014b 01       		.uleb128 0x1
 2631 014c 9C       		.byte	0x9c
 2632 014d 09       		.uleb128 0x9
 2633 014e 4B040000 		.4byte	.LASF24
 2634 0152 01       		.byte	0x1
 2635 0153 4D       		.byte	0x4d
 2636 0154 8D000000 		.4byte	0x8d
 2637 0158 00000000 		.4byte	.LFB68
 2638 015c 4C000000 		.4byte	.LFE68-.LFB68
 2639 0160 01       		.uleb128 0x1
 2640 0161 9C       		.byte	0x9c
 2641 0162 75010000 		.4byte	0x175
 2642 0166 08       		.uleb128 0x8
 2643 0167 00000000 		.4byte	.LASF22
 2644 016b 01       		.byte	0x1
 2645 016c 4F       		.byte	0x4f
ARM GAS  C:\Users\Tomas\AppData\Local\Temp\cc1QFzoE.s 			page 57


 2646 016d 8D000000 		.4byte	0x8d
 2647 0171 02       		.uleb128 0x2
 2648 0172 91       		.byte	0x91
 2649 0173 74       		.sleb128 -12
 2650 0174 00       		.byte	0
 2651 0175 0B       		.uleb128 0xb
 2652 0176 1C000000 		.4byte	.LASF25
 2653 017a 01       		.byte	0x1
 2654 017b 58       		.byte	0x58
 2655 017c 8D000000 		.4byte	0x8d
 2656 0180 00000000 		.4byte	.LFB69
 2657 0184 9C000000 		.4byte	.LFE69-.LFB69
 2658 0188 01       		.uleb128 0x1
 2659 0189 9C       		.byte	0x9c
 2660 018a D1010000 		.4byte	0x1d1
 2661 018e 08       		.uleb128 0x8
 2662 018f 00000000 		.4byte	.LASF22
 2663 0193 01       		.byte	0x1
 2664 0194 5A       		.byte	0x5a
 2665 0195 8D000000 		.4byte	0x8d
 2666 0199 02       		.uleb128 0x2
 2667 019a 91       		.byte	0x91
 2668 019b 74       		.sleb128 -12
 2669 019c 08       		.uleb128 0x8
 2670 019d 09040000 		.4byte	.LASF26
 2671 01a1 01       		.byte	0x1
 2672 01a2 5B       		.byte	0x5b
 2673 01a3 8D000000 		.4byte	0x8d
 2674 01a7 02       		.uleb128 0x2
 2675 01a8 91       		.byte	0x91
 2676 01a9 70       		.sleb128 -16
 2677 01aa 0C       		.uleb128 0xc
 2678 01ab 40000000 		.4byte	.LBB2
 2679 01af 40000000 		.4byte	.LBE2-.LBB2
 2680 01b3 08       		.uleb128 0x8
 2681 01b4 3F040000 		.4byte	.LASF20
 2682 01b8 01       		.byte	0x1
 2683 01b9 64       		.byte	0x64
 2684 01ba 81000000 		.4byte	0x81
 2685 01be 02       		.uleb128 0x2
 2686 01bf 91       		.byte	0x91
 2687 01c0 6F       		.sleb128 -17
 2688 01c1 08       		.uleb128 0x8
 2689 01c2 65040000 		.4byte	.LASF21
 2690 01c6 01       		.byte	0x1
 2691 01c7 65       		.byte	0x65
 2692 01c8 81000000 		.4byte	0x81
 2693 01cc 02       		.uleb128 0x2
 2694 01cd 91       		.byte	0x91
 2695 01ce 6E       		.sleb128 -18
 2696 01cf 00       		.byte	0
 2697 01d0 00       		.byte	0
 2698 01d1 07       		.uleb128 0x7
 2699 01d2 E2020000 		.4byte	.LASF28
 2700 01d6 01       		.byte	0x1
 2701 01d7 73       		.byte	0x73
 2702 01d8 00000000 		.4byte	.LFB70
ARM GAS  C:\Users\Tomas\AppData\Local\Temp\cc1QFzoE.s 			page 58


 2703 01dc 1A000000 		.4byte	.LFE70-.LFB70
 2704 01e0 01       		.uleb128 0x1
 2705 01e1 9C       		.byte	0x9c
 2706 01e2 F3010000 		.4byte	0x1f3
 2707 01e6 0D       		.uleb128 0xd
 2708 01e7 7400     		.ascii	"t\000"
 2709 01e9 01       		.byte	0x1
 2710 01ea 73       		.byte	0x73
 2711 01eb 8D000000 		.4byte	0x8d
 2712 01ef 02       		.uleb128 0x2
 2713 01f0 91       		.byte	0x91
 2714 01f1 74       		.sleb128 -12
 2715 01f2 00       		.byte	0
 2716 01f3 0A       		.uleb128 0xa
 2717 01f4 2F040000 		.4byte	.LASF30
 2718 01f8 01       		.byte	0x1
 2719 01f9 78       		.byte	0x78
 2720 01fa 68000000 		.4byte	0x68
 2721 01fe 00000000 		.4byte	.LFB71
 2722 0202 1C000000 		.4byte	.LFE71-.LFB71
 2723 0206 01       		.uleb128 0x1
 2724 0207 9C       		.byte	0x9c
 2725 0208 0B       		.uleb128 0xb
 2726 0209 1C050000 		.4byte	.LASF31
 2727 020d 01       		.byte	0x1
 2728 020e 7E       		.byte	0x7e
 2729 020f 68000000 		.4byte	0x68
 2730 0213 00000000 		.4byte	.LFB72
 2731 0217 40000000 		.4byte	.LFE72-.LFB72
 2732 021b 01       		.uleb128 0x1
 2733 021c 9C       		.byte	0x9c
 2734 021d 3E020000 		.4byte	0x23e
 2735 0221 0E       		.uleb128 0xe
 2736 0222 01060000 		.4byte	.LASF32
 2737 0226 01       		.byte	0x1
 2738 0227 7E       		.byte	0x7e
 2739 0228 8D000000 		.4byte	0x8d
 2740 022c 02       		.uleb128 0x2
 2741 022d 91       		.byte	0x91
 2742 022e 6C       		.sleb128 -20
 2743 022f 08       		.uleb128 0x8
 2744 0230 00000000 		.4byte	.LASF22
 2745 0234 01       		.byte	0x1
 2746 0235 80       		.byte	0x80
 2747 0236 68000000 		.4byte	0x68
 2748 023a 02       		.uleb128 0x2
 2749 023b 91       		.byte	0x91
 2750 023c 74       		.sleb128 -12
 2751 023d 00       		.byte	0
 2752 023e 06       		.uleb128 0x6
 2753 023f F7020000 		.4byte	.LASF33
 2754 0243 01       		.byte	0x1
 2755 0244 97       		.byte	0x97
 2756 0245 00000000 		.4byte	.LFB73
 2757 0249 1C000000 		.4byte	.LFE73-.LFB73
 2758 024d 01       		.uleb128 0x1
 2759 024e 9C       		.byte	0x9c
ARM GAS  C:\Users\Tomas\AppData\Local\Temp\cc1QFzoE.s 			page 59


 2760 024f 07       		.uleb128 0x7
 2761 0250 5D050000 		.4byte	.LASF34
 2762 0254 01       		.byte	0x1
 2763 0255 A1       		.byte	0xa1
 2764 0256 00000000 		.4byte	.LFB74
 2765 025a 74000000 		.4byte	.LFE74-.LFB74
 2766 025e 01       		.uleb128 0x1
 2767 025f 9C       		.byte	0x9c
 2768 0260 81020000 		.4byte	0x281
 2769 0264 08       		.uleb128 0x8
 2770 0265 3F040000 		.4byte	.LASF20
 2771 0269 01       		.byte	0x1
 2772 026a A3       		.byte	0xa3
 2773 026b 81000000 		.4byte	0x81
 2774 026f 02       		.uleb128 0x2
 2775 0270 91       		.byte	0x91
 2776 0271 77       		.sleb128 -9
 2777 0272 08       		.uleb128 0x8
 2778 0273 65040000 		.4byte	.LASF21
 2779 0277 01       		.byte	0x1
 2780 0278 A4       		.byte	0xa4
 2781 0279 81000000 		.4byte	0x81
 2782 027d 02       		.uleb128 0x2
 2783 027e 91       		.byte	0x91
 2784 027f 76       		.sleb128 -10
 2785 0280 00       		.byte	0
 2786 0281 0A       		.uleb128 0xa
 2787 0282 9E010000 		.4byte	.LASF35
 2788 0286 01       		.byte	0x1
 2789 0287 B4       		.byte	0xb4
 2790 0288 8D000000 		.4byte	0x8d
 2791 028c 00000000 		.4byte	.LFB75
 2792 0290 20000000 		.4byte	.LFE75-.LFB75
 2793 0294 01       		.uleb128 0x1
 2794 0295 9C       		.byte	0x9c
 2795 0296 09       		.uleb128 0x9
 2796 0297 D1040000 		.4byte	.LASF36
 2797 029b 01       		.byte	0x1
 2798 029c B9       		.byte	0xb9
 2799 029d 8D000000 		.4byte	0x8d
 2800 02a1 00000000 		.4byte	.LFB76
 2801 02a5 4C000000 		.4byte	.LFE76-.LFB76
 2802 02a9 01       		.uleb128 0x1
 2803 02aa 9C       		.byte	0x9c
 2804 02ab BE020000 		.4byte	0x2be
 2805 02af 08       		.uleb128 0x8
 2806 02b0 00000000 		.4byte	.LASF22
 2807 02b4 01       		.byte	0x1
 2808 02b5 BB       		.byte	0xbb
 2809 02b6 8D000000 		.4byte	0x8d
 2810 02ba 02       		.uleb128 0x2
 2811 02bb 91       		.byte	0x91
 2812 02bc 74       		.sleb128 -12
 2813 02bd 00       		.byte	0
 2814 02be 0B       		.uleb128 0xb
 2815 02bf 47020000 		.4byte	.LASF37
 2816 02c3 01       		.byte	0x1
ARM GAS  C:\Users\Tomas\AppData\Local\Temp\cc1QFzoE.s 			page 60


 2817 02c4 C4       		.byte	0xc4
 2818 02c5 8D000000 		.4byte	0x8d
 2819 02c9 00000000 		.4byte	.LFB77
 2820 02cd 9C000000 		.4byte	.LFE77-.LFB77
 2821 02d1 01       		.uleb128 0x1
 2822 02d2 9C       		.byte	0x9c
 2823 02d3 1A030000 		.4byte	0x31a
 2824 02d7 08       		.uleb128 0x8
 2825 02d8 00000000 		.4byte	.LASF22
 2826 02dc 01       		.byte	0x1
 2827 02dd C6       		.byte	0xc6
 2828 02de 8D000000 		.4byte	0x8d
 2829 02e2 02       		.uleb128 0x2
 2830 02e3 91       		.byte	0x91
 2831 02e4 74       		.sleb128 -12
 2832 02e5 08       		.uleb128 0x8
 2833 02e6 09040000 		.4byte	.LASF26
 2834 02ea 01       		.byte	0x1
 2835 02eb C7       		.byte	0xc7
 2836 02ec 8D000000 		.4byte	0x8d
 2837 02f0 02       		.uleb128 0x2
 2838 02f1 91       		.byte	0x91
 2839 02f2 70       		.sleb128 -16
 2840 02f3 0C       		.uleb128 0xc
 2841 02f4 40000000 		.4byte	.LBB3
 2842 02f8 40000000 		.4byte	.LBE3-.LBB3
 2843 02fc 08       		.uleb128 0x8
 2844 02fd 3F040000 		.4byte	.LASF20
 2845 0301 01       		.byte	0x1
 2846 0302 D0       		.byte	0xd0
 2847 0303 81000000 		.4byte	0x81
 2848 0307 02       		.uleb128 0x2
 2849 0308 91       		.byte	0x91
 2850 0309 6F       		.sleb128 -17
 2851 030a 08       		.uleb128 0x8
 2852 030b 65040000 		.4byte	.LASF21
 2853 030f 01       		.byte	0x1
 2854 0310 D1       		.byte	0xd1
 2855 0311 81000000 		.4byte	0x81
 2856 0315 02       		.uleb128 0x2
 2857 0316 91       		.byte	0x91
 2858 0317 6E       		.sleb128 -18
 2859 0318 00       		.byte	0
 2860 0319 00       		.byte	0
 2861 031a 07       		.uleb128 0x7
 2862 031b 12030000 		.4byte	.LASF38
 2863 031f 01       		.byte	0x1
 2864 0320 DF       		.byte	0xdf
 2865 0321 00000000 		.4byte	.LFB78
 2866 0325 1A000000 		.4byte	.LFE78-.LFB78
 2867 0329 01       		.uleb128 0x1
 2868 032a 9C       		.byte	0x9c
 2869 032b 3C030000 		.4byte	0x33c
 2870 032f 0D       		.uleb128 0xd
 2871 0330 7400     		.ascii	"t\000"
 2872 0332 01       		.byte	0x1
 2873 0333 DF       		.byte	0xdf
ARM GAS  C:\Users\Tomas\AppData\Local\Temp\cc1QFzoE.s 			page 61


 2874 0334 8D000000 		.4byte	0x8d
 2875 0338 02       		.uleb128 0x2
 2876 0339 91       		.byte	0x91
 2877 033a 74       		.sleb128 -12
 2878 033b 00       		.byte	0
 2879 033c 0A       		.uleb128 0xa
 2880 033d A5000000 		.4byte	.LASF39
 2881 0341 01       		.byte	0x1
 2882 0342 E4       		.byte	0xe4
 2883 0343 68000000 		.4byte	0x68
 2884 0347 00000000 		.4byte	.LFB79
 2885 034b 1C000000 		.4byte	.LFE79-.LFB79
 2886 034f 01       		.uleb128 0x1
 2887 0350 9C       		.byte	0x9c
 2888 0351 0B       		.uleb128 0xb
 2889 0352 42050000 		.4byte	.LASF40
 2890 0356 01       		.byte	0x1
 2891 0357 EA       		.byte	0xea
 2892 0358 68000000 		.4byte	0x68
 2893 035c 00000000 		.4byte	.LFB80
 2894 0360 40000000 		.4byte	.LFE80-.LFB80
 2895 0364 01       		.uleb128 0x1
 2896 0365 9C       		.byte	0x9c
 2897 0366 87030000 		.4byte	0x387
 2898 036a 0E       		.uleb128 0xe
 2899 036b 01060000 		.4byte	.LASF32
 2900 036f 01       		.byte	0x1
 2901 0370 EA       		.byte	0xea
 2902 0371 8D000000 		.4byte	0x8d
 2903 0375 02       		.uleb128 0x2
 2904 0376 91       		.byte	0x91
 2905 0377 6C       		.sleb128 -20
 2906 0378 08       		.uleb128 0x8
 2907 0379 00000000 		.4byte	.LASF22
 2908 037d 01       		.byte	0x1
 2909 037e EC       		.byte	0xec
 2910 037f 68000000 		.4byte	0x68
 2911 0383 02       		.uleb128 0x2
 2912 0384 91       		.byte	0x91
 2913 0385 74       		.sleb128 -12
 2914 0386 00       		.byte	0
 2915 0387 0F       		.uleb128 0xf
 2916 0388 8C020000 		.4byte	.LASF41
 2917 038c 01       		.byte	0x1
 2918 038d 0401     		.2byte	0x104
 2919 038f 00000000 		.4byte	.LFB81
 2920 0393 1C000000 		.4byte	.LFE81-.LFB81
 2921 0397 01       		.uleb128 0x1
 2922 0398 9C       		.byte	0x9c
 2923 0399 10       		.uleb128 0x10
 2924 039a AD010000 		.4byte	.LASF42
 2925 039e 01       		.byte	0x1
 2926 039f 0E01     		.2byte	0x10e
 2927 03a1 00000000 		.4byte	.LFB82
 2928 03a5 74000000 		.4byte	.LFE82-.LFB82
 2929 03a9 01       		.uleb128 0x1
 2930 03aa 9C       		.byte	0x9c
ARM GAS  C:\Users\Tomas\AppData\Local\Temp\cc1QFzoE.s 			page 62


 2931 03ab CE030000 		.4byte	0x3ce
 2932 03af 11       		.uleb128 0x11
 2933 03b0 3F040000 		.4byte	.LASF20
 2934 03b4 01       		.byte	0x1
 2935 03b5 1001     		.2byte	0x110
 2936 03b7 81000000 		.4byte	0x81
 2937 03bb 02       		.uleb128 0x2
 2938 03bc 91       		.byte	0x91
 2939 03bd 77       		.sleb128 -9
 2940 03be 11       		.uleb128 0x11
 2941 03bf 65040000 		.4byte	.LASF21
 2942 03c3 01       		.byte	0x1
 2943 03c4 1101     		.2byte	0x111
 2944 03c6 81000000 		.4byte	0x81
 2945 03ca 02       		.uleb128 0x2
 2946 03cb 91       		.byte	0x91
 2947 03cc 76       		.sleb128 -10
 2948 03cd 00       		.byte	0
 2949 03ce 12       		.uleb128 0x12
 2950 03cf 96000000 		.4byte	.LASF43
 2951 03d3 01       		.byte	0x1
 2952 03d4 2101     		.2byte	0x121
 2953 03d6 8D000000 		.4byte	0x8d
 2954 03da 00000000 		.4byte	.LFB83
 2955 03de 20000000 		.4byte	.LFE83-.LFB83
 2956 03e2 01       		.uleb128 0x1
 2957 03e3 9C       		.byte	0x9c
 2958 03e4 13       		.uleb128 0x13
 2959 03e5 D4030000 		.4byte	.LASF44
 2960 03e9 01       		.byte	0x1
 2961 03ea 2601     		.2byte	0x126
 2962 03ec 8D000000 		.4byte	0x8d
 2963 03f0 00000000 		.4byte	.LFB84
 2964 03f4 50000000 		.4byte	.LFE84-.LFB84
 2965 03f8 01       		.uleb128 0x1
 2966 03f9 9C       		.byte	0x9c
 2967 03fa 0E040000 		.4byte	0x40e
 2968 03fe 11       		.uleb128 0x11
 2969 03ff 00000000 		.4byte	.LASF22
 2970 0403 01       		.byte	0x1
 2971 0404 2801     		.2byte	0x128
 2972 0406 8D000000 		.4byte	0x8d
 2973 040a 02       		.uleb128 0x2
 2974 040b 91       		.byte	0x91
 2975 040c 74       		.sleb128 -12
 2976 040d 00       		.byte	0
 2977 040e 14       		.uleb128 0x14
 2978 040f 85000000 		.4byte	.LASF45
 2979 0413 01       		.byte	0x1
 2980 0414 3001     		.2byte	0x130
 2981 0416 8D000000 		.4byte	0x8d
 2982 041a 00000000 		.4byte	.LFB85
 2983 041e 9C000000 		.4byte	.LFE85-.LFB85
 2984 0422 01       		.uleb128 0x1
 2985 0423 9C       		.byte	0x9c
 2986 0424 6F040000 		.4byte	0x46f
 2987 0428 11       		.uleb128 0x11
ARM GAS  C:\Users\Tomas\AppData\Local\Temp\cc1QFzoE.s 			page 63


 2988 0429 00000000 		.4byte	.LASF22
 2989 042d 01       		.byte	0x1
 2990 042e 3201     		.2byte	0x132
 2991 0430 8D000000 		.4byte	0x8d
 2992 0434 02       		.uleb128 0x2
 2993 0435 91       		.byte	0x91
 2994 0436 74       		.sleb128 -12
 2995 0437 11       		.uleb128 0x11
 2996 0438 09040000 		.4byte	.LASF26
 2997 043c 01       		.byte	0x1
 2998 043d 3301     		.2byte	0x133
 2999 043f 8D000000 		.4byte	0x8d
 3000 0443 02       		.uleb128 0x2
 3001 0444 91       		.byte	0x91
 3002 0445 70       		.sleb128 -16
 3003 0446 0C       		.uleb128 0xc
 3004 0447 40000000 		.4byte	.LBB4
 3005 044b 40000000 		.4byte	.LBE4-.LBB4
 3006 044f 11       		.uleb128 0x11
 3007 0450 3F040000 		.4byte	.LASF20
 3008 0454 01       		.byte	0x1
 3009 0455 3C01     		.2byte	0x13c
 3010 0457 81000000 		.4byte	0x81
 3011 045b 02       		.uleb128 0x2
 3012 045c 91       		.byte	0x91
 3013 045d 6F       		.sleb128 -17
 3014 045e 11       		.uleb128 0x11
 3015 045f 65040000 		.4byte	.LASF21
 3016 0463 01       		.byte	0x1
 3017 0464 3D01     		.2byte	0x13d
 3018 0466 81000000 		.4byte	0x81
 3019 046a 02       		.uleb128 0x2
 3020 046b 91       		.byte	0x91
 3021 046c 6E       		.sleb128 -18
 3022 046d 00       		.byte	0
 3023 046e 00       		.byte	0
 3024 046f 10       		.uleb128 0x10
 3025 0470 5A030000 		.4byte	.LASF46
 3026 0474 01       		.byte	0x1
 3027 0475 4A01     		.2byte	0x14a
 3028 0477 00000000 		.4byte	.LFB86
 3029 047b 1A000000 		.4byte	.LFE86-.LFB86
 3030 047f 01       		.uleb128 0x1
 3031 0480 9C       		.byte	0x9c
 3032 0481 93040000 		.4byte	0x493
 3033 0485 15       		.uleb128 0x15
 3034 0486 7400     		.ascii	"t\000"
 3035 0488 01       		.byte	0x1
 3036 0489 4A01     		.2byte	0x14a
 3037 048b 8D000000 		.4byte	0x8d
 3038 048f 02       		.uleb128 0x2
 3039 0490 91       		.byte	0x91
 3040 0491 74       		.sleb128 -12
 3041 0492 00       		.byte	0
 3042 0493 12       		.uleb128 0x12
 3043 0494 C8000000 		.4byte	.LASF47
 3044 0498 01       		.byte	0x1
ARM GAS  C:\Users\Tomas\AppData\Local\Temp\cc1QFzoE.s 			page 64


 3045 0499 4F01     		.2byte	0x14f
 3046 049b 68000000 		.4byte	0x68
 3047 049f 00000000 		.4byte	.LFB87
 3048 04a3 1C000000 		.4byte	.LFE87-.LFB87
 3049 04a7 01       		.uleb128 0x1
 3050 04a8 9C       		.byte	0x9c
 3051 04a9 14       		.uleb128 0x14
 3052 04aa 92050000 		.4byte	.LASF48
 3053 04ae 01       		.byte	0x1
 3054 04af 5501     		.2byte	0x155
 3055 04b1 68000000 		.4byte	0x68
 3056 04b5 00000000 		.4byte	.LFB88
 3057 04b9 40000000 		.4byte	.LFE88-.LFB88
 3058 04bd 01       		.uleb128 0x1
 3059 04be 9C       		.byte	0x9c
 3060 04bf E2040000 		.4byte	0x4e2
 3061 04c3 16       		.uleb128 0x16
 3062 04c4 01060000 		.4byte	.LASF32
 3063 04c8 01       		.byte	0x1
 3064 04c9 5501     		.2byte	0x155
 3065 04cb 8D000000 		.4byte	0x8d
 3066 04cf 02       		.uleb128 0x2
 3067 04d0 91       		.byte	0x91
 3068 04d1 6C       		.sleb128 -20
 3069 04d2 11       		.uleb128 0x11
 3070 04d3 00000000 		.4byte	.LASF22
 3071 04d7 01       		.byte	0x1
 3072 04d8 5701     		.2byte	0x157
 3073 04da 68000000 		.4byte	0x68
 3074 04de 02       		.uleb128 0x2
 3075 04df 91       		.byte	0x91
 3076 04e0 74       		.sleb128 -12
 3077 04e1 00       		.byte	0
 3078 04e2 0F       		.uleb128 0xf
 3079 04e3 C7020000 		.4byte	.LASF49
 3080 04e7 01       		.byte	0x1
 3081 04e8 6F01     		.2byte	0x16f
 3082 04ea 00000000 		.4byte	.LFB89
 3083 04ee 1C000000 		.4byte	.LFE89-.LFB89
 3084 04f2 01       		.uleb128 0x1
 3085 04f3 9C       		.byte	0x9c
 3086 04f4 10       		.uleb128 0x10
 3087 04f5 84050000 		.4byte	.LASF50
 3088 04f9 01       		.byte	0x1
 3089 04fa 7901     		.2byte	0x179
 3090 04fc 00000000 		.4byte	.LFB90
 3091 0500 74000000 		.4byte	.LFE90-.LFB90
 3092 0504 01       		.uleb128 0x1
 3093 0505 9C       		.byte	0x9c
 3094 0506 29050000 		.4byte	0x529
 3095 050a 11       		.uleb128 0x11
 3096 050b 3F040000 		.4byte	.LASF20
 3097 050f 01       		.byte	0x1
 3098 0510 7B01     		.2byte	0x17b
 3099 0512 81000000 		.4byte	0x81
 3100 0516 02       		.uleb128 0x2
 3101 0517 91       		.byte	0x91
ARM GAS  C:\Users\Tomas\AppData\Local\Temp\cc1QFzoE.s 			page 65


 3102 0518 77       		.sleb128 -9
 3103 0519 11       		.uleb128 0x11
 3104 051a 65040000 		.4byte	.LASF21
 3105 051e 01       		.byte	0x1
 3106 051f 7C01     		.2byte	0x17c
 3107 0521 81000000 		.4byte	0x81
 3108 0525 02       		.uleb128 0x2
 3109 0526 91       		.byte	0x91
 3110 0527 76       		.sleb128 -10
 3111 0528 00       		.byte	0
 3112 0529 12       		.uleb128 0x12
 3113 052a 6F030000 		.4byte	.LASF51
 3114 052e 01       		.byte	0x1
 3115 052f 8C01     		.2byte	0x18c
 3116 0531 8D000000 		.4byte	0x8d
 3117 0535 00000000 		.4byte	.LFB91
 3118 0539 20000000 		.4byte	.LFE91-.LFB91
 3119 053d 01       		.uleb128 0x1
 3120 053e 9C       		.byte	0x9c
 3121 053f 13       		.uleb128 0x13
 3122 0540 01050000 		.4byte	.LASF52
 3123 0544 01       		.byte	0x1
 3124 0545 9101     		.2byte	0x191
 3125 0547 8D000000 		.4byte	0x8d
 3126 054b 00000000 		.4byte	.LFB92
 3127 054f 4C000000 		.4byte	.LFE92-.LFB92
 3128 0553 01       		.uleb128 0x1
 3129 0554 9C       		.byte	0x9c
 3130 0555 69050000 		.4byte	0x569
 3131 0559 11       		.uleb128 0x11
 3132 055a 00000000 		.4byte	.LASF22
 3133 055e 01       		.byte	0x1
 3134 055f 9301     		.2byte	0x193
 3135 0561 8D000000 		.4byte	0x8d
 3136 0565 02       		.uleb128 0x2
 3137 0566 91       		.byte	0x91
 3138 0567 74       		.sleb128 -12
 3139 0568 00       		.byte	0
 3140 0569 14       		.uleb128 0x14
 3141 056a 7B020000 		.4byte	.LASF53
 3142 056e 01       		.byte	0x1
 3143 056f 9C01     		.2byte	0x19c
 3144 0571 8D000000 		.4byte	0x8d
 3145 0575 00000000 		.4byte	.LFB93
 3146 0579 9C000000 		.4byte	.LFE93-.LFB93
 3147 057d 01       		.uleb128 0x1
 3148 057e 9C       		.byte	0x9c
 3149 057f CA050000 		.4byte	0x5ca
 3150 0583 11       		.uleb128 0x11
 3151 0584 00000000 		.4byte	.LASF22
 3152 0588 01       		.byte	0x1
 3153 0589 9E01     		.2byte	0x19e
 3154 058b 8D000000 		.4byte	0x8d
 3155 058f 02       		.uleb128 0x2
 3156 0590 91       		.byte	0x91
 3157 0591 74       		.sleb128 -12
 3158 0592 11       		.uleb128 0x11
ARM GAS  C:\Users\Tomas\AppData\Local\Temp\cc1QFzoE.s 			page 66


 3159 0593 09040000 		.4byte	.LASF26
 3160 0597 01       		.byte	0x1
 3161 0598 9F01     		.2byte	0x19f
 3162 059a 8D000000 		.4byte	0x8d
 3163 059e 02       		.uleb128 0x2
 3164 059f 91       		.byte	0x91
 3165 05a0 70       		.sleb128 -16
 3166 05a1 0C       		.uleb128 0xc
 3167 05a2 40000000 		.4byte	.LBB5
 3168 05a6 40000000 		.4byte	.LBE5-.LBB5
 3169 05aa 11       		.uleb128 0x11
 3170 05ab 3F040000 		.4byte	.LASF20
 3171 05af 01       		.byte	0x1
 3172 05b0 A801     		.2byte	0x1a8
 3173 05b2 81000000 		.4byte	0x81
 3174 05b6 02       		.uleb128 0x2
 3175 05b7 91       		.byte	0x91
 3176 05b8 6F       		.sleb128 -17
 3177 05b9 11       		.uleb128 0x11
 3178 05ba 65040000 		.4byte	.LASF21
 3179 05be 01       		.byte	0x1
 3180 05bf A901     		.2byte	0x1a9
 3181 05c1 81000000 		.4byte	0x81
 3182 05c5 02       		.uleb128 0x2
 3183 05c6 91       		.byte	0x91
 3184 05c7 6E       		.sleb128 -18
 3185 05c8 00       		.byte	0
 3186 05c9 00       		.byte	0
 3187 05ca 10       		.uleb128 0x10
 3188 05cb 07000000 		.4byte	.LASF54
 3189 05cf 01       		.byte	0x1
 3190 05d0 B701     		.2byte	0x1b7
 3191 05d2 00000000 		.4byte	.LFB94
 3192 05d6 1A000000 		.4byte	.LFE94-.LFB94
 3193 05da 01       		.uleb128 0x1
 3194 05db 9C       		.byte	0x9c
 3195 05dc EE050000 		.4byte	0x5ee
 3196 05e0 15       		.uleb128 0x15
 3197 05e1 7400     		.ascii	"t\000"
 3198 05e3 01       		.byte	0x1
 3199 05e4 B701     		.2byte	0x1b7
 3200 05e6 8D000000 		.4byte	0x8d
 3201 05ea 02       		.uleb128 0x2
 3202 05eb 91       		.byte	0x91
 3203 05ec 74       		.sleb128 -12
 3204 05ed 00       		.byte	0
 3205 05ee 12       		.uleb128 0x12
 3206 05ef 8E010000 		.4byte	.LASF55
 3207 05f3 01       		.byte	0x1
 3208 05f4 BC01     		.2byte	0x1bc
 3209 05f6 68000000 		.4byte	0x68
 3210 05fa 00000000 		.4byte	.LFB95
 3211 05fe 1C000000 		.4byte	.LFE95-.LFB95
 3212 0602 01       		.uleb128 0x1
 3213 0603 9C       		.byte	0x9c
 3214 0604 14       		.uleb128 0x14
 3215 0605 E4050000 		.4byte	.LASF56
ARM GAS  C:\Users\Tomas\AppData\Local\Temp\cc1QFzoE.s 			page 67


 3216 0609 01       		.byte	0x1
 3217 060a C201     		.2byte	0x1c2
 3218 060c 68000000 		.4byte	0x68
 3219 0610 00000000 		.4byte	.LFB96
 3220 0614 40000000 		.4byte	.LFE96-.LFB96
 3221 0618 01       		.uleb128 0x1
 3222 0619 9C       		.byte	0x9c
 3223 061a 3D060000 		.4byte	0x63d
 3224 061e 16       		.uleb128 0x16
 3225 061f 01060000 		.4byte	.LASF32
 3226 0623 01       		.byte	0x1
 3227 0624 C201     		.2byte	0x1c2
 3228 0626 8D000000 		.4byte	0x8d
 3229 062a 02       		.uleb128 0x2
 3230 062b 91       		.byte	0x91
 3231 062c 6C       		.sleb128 -20
 3232 062d 11       		.uleb128 0x11
 3233 062e 00000000 		.4byte	.LASF22
 3234 0632 01       		.byte	0x1
 3235 0633 C401     		.2byte	0x1c4
 3236 0635 68000000 		.4byte	0x68
 3237 0639 02       		.uleb128 0x2
 3238 063a 91       		.byte	0x91
 3239 063b 74       		.sleb128 -12
 3240 063c 00       		.byte	0
 3241 063d 10       		.uleb128 0x10
 3242 063e 6C040000 		.4byte	.LASF57
 3243 0642 01       		.byte	0x1
 3244 0643 E101     		.2byte	0x1e1
 3245 0645 00000000 		.4byte	.LFB97
 3246 0649 B0000000 		.4byte	.LFE97-.LFB97
 3247 064d 01       		.uleb128 0x1
 3248 064e 9C       		.byte	0x9c
 3249 064f 90060000 		.4byte	0x690
 3250 0653 11       		.uleb128 0x11
 3251 0654 76040000 		.4byte	.LASF58
 3252 0658 01       		.byte	0x1
 3253 0659 EB01     		.2byte	0x1eb
 3254 065b 8D000000 		.4byte	0x8d
 3255 065f 02       		.uleb128 0x2
 3256 0660 91       		.byte	0x91
 3257 0661 74       		.sleb128 -12
 3258 0662 11       		.uleb128 0x11
 3259 0663 F1010000 		.4byte	.LASF59
 3260 0667 01       		.byte	0x1
 3261 0668 EC01     		.2byte	0x1ec
 3262 066a 8D000000 		.4byte	0x8d
 3263 066e 02       		.uleb128 0x2
 3264 066f 91       		.byte	0x91
 3265 0670 70       		.sleb128 -16
 3266 0671 11       		.uleb128 0x11
 3267 0672 E2040000 		.4byte	.LASF60
 3268 0676 01       		.byte	0x1
 3269 0677 ED01     		.2byte	0x1ed
 3270 0679 8D000000 		.4byte	0x8d
 3271 067d 02       		.uleb128 0x2
 3272 067e 91       		.byte	0x91
ARM GAS  C:\Users\Tomas\AppData\Local\Temp\cc1QFzoE.s 			page 68


 3273 067f 6C       		.sleb128 -20
 3274 0680 11       		.uleb128 0x11
 3275 0681 5E020000 		.4byte	.LASF61
 3276 0685 01       		.byte	0x1
 3277 0686 EE01     		.2byte	0x1ee
 3278 0688 8D000000 		.4byte	0x8d
 3279 068c 02       		.uleb128 0x2
 3280 068d 91       		.byte	0x91
 3281 068e 68       		.sleb128 -24
 3282 068f 00       		.byte	0
 3283 0690 17       		.uleb128 0x17
 3284 0691 5C040000 		.4byte	.LASF62
 3285 0695 01       		.byte	0x1
 3286 0696 F401     		.2byte	0x1f4
 3287 0698 00000000 		.4byte	.LFB98
 3288 069c 26000000 		.4byte	.LFE98-.LFB98
 3289 06a0 01       		.uleb128 0x1
 3290 06a1 9C       		.byte	0x9c
 3291 06a2 10       		.uleb128 0x10
 3292 06a3 C0030000 		.4byte	.LASF63
 3293 06a7 01       		.byte	0x1
 3294 06a8 FD01     		.2byte	0x1fd
 3295 06aa 00000000 		.4byte	.LFB99
 3296 06ae 38000000 		.4byte	.LFE99-.LFB99
 3297 06b2 01       		.uleb128 0x1
 3298 06b3 9C       		.byte	0x9c
 3299 06b4 C6060000 		.4byte	0x6c6
 3300 06b8 15       		.uleb128 0x15
 3301 06b9 7400     		.ascii	"t\000"
 3302 06bb 01       		.byte	0x1
 3303 06bc FD01     		.2byte	0x1fd
 3304 06be 8D000000 		.4byte	0x8d
 3305 06c2 02       		.uleb128 0x2
 3306 06c3 91       		.byte	0x91
 3307 06c4 74       		.sleb128 -12
 3308 06c5 00       		.byte	0
 3309 06c6 12       		.uleb128 0x12
 3310 06c7 66010000 		.4byte	.LASF64
 3311 06cb 01       		.byte	0x1
 3312 06cc 0502     		.2byte	0x205
 3313 06ce 68000000 		.4byte	0x68
 3314 06d2 00000000 		.4byte	.LFB100
 3315 06d6 16000000 		.4byte	.LFE100-.LFB100
 3316 06da 01       		.uleb128 0x1
 3317 06db 9C       		.byte	0x9c
 3318 06dc 14       		.uleb128 0x14
 3319 06dd 46000000 		.4byte	.LASF65
 3320 06e1 01       		.byte	0x1
 3321 06e2 0B02     		.2byte	0x20b
 3322 06e4 68000000 		.4byte	0x68
 3323 06e8 00000000 		.4byte	.LFB101
 3324 06ec 40000000 		.4byte	.LFE101-.LFB101
 3325 06f0 01       		.uleb128 0x1
 3326 06f1 9C       		.byte	0x9c
 3327 06f2 15070000 		.4byte	0x715
 3328 06f6 16       		.uleb128 0x16
 3329 06f7 01060000 		.4byte	.LASF32
ARM GAS  C:\Users\Tomas\AppData\Local\Temp\cc1QFzoE.s 			page 69


 3330 06fb 01       		.byte	0x1
 3331 06fc 0B02     		.2byte	0x20b
 3332 06fe 8D000000 		.4byte	0x8d
 3333 0702 02       		.uleb128 0x2
 3334 0703 91       		.byte	0x91
 3335 0704 6C       		.sleb128 -20
 3336 0705 11       		.uleb128 0x11
 3337 0706 00000000 		.4byte	.LASF22
 3338 070a 01       		.byte	0x1
 3339 070b 0D02     		.2byte	0x20d
 3340 070d 68000000 		.4byte	0x68
 3341 0711 02       		.uleb128 0x2
 3342 0712 91       		.byte	0x91
 3343 0713 74       		.sleb128 -12
 3344 0714 00       		.byte	0
 3345 0715 14       		.uleb128 0x14
 3346 0716 06020000 		.4byte	.LASF66
 3347 071a 01       		.byte	0x1
 3348 071b 1D02     		.2byte	0x21d
 3349 071d 68000000 		.4byte	0x68
 3350 0721 00000000 		.4byte	.LFB102
 3351 0725 22000000 		.4byte	.LFE102-.LFB102
 3352 0729 01       		.uleb128 0x1
 3353 072a 9C       		.byte	0x9c
 3354 072b 3F070000 		.4byte	0x73f
 3355 072f 11       		.uleb128 0x11
 3356 0730 00000000 		.4byte	.LASF22
 3357 0734 01       		.byte	0x1
 3358 0735 1E02     		.2byte	0x21e
 3359 0737 81000000 		.4byte	0x81
 3360 073b 02       		.uleb128 0x2
 3361 073c 91       		.byte	0x91
 3362 073d 77       		.sleb128 -9
 3363 073e 00       		.byte	0
 3364 073f 18       		.uleb128 0x18
 3365 0740 D7050000 		.4byte	.LASF67
 3366 0744 05       		.byte	0x5
 3367 0745 9606     		.2byte	0x696
 3368 0747 4B070000 		.4byte	0x74b
 3369 074b 19       		.uleb128 0x19
 3370 074c 76000000 		.4byte	0x76
 3371 0750 1A       		.uleb128 0x1a
 3372 0751 85040000 		.4byte	.LASF68
 3373 0755 01       		.byte	0x1
 3374 0756 14       		.byte	0x14
 3375 0757 8D000000 		.4byte	0x8d
 3376 075b 05       		.uleb128 0x5
 3377 075c 03       		.byte	0x3
 3378 075d 00000000 		.4byte	PulseCounter_1_Timestamp_hw
 3379 0761 1A       		.uleb128 0x1a
 3380 0762 9F050000 		.4byte	.LASF69
 3381 0766 01       		.byte	0x1
 3382 0767 15       		.byte	0x15
 3383 0768 8D000000 		.4byte	0x8d
 3384 076c 05       		.uleb128 0x5
 3385 076d 03       		.byte	0x3
 3386 076e 00000000 		.4byte	pulseCounter1
ARM GAS  C:\Users\Tomas\AppData\Local\Temp\cc1QFzoE.s 			page 70


 3387 0772 1A       		.uleb128 0x1a
 3388 0773 CB010000 		.4byte	.LASF70
 3389 0777 01       		.byte	0x1
 3390 0778 1D       		.byte	0x1d
 3391 0779 8D000000 		.4byte	0x8d
 3392 077d 05       		.uleb128 0x5
 3393 077e 03       		.byte	0x3
 3394 077f 00000000 		.4byte	timestampTimer
 3395 0783 1A       		.uleb128 0x1a
 3396 0784 BB010000 		.4byte	.LASF71
 3397 0788 01       		.byte	0x1
 3398 0789 24       		.byte	0x24
 3399 078a 8D000000 		.4byte	0x8d
 3400 078e 05       		.uleb128 0x5
 3401 078f 03       		.byte	0x3
 3402 0790 00000000 		.4byte	capture_1_count
 3403 0794 1B       		.uleb128 0x1b
 3404 0795 8D000000 		.4byte	0x8d
 3405 0799 A4070000 		.4byte	0x7a4
 3406 079d 1C       		.uleb128 0x1c
 3407 079e B5000000 		.4byte	0xb5
 3408 07a2 01       		.byte	0x1
 3409 07a3 00       		.byte	0
 3410 07a4 1A       		.uleb128 0x1a
 3411 07a5 6B050000 		.4byte	.LASF72
 3412 07a9 01       		.byte	0x1
 3413 07aa 25       		.byte	0x25
 3414 07ab 94070000 		.4byte	0x794
 3415 07af 05       		.uleb128 0x5
 3416 07b0 03       		.byte	0x3
 3417 07b1 00000000 		.4byte	capture_1_timestampTimer
 3418 07b5 1B       		.uleb128 0x1b
 3419 07b6 81000000 		.4byte	0x81
 3420 07ba C5070000 		.4byte	0x7c5
 3421 07be 1C       		.uleb128 0x1c
 3422 07bf B5000000 		.4byte	0xb5
 3423 07c3 01       		.byte	0x1
 3424 07c4 00       		.byte	0
 3425 07c5 1A       		.uleb128 0x1a
 3426 07c6 7E030000 		.4byte	.LASF73
 3427 07ca 01       		.byte	0x1
 3428 07cb 26       		.byte	0x26
 3429 07cc B5070000 		.4byte	0x7b5
 3430 07d0 05       		.uleb128 0x5
 3431 07d1 03       		.byte	0x3
 3432 07d2 00000000 		.4byte	capture_1_Timestamp_hw
 3433 07d6 1A       		.uleb128 0x1a
 3434 07d7 AD050000 		.4byte	.LASF74
 3435 07db 01       		.byte	0x1
 3436 07dc 96       		.byte	0x96
 3437 07dd 8D000000 		.4byte	0x8d
 3438 07e1 05       		.uleb128 0x5
 3439 07e2 03       		.byte	0x3
 3440 07e3 00000000 		.4byte	pulseCounter2
 3441 07e7 1A       		.uleb128 0x1a
 3442 07e8 A8040000 		.4byte	.LASF75
 3443 07ec 01       		.byte	0x1
ARM GAS  C:\Users\Tomas\AppData\Local\Temp\cc1QFzoE.s 			page 71


 3444 07ed 9D       		.byte	0x9d
 3445 07ee 8D000000 		.4byte	0x8d
 3446 07f2 05       		.uleb128 0x5
 3447 07f3 03       		.byte	0x3
 3448 07f4 00000000 		.4byte	capture_2_count
 3449 07f8 1A       		.uleb128 0x1a
 3450 07f9 41030000 		.4byte	.LASF76
 3451 07fd 01       		.byte	0x1
 3452 07fe 9E       		.byte	0x9e
 3453 07ff 94070000 		.4byte	0x794
 3454 0803 05       		.uleb128 0x5
 3455 0804 03       		.byte	0x3
 3456 0805 00000000 		.4byte	capture_2_timestampTimer
 3457 0809 1A       		.uleb128 0x1a
 3458 080a A7020000 		.4byte	.LASF77
 3459 080e 01       		.byte	0x1
 3460 080f 9F       		.byte	0x9f
 3461 0810 B5070000 		.4byte	0x7b5
 3462 0814 05       		.uleb128 0x5
 3463 0815 03       		.byte	0x3
 3464 0816 00000000 		.4byte	capture_2_Timestamp_hw
 3465 081a 1D       		.uleb128 0x1d
 3466 081b BB050000 		.4byte	.LASF78
 3467 081f 01       		.byte	0x1
 3468 0820 0301     		.2byte	0x103
 3469 0822 8D000000 		.4byte	0x8d
 3470 0826 05       		.uleb128 0x5
 3471 0827 03       		.byte	0x3
 3472 0828 00000000 		.4byte	pulseCounter3
 3473 082c 1D       		.uleb128 0x1d
 3474 082d F1040000 		.4byte	.LASF79
 3475 0831 01       		.byte	0x1
 3476 0832 0A01     		.2byte	0x10a
 3477 0834 8D000000 		.4byte	0x8d
 3478 0838 05       		.uleb128 0x5
 3479 0839 03       		.byte	0x3
 3480 083a 00000000 		.4byte	capture_3_count
 3481 083e 1D       		.uleb128 0x1d
 3482 083f 2D000000 		.4byte	.LASF80
 3483 0843 01       		.byte	0x1
 3484 0844 0B01     		.2byte	0x10b
 3485 0846 94070000 		.4byte	0x794
 3486 084a 05       		.uleb128 0x5
 3487 084b 03       		.byte	0x3
 3488 084c 00000000 		.4byte	capture_3_timestampTimer
 3489 0850 1D       		.uleb128 0x1d
 3490 0851 DA010000 		.4byte	.LASF81
 3491 0855 01       		.byte	0x1
 3492 0856 0C01     		.2byte	0x10c
 3493 0858 B5070000 		.4byte	0x7b5
 3494 085c 05       		.uleb128 0x5
 3495 085d 03       		.byte	0x3
 3496 085e 00000000 		.4byte	capture_3_Timestamp_hw
 3497 0862 1D       		.uleb128 0x1d
 3498 0863 C9050000 		.4byte	.LASF82
 3499 0867 01       		.byte	0x1
 3500 0868 6E01     		.2byte	0x16e
ARM GAS  C:\Users\Tomas\AppData\Local\Temp\cc1QFzoE.s 			page 72


 3501 086a 8D000000 		.4byte	0x8d
 3502 086e 05       		.uleb128 0x5
 3503 086f 03       		.byte	0x3
 3504 0870 00000000 		.4byte	pulseCounter4
 3505 0874 1D       		.uleb128 0x1d
 3506 0875 F1050000 		.4byte	.LASF83
 3507 0879 01       		.byte	0x1
 3508 087a 7501     		.2byte	0x175
 3509 087c 8D000000 		.4byte	0x8d
 3510 0880 05       		.uleb128 0x5
 3511 0881 03       		.byte	0x3
 3512 0882 00000000 		.4byte	capture_4_count
 3513 0886 1D       		.uleb128 0x1d
 3514 0887 75010000 		.4byte	.LASF84
 3515 088b 01       		.byte	0x1
 3516 088c 7601     		.2byte	0x176
 3517 088e 94070000 		.4byte	0x794
 3518 0892 05       		.uleb128 0x5
 3519 0893 03       		.byte	0x3
 3520 0894 00000000 		.4byte	capture_4_timestampTimer
 3521 0898 1D       		.uleb128 0x1d
 3522 0899 F2030000 		.4byte	.LASF85
 3523 089d 01       		.byte	0x1
 3524 089e 7701     		.2byte	0x177
 3525 08a0 B5070000 		.4byte	0x7b5
 3526 08a4 05       		.uleb128 0x5
 3527 08a5 03       		.byte	0x3
 3528 08a6 00000000 		.4byte	capture_4_Timestamp_hw
 3529 08aa 00       		.byte	0
 3530              		.section	.debug_abbrev,"",%progbits
 3531              	.Ldebug_abbrev0:
 3532 0000 01       		.uleb128 0x1
 3533 0001 11       		.uleb128 0x11
 3534 0002 01       		.byte	0x1
 3535 0003 25       		.uleb128 0x25
 3536 0004 0E       		.uleb128 0xe
 3537 0005 13       		.uleb128 0x13
 3538 0006 0B       		.uleb128 0xb
 3539 0007 03       		.uleb128 0x3
 3540 0008 0E       		.uleb128 0xe
 3541 0009 1B       		.uleb128 0x1b
 3542 000a 0E       		.uleb128 0xe
 3543 000b 55       		.uleb128 0x55
 3544 000c 17       		.uleb128 0x17
 3545 000d 11       		.uleb128 0x11
 3546 000e 01       		.uleb128 0x1
 3547 000f 10       		.uleb128 0x10
 3548 0010 17       		.uleb128 0x17
 3549 0011 00       		.byte	0
 3550 0012 00       		.byte	0
 3551 0013 02       		.uleb128 0x2
 3552 0014 24       		.uleb128 0x24
 3553 0015 00       		.byte	0
 3554 0016 0B       		.uleb128 0xb
 3555 0017 0B       		.uleb128 0xb
 3556 0018 3E       		.uleb128 0x3e
 3557 0019 0B       		.uleb128 0xb
ARM GAS  C:\Users\Tomas\AppData\Local\Temp\cc1QFzoE.s 			page 73


 3558 001a 03       		.uleb128 0x3
 3559 001b 0E       		.uleb128 0xe
 3560 001c 00       		.byte	0
 3561 001d 00       		.byte	0
 3562 001e 03       		.uleb128 0x3
 3563 001f 16       		.uleb128 0x16
 3564 0020 00       		.byte	0
 3565 0021 03       		.uleb128 0x3
 3566 0022 0E       		.uleb128 0xe
 3567 0023 3A       		.uleb128 0x3a
 3568 0024 0B       		.uleb128 0xb
 3569 0025 3B       		.uleb128 0x3b
 3570 0026 0B       		.uleb128 0xb
 3571 0027 49       		.uleb128 0x49
 3572 0028 13       		.uleb128 0x13
 3573 0029 00       		.byte	0
 3574 002a 00       		.byte	0
 3575 002b 04       		.uleb128 0x4
 3576 002c 24       		.uleb128 0x24
 3577 002d 00       		.byte	0
 3578 002e 0B       		.uleb128 0xb
 3579 002f 0B       		.uleb128 0xb
 3580 0030 3E       		.uleb128 0x3e
 3581 0031 0B       		.uleb128 0xb
 3582 0032 03       		.uleb128 0x3
 3583 0033 08       		.uleb128 0x8
 3584 0034 00       		.byte	0
 3585 0035 00       		.byte	0
 3586 0036 05       		.uleb128 0x5
 3587 0037 16       		.uleb128 0x16
 3588 0038 00       		.byte	0
 3589 0039 03       		.uleb128 0x3
 3590 003a 0E       		.uleb128 0xe
 3591 003b 3A       		.uleb128 0x3a
 3592 003c 0B       		.uleb128 0xb
 3593 003d 3B       		.uleb128 0x3b
 3594 003e 05       		.uleb128 0x5
 3595 003f 49       		.uleb128 0x49
 3596 0040 13       		.uleb128 0x13
 3597 0041 00       		.byte	0
 3598 0042 00       		.byte	0
 3599 0043 06       		.uleb128 0x6
 3600 0044 2E       		.uleb128 0x2e
 3601 0045 00       		.byte	0
 3602 0046 3F       		.uleb128 0x3f
 3603 0047 19       		.uleb128 0x19
 3604 0048 03       		.uleb128 0x3
 3605 0049 0E       		.uleb128 0xe
 3606 004a 3A       		.uleb128 0x3a
 3607 004b 0B       		.uleb128 0xb
 3608 004c 3B       		.uleb128 0x3b
 3609 004d 0B       		.uleb128 0xb
 3610 004e 27       		.uleb128 0x27
 3611 004f 19       		.uleb128 0x19
 3612 0050 11       		.uleb128 0x11
 3613 0051 01       		.uleb128 0x1
 3614 0052 12       		.uleb128 0x12
ARM GAS  C:\Users\Tomas\AppData\Local\Temp\cc1QFzoE.s 			page 74


 3615 0053 06       		.uleb128 0x6
 3616 0054 40       		.uleb128 0x40
 3617 0055 18       		.uleb128 0x18
 3618 0056 9742     		.uleb128 0x2117
 3619 0058 19       		.uleb128 0x19
 3620 0059 00       		.byte	0
 3621 005a 00       		.byte	0
 3622 005b 07       		.uleb128 0x7
 3623 005c 2E       		.uleb128 0x2e
 3624 005d 01       		.byte	0x1
 3625 005e 3F       		.uleb128 0x3f
 3626 005f 19       		.uleb128 0x19
 3627 0060 03       		.uleb128 0x3
 3628 0061 0E       		.uleb128 0xe
 3629 0062 3A       		.uleb128 0x3a
 3630 0063 0B       		.uleb128 0xb
 3631 0064 3B       		.uleb128 0x3b
 3632 0065 0B       		.uleb128 0xb
 3633 0066 27       		.uleb128 0x27
 3634 0067 19       		.uleb128 0x19
 3635 0068 11       		.uleb128 0x11
 3636 0069 01       		.uleb128 0x1
 3637 006a 12       		.uleb128 0x12
 3638 006b 06       		.uleb128 0x6
 3639 006c 40       		.uleb128 0x40
 3640 006d 18       		.uleb128 0x18
 3641 006e 9642     		.uleb128 0x2116
 3642 0070 19       		.uleb128 0x19
 3643 0071 01       		.uleb128 0x1
 3644 0072 13       		.uleb128 0x13
 3645 0073 00       		.byte	0
 3646 0074 00       		.byte	0
 3647 0075 08       		.uleb128 0x8
 3648 0076 34       		.uleb128 0x34
 3649 0077 00       		.byte	0
 3650 0078 03       		.uleb128 0x3
 3651 0079 0E       		.uleb128 0xe
 3652 007a 3A       		.uleb128 0x3a
 3653 007b 0B       		.uleb128 0xb
 3654 007c 3B       		.uleb128 0x3b
 3655 007d 0B       		.uleb128 0xb
 3656 007e 49       		.uleb128 0x49
 3657 007f 13       		.uleb128 0x13
 3658 0080 02       		.uleb128 0x2
 3659 0081 18       		.uleb128 0x18
 3660 0082 00       		.byte	0
 3661 0083 00       		.byte	0
 3662 0084 09       		.uleb128 0x9
 3663 0085 2E       		.uleb128 0x2e
 3664 0086 01       		.byte	0x1
 3665 0087 3F       		.uleb128 0x3f
 3666 0088 19       		.uleb128 0x19
 3667 0089 03       		.uleb128 0x3
 3668 008a 0E       		.uleb128 0xe
 3669 008b 3A       		.uleb128 0x3a
 3670 008c 0B       		.uleb128 0xb
 3671 008d 3B       		.uleb128 0x3b
ARM GAS  C:\Users\Tomas\AppData\Local\Temp\cc1QFzoE.s 			page 75


 3672 008e 0B       		.uleb128 0xb
 3673 008f 27       		.uleb128 0x27
 3674 0090 19       		.uleb128 0x19
 3675 0091 49       		.uleb128 0x49
 3676 0092 13       		.uleb128 0x13
 3677 0093 11       		.uleb128 0x11
 3678 0094 01       		.uleb128 0x1
 3679 0095 12       		.uleb128 0x12
 3680 0096 06       		.uleb128 0x6
 3681 0097 40       		.uleb128 0x40
 3682 0098 18       		.uleb128 0x18
 3683 0099 9742     		.uleb128 0x2117
 3684 009b 19       		.uleb128 0x19
 3685 009c 01       		.uleb128 0x1
 3686 009d 13       		.uleb128 0x13
 3687 009e 00       		.byte	0
 3688 009f 00       		.byte	0
 3689 00a0 0A       		.uleb128 0xa
 3690 00a1 2E       		.uleb128 0x2e
 3691 00a2 00       		.byte	0
 3692 00a3 3F       		.uleb128 0x3f
 3693 00a4 19       		.uleb128 0x19
 3694 00a5 03       		.uleb128 0x3
 3695 00a6 0E       		.uleb128 0xe
 3696 00a7 3A       		.uleb128 0x3a
 3697 00a8 0B       		.uleb128 0xb
 3698 00a9 3B       		.uleb128 0x3b
 3699 00aa 0B       		.uleb128 0xb
 3700 00ab 27       		.uleb128 0x27
 3701 00ac 19       		.uleb128 0x19
 3702 00ad 49       		.uleb128 0x49
 3703 00ae 13       		.uleb128 0x13
 3704 00af 11       		.uleb128 0x11
 3705 00b0 01       		.uleb128 0x1
 3706 00b1 12       		.uleb128 0x12
 3707 00b2 06       		.uleb128 0x6
 3708 00b3 40       		.uleb128 0x40
 3709 00b4 18       		.uleb128 0x18
 3710 00b5 9642     		.uleb128 0x2116
 3711 00b7 19       		.uleb128 0x19
 3712 00b8 00       		.byte	0
 3713 00b9 00       		.byte	0
 3714 00ba 0B       		.uleb128 0xb
 3715 00bb 2E       		.uleb128 0x2e
 3716 00bc 01       		.byte	0x1
 3717 00bd 3F       		.uleb128 0x3f
 3718 00be 19       		.uleb128 0x19
 3719 00bf 03       		.uleb128 0x3
 3720 00c0 0E       		.uleb128 0xe
 3721 00c1 3A       		.uleb128 0x3a
 3722 00c2 0B       		.uleb128 0xb
 3723 00c3 3B       		.uleb128 0x3b
 3724 00c4 0B       		.uleb128 0xb
 3725 00c5 27       		.uleb128 0x27
 3726 00c6 19       		.uleb128 0x19
 3727 00c7 49       		.uleb128 0x49
 3728 00c8 13       		.uleb128 0x13
ARM GAS  C:\Users\Tomas\AppData\Local\Temp\cc1QFzoE.s 			page 76


 3729 00c9 11       		.uleb128 0x11
 3730 00ca 01       		.uleb128 0x1
 3731 00cb 12       		.uleb128 0x12
 3732 00cc 06       		.uleb128 0x6
 3733 00cd 40       		.uleb128 0x40
 3734 00ce 18       		.uleb128 0x18
 3735 00cf 9642     		.uleb128 0x2116
 3736 00d1 19       		.uleb128 0x19
 3737 00d2 01       		.uleb128 0x1
 3738 00d3 13       		.uleb128 0x13
 3739 00d4 00       		.byte	0
 3740 00d5 00       		.byte	0
 3741 00d6 0C       		.uleb128 0xc
 3742 00d7 0B       		.uleb128 0xb
 3743 00d8 01       		.byte	0x1
 3744 00d9 11       		.uleb128 0x11
 3745 00da 01       		.uleb128 0x1
 3746 00db 12       		.uleb128 0x12
 3747 00dc 06       		.uleb128 0x6
 3748 00dd 00       		.byte	0
 3749 00de 00       		.byte	0
 3750 00df 0D       		.uleb128 0xd
 3751 00e0 05       		.uleb128 0x5
 3752 00e1 00       		.byte	0
 3753 00e2 03       		.uleb128 0x3
 3754 00e3 08       		.uleb128 0x8
 3755 00e4 3A       		.uleb128 0x3a
 3756 00e5 0B       		.uleb128 0xb
 3757 00e6 3B       		.uleb128 0x3b
 3758 00e7 0B       		.uleb128 0xb
 3759 00e8 49       		.uleb128 0x49
 3760 00e9 13       		.uleb128 0x13
 3761 00ea 02       		.uleb128 0x2
 3762 00eb 18       		.uleb128 0x18
 3763 00ec 00       		.byte	0
 3764 00ed 00       		.byte	0
 3765 00ee 0E       		.uleb128 0xe
 3766 00ef 05       		.uleb128 0x5
 3767 00f0 00       		.byte	0
 3768 00f1 03       		.uleb128 0x3
 3769 00f2 0E       		.uleb128 0xe
 3770 00f3 3A       		.uleb128 0x3a
 3771 00f4 0B       		.uleb128 0xb
 3772 00f5 3B       		.uleb128 0x3b
 3773 00f6 0B       		.uleb128 0xb
 3774 00f7 49       		.uleb128 0x49
 3775 00f8 13       		.uleb128 0x13
 3776 00f9 02       		.uleb128 0x2
 3777 00fa 18       		.uleb128 0x18
 3778 00fb 00       		.byte	0
 3779 00fc 00       		.byte	0
 3780 00fd 0F       		.uleb128 0xf
 3781 00fe 2E       		.uleb128 0x2e
 3782 00ff 00       		.byte	0
 3783 0100 3F       		.uleb128 0x3f
 3784 0101 19       		.uleb128 0x19
 3785 0102 03       		.uleb128 0x3
ARM GAS  C:\Users\Tomas\AppData\Local\Temp\cc1QFzoE.s 			page 77


 3786 0103 0E       		.uleb128 0xe
 3787 0104 3A       		.uleb128 0x3a
 3788 0105 0B       		.uleb128 0xb
 3789 0106 3B       		.uleb128 0x3b
 3790 0107 05       		.uleb128 0x5
 3791 0108 27       		.uleb128 0x27
 3792 0109 19       		.uleb128 0x19
 3793 010a 11       		.uleb128 0x11
 3794 010b 01       		.uleb128 0x1
 3795 010c 12       		.uleb128 0x12
 3796 010d 06       		.uleb128 0x6
 3797 010e 40       		.uleb128 0x40
 3798 010f 18       		.uleb128 0x18
 3799 0110 9742     		.uleb128 0x2117
 3800 0112 19       		.uleb128 0x19
 3801 0113 00       		.byte	0
 3802 0114 00       		.byte	0
 3803 0115 10       		.uleb128 0x10
 3804 0116 2E       		.uleb128 0x2e
 3805 0117 01       		.byte	0x1
 3806 0118 3F       		.uleb128 0x3f
 3807 0119 19       		.uleb128 0x19
 3808 011a 03       		.uleb128 0x3
 3809 011b 0E       		.uleb128 0xe
 3810 011c 3A       		.uleb128 0x3a
 3811 011d 0B       		.uleb128 0xb
 3812 011e 3B       		.uleb128 0x3b
 3813 011f 05       		.uleb128 0x5
 3814 0120 27       		.uleb128 0x27
 3815 0121 19       		.uleb128 0x19
 3816 0122 11       		.uleb128 0x11
 3817 0123 01       		.uleb128 0x1
 3818 0124 12       		.uleb128 0x12
 3819 0125 06       		.uleb128 0x6
 3820 0126 40       		.uleb128 0x40
 3821 0127 18       		.uleb128 0x18
 3822 0128 9642     		.uleb128 0x2116
 3823 012a 19       		.uleb128 0x19
 3824 012b 01       		.uleb128 0x1
 3825 012c 13       		.uleb128 0x13
 3826 012d 00       		.byte	0
 3827 012e 00       		.byte	0
 3828 012f 11       		.uleb128 0x11
 3829 0130 34       		.uleb128 0x34
 3830 0131 00       		.byte	0
 3831 0132 03       		.uleb128 0x3
 3832 0133 0E       		.uleb128 0xe
 3833 0134 3A       		.uleb128 0x3a
 3834 0135 0B       		.uleb128 0xb
 3835 0136 3B       		.uleb128 0x3b
 3836 0137 05       		.uleb128 0x5
 3837 0138 49       		.uleb128 0x49
 3838 0139 13       		.uleb128 0x13
 3839 013a 02       		.uleb128 0x2
 3840 013b 18       		.uleb128 0x18
 3841 013c 00       		.byte	0
 3842 013d 00       		.byte	0
ARM GAS  C:\Users\Tomas\AppData\Local\Temp\cc1QFzoE.s 			page 78


 3843 013e 12       		.uleb128 0x12
 3844 013f 2E       		.uleb128 0x2e
 3845 0140 00       		.byte	0
 3846 0141 3F       		.uleb128 0x3f
 3847 0142 19       		.uleb128 0x19
 3848 0143 03       		.uleb128 0x3
 3849 0144 0E       		.uleb128 0xe
 3850 0145 3A       		.uleb128 0x3a
 3851 0146 0B       		.uleb128 0xb
 3852 0147 3B       		.uleb128 0x3b
 3853 0148 05       		.uleb128 0x5
 3854 0149 27       		.uleb128 0x27
 3855 014a 19       		.uleb128 0x19
 3856 014b 49       		.uleb128 0x49
 3857 014c 13       		.uleb128 0x13
 3858 014d 11       		.uleb128 0x11
 3859 014e 01       		.uleb128 0x1
 3860 014f 12       		.uleb128 0x12
 3861 0150 06       		.uleb128 0x6
 3862 0151 40       		.uleb128 0x40
 3863 0152 18       		.uleb128 0x18
 3864 0153 9642     		.uleb128 0x2116
 3865 0155 19       		.uleb128 0x19
 3866 0156 00       		.byte	0
 3867 0157 00       		.byte	0
 3868 0158 13       		.uleb128 0x13
 3869 0159 2E       		.uleb128 0x2e
 3870 015a 01       		.byte	0x1
 3871 015b 3F       		.uleb128 0x3f
 3872 015c 19       		.uleb128 0x19
 3873 015d 03       		.uleb128 0x3
 3874 015e 0E       		.uleb128 0xe
 3875 015f 3A       		.uleb128 0x3a
 3876 0160 0B       		.uleb128 0xb
 3877 0161 3B       		.uleb128 0x3b
 3878 0162 05       		.uleb128 0x5
 3879 0163 27       		.uleb128 0x27
 3880 0164 19       		.uleb128 0x19
 3881 0165 49       		.uleb128 0x49
 3882 0166 13       		.uleb128 0x13
 3883 0167 11       		.uleb128 0x11
 3884 0168 01       		.uleb128 0x1
 3885 0169 12       		.uleb128 0x12
 3886 016a 06       		.uleb128 0x6
 3887 016b 40       		.uleb128 0x40
 3888 016c 18       		.uleb128 0x18
 3889 016d 9742     		.uleb128 0x2117
 3890 016f 19       		.uleb128 0x19
 3891 0170 01       		.uleb128 0x1
 3892 0171 13       		.uleb128 0x13
 3893 0172 00       		.byte	0
 3894 0173 00       		.byte	0
 3895 0174 14       		.uleb128 0x14
 3896 0175 2E       		.uleb128 0x2e
 3897 0176 01       		.byte	0x1
 3898 0177 3F       		.uleb128 0x3f
 3899 0178 19       		.uleb128 0x19
ARM GAS  C:\Users\Tomas\AppData\Local\Temp\cc1QFzoE.s 			page 79


 3900 0179 03       		.uleb128 0x3
 3901 017a 0E       		.uleb128 0xe
 3902 017b 3A       		.uleb128 0x3a
 3903 017c 0B       		.uleb128 0xb
 3904 017d 3B       		.uleb128 0x3b
 3905 017e 05       		.uleb128 0x5
 3906 017f 27       		.uleb128 0x27
 3907 0180 19       		.uleb128 0x19
 3908 0181 49       		.uleb128 0x49
 3909 0182 13       		.uleb128 0x13
 3910 0183 11       		.uleb128 0x11
 3911 0184 01       		.uleb128 0x1
 3912 0185 12       		.uleb128 0x12
 3913 0186 06       		.uleb128 0x6
 3914 0187 40       		.uleb128 0x40
 3915 0188 18       		.uleb128 0x18
 3916 0189 9642     		.uleb128 0x2116
 3917 018b 19       		.uleb128 0x19
 3918 018c 01       		.uleb128 0x1
 3919 018d 13       		.uleb128 0x13
 3920 018e 00       		.byte	0
 3921 018f 00       		.byte	0
 3922 0190 15       		.uleb128 0x15
 3923 0191 05       		.uleb128 0x5
 3924 0192 00       		.byte	0
 3925 0193 03       		.uleb128 0x3
 3926 0194 08       		.uleb128 0x8
 3927 0195 3A       		.uleb128 0x3a
 3928 0196 0B       		.uleb128 0xb
 3929 0197 3B       		.uleb128 0x3b
 3930 0198 05       		.uleb128 0x5
 3931 0199 49       		.uleb128 0x49
 3932 019a 13       		.uleb128 0x13
 3933 019b 02       		.uleb128 0x2
 3934 019c 18       		.uleb128 0x18
 3935 019d 00       		.byte	0
 3936 019e 00       		.byte	0
 3937 019f 16       		.uleb128 0x16
 3938 01a0 05       		.uleb128 0x5
 3939 01a1 00       		.byte	0
 3940 01a2 03       		.uleb128 0x3
 3941 01a3 0E       		.uleb128 0xe
 3942 01a4 3A       		.uleb128 0x3a
 3943 01a5 0B       		.uleb128 0xb
 3944 01a6 3B       		.uleb128 0x3b
 3945 01a7 05       		.uleb128 0x5
 3946 01a8 49       		.uleb128 0x49
 3947 01a9 13       		.uleb128 0x13
 3948 01aa 02       		.uleb128 0x2
 3949 01ab 18       		.uleb128 0x18
 3950 01ac 00       		.byte	0
 3951 01ad 00       		.byte	0
 3952 01ae 17       		.uleb128 0x17
 3953 01af 2E       		.uleb128 0x2e
 3954 01b0 00       		.byte	0
 3955 01b1 3F       		.uleb128 0x3f
 3956 01b2 19       		.uleb128 0x19
ARM GAS  C:\Users\Tomas\AppData\Local\Temp\cc1QFzoE.s 			page 80


 3957 01b3 03       		.uleb128 0x3
 3958 01b4 0E       		.uleb128 0xe
 3959 01b5 3A       		.uleb128 0x3a
 3960 01b6 0B       		.uleb128 0xb
 3961 01b7 3B       		.uleb128 0x3b
 3962 01b8 05       		.uleb128 0x5
 3963 01b9 27       		.uleb128 0x27
 3964 01ba 19       		.uleb128 0x19
 3965 01bb 11       		.uleb128 0x11
 3966 01bc 01       		.uleb128 0x1
 3967 01bd 12       		.uleb128 0x12
 3968 01be 06       		.uleb128 0x6
 3969 01bf 40       		.uleb128 0x40
 3970 01c0 18       		.uleb128 0x18
 3971 01c1 9642     		.uleb128 0x2116
 3972 01c3 19       		.uleb128 0x19
 3973 01c4 00       		.byte	0
 3974 01c5 00       		.byte	0
 3975 01c6 18       		.uleb128 0x18
 3976 01c7 34       		.uleb128 0x34
 3977 01c8 00       		.byte	0
 3978 01c9 03       		.uleb128 0x3
 3979 01ca 0E       		.uleb128 0xe
 3980 01cb 3A       		.uleb128 0x3a
 3981 01cc 0B       		.uleb128 0xb
 3982 01cd 3B       		.uleb128 0x3b
 3983 01ce 05       		.uleb128 0x5
 3984 01cf 49       		.uleb128 0x49
 3985 01d0 13       		.uleb128 0x13
 3986 01d1 3F       		.uleb128 0x3f
 3987 01d2 19       		.uleb128 0x19
 3988 01d3 3C       		.uleb128 0x3c
 3989 01d4 19       		.uleb128 0x19
 3990 01d5 00       		.byte	0
 3991 01d6 00       		.byte	0
 3992 01d7 19       		.uleb128 0x19
 3993 01d8 35       		.uleb128 0x35
 3994 01d9 00       		.byte	0
 3995 01da 49       		.uleb128 0x49
 3996 01db 13       		.uleb128 0x13
 3997 01dc 00       		.byte	0
 3998 01dd 00       		.byte	0
 3999 01de 1A       		.uleb128 0x1a
 4000 01df 34       		.uleb128 0x34
 4001 01e0 00       		.byte	0
 4002 01e1 03       		.uleb128 0x3
 4003 01e2 0E       		.uleb128 0xe
 4004 01e3 3A       		.uleb128 0x3a
 4005 01e4 0B       		.uleb128 0xb
 4006 01e5 3B       		.uleb128 0x3b
 4007 01e6 0B       		.uleb128 0xb
 4008 01e7 49       		.uleb128 0x49
 4009 01e8 13       		.uleb128 0x13
 4010 01e9 3F       		.uleb128 0x3f
 4011 01ea 19       		.uleb128 0x19
 4012 01eb 02       		.uleb128 0x2
 4013 01ec 18       		.uleb128 0x18
ARM GAS  C:\Users\Tomas\AppData\Local\Temp\cc1QFzoE.s 			page 81


 4014 01ed 00       		.byte	0
 4015 01ee 00       		.byte	0
 4016 01ef 1B       		.uleb128 0x1b
 4017 01f0 01       		.uleb128 0x1
 4018 01f1 01       		.byte	0x1
 4019 01f2 49       		.uleb128 0x49
 4020 01f3 13       		.uleb128 0x13
 4021 01f4 01       		.uleb128 0x1
 4022 01f5 13       		.uleb128 0x13
 4023 01f6 00       		.byte	0
 4024 01f7 00       		.byte	0
 4025 01f8 1C       		.uleb128 0x1c
 4026 01f9 21       		.uleb128 0x21
 4027 01fa 00       		.byte	0
 4028 01fb 49       		.uleb128 0x49
 4029 01fc 13       		.uleb128 0x13
 4030 01fd 2F       		.uleb128 0x2f
 4031 01fe 0B       		.uleb128 0xb
 4032 01ff 00       		.byte	0
 4033 0200 00       		.byte	0
 4034 0201 1D       		.uleb128 0x1d
 4035 0202 34       		.uleb128 0x34
 4036 0203 00       		.byte	0
 4037 0204 03       		.uleb128 0x3
 4038 0205 0E       		.uleb128 0xe
 4039 0206 3A       		.uleb128 0x3a
 4040 0207 0B       		.uleb128 0xb
 4041 0208 3B       		.uleb128 0x3b
 4042 0209 05       		.uleb128 0x5
 4043 020a 49       		.uleb128 0x49
 4044 020b 13       		.uleb128 0x13
 4045 020c 3F       		.uleb128 0x3f
 4046 020d 19       		.uleb128 0x19
 4047 020e 02       		.uleb128 0x2
 4048 020f 18       		.uleb128 0x18
 4049 0210 00       		.byte	0
 4050 0211 00       		.byte	0
 4051 0212 00       		.byte	0
 4052              		.section	.debug_aranges,"",%progbits
 4053 0000 54010000 		.4byte	0x154
 4054 0004 0200     		.2byte	0x2
 4055 0006 00000000 		.4byte	.Ldebug_info0
 4056 000a 04       		.byte	0x4
 4057 000b 00       		.byte	0
 4058 000c 0000     		.2byte	0
 4059 000e 0000     		.2byte	0
 4060 0010 00000000 		.4byte	.LFB63
 4061 0014 1C000000 		.4byte	.LFE63-.LFB63
 4062 0018 00000000 		.4byte	.LFB64
 4063 001c 1C000000 		.4byte	.LFE64-.LFB64
 4064 0020 00000000 		.4byte	.LFB65
 4065 0024 74000000 		.4byte	.LFE65-.LFB65
 4066 0028 00000000 		.4byte	.LFB66
 4067 002c 44000000 		.4byte	.LFE66-.LFB66
 4068 0030 00000000 		.4byte	.LFB67
 4069 0034 20000000 		.4byte	.LFE67-.LFB67
 4070 0038 00000000 		.4byte	.LFB68
ARM GAS  C:\Users\Tomas\AppData\Local\Temp\cc1QFzoE.s 			page 82


 4071 003c 4C000000 		.4byte	.LFE68-.LFB68
 4072 0040 00000000 		.4byte	.LFB69
 4073 0044 9C000000 		.4byte	.LFE69-.LFB69
 4074 0048 00000000 		.4byte	.LFB70
 4075 004c 1A000000 		.4byte	.LFE70-.LFB70
 4076 0050 00000000 		.4byte	.LFB71
 4077 0054 1C000000 		.4byte	.LFE71-.LFB71
 4078 0058 00000000 		.4byte	.LFB72
 4079 005c 40000000 		.4byte	.LFE72-.LFB72
 4080 0060 00000000 		.4byte	.LFB73
 4081 0064 1C000000 		.4byte	.LFE73-.LFB73
 4082 0068 00000000 		.4byte	.LFB74
 4083 006c 74000000 		.4byte	.LFE74-.LFB74
 4084 0070 00000000 		.4byte	.LFB75
 4085 0074 20000000 		.4byte	.LFE75-.LFB75
 4086 0078 00000000 		.4byte	.LFB76
 4087 007c 4C000000 		.4byte	.LFE76-.LFB76
 4088 0080 00000000 		.4byte	.LFB77
 4089 0084 9C000000 		.4byte	.LFE77-.LFB77
 4090 0088 00000000 		.4byte	.LFB78
 4091 008c 1A000000 		.4byte	.LFE78-.LFB78
 4092 0090 00000000 		.4byte	.LFB79
 4093 0094 1C000000 		.4byte	.LFE79-.LFB79
 4094 0098 00000000 		.4byte	.LFB80
 4095 009c 40000000 		.4byte	.LFE80-.LFB80
 4096 00a0 00000000 		.4byte	.LFB81
 4097 00a4 1C000000 		.4byte	.LFE81-.LFB81
 4098 00a8 00000000 		.4byte	.LFB82
 4099 00ac 74000000 		.4byte	.LFE82-.LFB82
 4100 00b0 00000000 		.4byte	.LFB83
 4101 00b4 20000000 		.4byte	.LFE83-.LFB83
 4102 00b8 00000000 		.4byte	.LFB84
 4103 00bc 50000000 		.4byte	.LFE84-.LFB84
 4104 00c0 00000000 		.4byte	.LFB85
 4105 00c4 9C000000 		.4byte	.LFE85-.LFB85
 4106 00c8 00000000 		.4byte	.LFB86
 4107 00cc 1A000000 		.4byte	.LFE86-.LFB86
 4108 00d0 00000000 		.4byte	.LFB87
 4109 00d4 1C000000 		.4byte	.LFE87-.LFB87
 4110 00d8 00000000 		.4byte	.LFB88
 4111 00dc 40000000 		.4byte	.LFE88-.LFB88
 4112 00e0 00000000 		.4byte	.LFB89
 4113 00e4 1C000000 		.4byte	.LFE89-.LFB89
 4114 00e8 00000000 		.4byte	.LFB90
 4115 00ec 74000000 		.4byte	.LFE90-.LFB90
 4116 00f0 00000000 		.4byte	.LFB91
 4117 00f4 20000000 		.4byte	.LFE91-.LFB91
 4118 00f8 00000000 		.4byte	.LFB92
 4119 00fc 4C000000 		.4byte	.LFE92-.LFB92
 4120 0100 00000000 		.4byte	.LFB93
 4121 0104 9C000000 		.4byte	.LFE93-.LFB93
 4122 0108 00000000 		.4byte	.LFB94
 4123 010c 1A000000 		.4byte	.LFE94-.LFB94
 4124 0110 00000000 		.4byte	.LFB95
 4125 0114 1C000000 		.4byte	.LFE95-.LFB95
 4126 0118 00000000 		.4byte	.LFB96
 4127 011c 40000000 		.4byte	.LFE96-.LFB96
ARM GAS  C:\Users\Tomas\AppData\Local\Temp\cc1QFzoE.s 			page 83


 4128 0120 00000000 		.4byte	.LFB97
 4129 0124 B0000000 		.4byte	.LFE97-.LFB97
 4130 0128 00000000 		.4byte	.LFB98
 4131 012c 26000000 		.4byte	.LFE98-.LFB98
 4132 0130 00000000 		.4byte	.LFB99
 4133 0134 38000000 		.4byte	.LFE99-.LFB99
 4134 0138 00000000 		.4byte	.LFB100
 4135 013c 16000000 		.4byte	.LFE100-.LFB100
 4136 0140 00000000 		.4byte	.LFB101
 4137 0144 40000000 		.4byte	.LFE101-.LFB101
 4138 0148 00000000 		.4byte	.LFB102
 4139 014c 22000000 		.4byte	.LFE102-.LFB102
 4140 0150 00000000 		.4byte	0
 4141 0154 00000000 		.4byte	0
 4142              		.section	.debug_ranges,"",%progbits
 4143              	.Ldebug_ranges0:
 4144 0000 00000000 		.4byte	.LFB63
 4145 0004 1C000000 		.4byte	.LFE63
 4146 0008 00000000 		.4byte	.LFB64
 4147 000c 1C000000 		.4byte	.LFE64
 4148 0010 00000000 		.4byte	.LFB65
 4149 0014 74000000 		.4byte	.LFE65
 4150 0018 00000000 		.4byte	.LFB66
 4151 001c 44000000 		.4byte	.LFE66
 4152 0020 00000000 		.4byte	.LFB67
 4153 0024 20000000 		.4byte	.LFE67
 4154 0028 00000000 		.4byte	.LFB68
 4155 002c 4C000000 		.4byte	.LFE68
 4156 0030 00000000 		.4byte	.LFB69
 4157 0034 9C000000 		.4byte	.LFE69
 4158 0038 00000000 		.4byte	.LFB70
 4159 003c 1A000000 		.4byte	.LFE70
 4160 0040 00000000 		.4byte	.LFB71
 4161 0044 1C000000 		.4byte	.LFE71
 4162 0048 00000000 		.4byte	.LFB72
 4163 004c 40000000 		.4byte	.LFE72
 4164 0050 00000000 		.4byte	.LFB73
 4165 0054 1C000000 		.4byte	.LFE73
 4166 0058 00000000 		.4byte	.LFB74
 4167 005c 74000000 		.4byte	.LFE74
 4168 0060 00000000 		.4byte	.LFB75
 4169 0064 20000000 		.4byte	.LFE75
 4170 0068 00000000 		.4byte	.LFB76
 4171 006c 4C000000 		.4byte	.LFE76
 4172 0070 00000000 		.4byte	.LFB77
 4173 0074 9C000000 		.4byte	.LFE77
 4174 0078 00000000 		.4byte	.LFB78
 4175 007c 1A000000 		.4byte	.LFE78
 4176 0080 00000000 		.4byte	.LFB79
 4177 0084 1C000000 		.4byte	.LFE79
 4178 0088 00000000 		.4byte	.LFB80
 4179 008c 40000000 		.4byte	.LFE80
 4180 0090 00000000 		.4byte	.LFB81
 4181 0094 1C000000 		.4byte	.LFE81
 4182 0098 00000000 		.4byte	.LFB82
 4183 009c 74000000 		.4byte	.LFE82
 4184 00a0 00000000 		.4byte	.LFB83
ARM GAS  C:\Users\Tomas\AppData\Local\Temp\cc1QFzoE.s 			page 84


 4185 00a4 20000000 		.4byte	.LFE83
 4186 00a8 00000000 		.4byte	.LFB84
 4187 00ac 50000000 		.4byte	.LFE84
 4188 00b0 00000000 		.4byte	.LFB85
 4189 00b4 9C000000 		.4byte	.LFE85
 4190 00b8 00000000 		.4byte	.LFB86
 4191 00bc 1A000000 		.4byte	.LFE86
 4192 00c0 00000000 		.4byte	.LFB87
 4193 00c4 1C000000 		.4byte	.LFE87
 4194 00c8 00000000 		.4byte	.LFB88
 4195 00cc 40000000 		.4byte	.LFE88
 4196 00d0 00000000 		.4byte	.LFB89
 4197 00d4 1C000000 		.4byte	.LFE89
 4198 00d8 00000000 		.4byte	.LFB90
 4199 00dc 74000000 		.4byte	.LFE90
 4200 00e0 00000000 		.4byte	.LFB91
 4201 00e4 20000000 		.4byte	.LFE91
 4202 00e8 00000000 		.4byte	.LFB92
 4203 00ec 4C000000 		.4byte	.LFE92
 4204 00f0 00000000 		.4byte	.LFB93
 4205 00f4 9C000000 		.4byte	.LFE93
 4206 00f8 00000000 		.4byte	.LFB94
 4207 00fc 1A000000 		.4byte	.LFE94
 4208 0100 00000000 		.4byte	.LFB95
 4209 0104 1C000000 		.4byte	.LFE95
 4210 0108 00000000 		.4byte	.LFB96
 4211 010c 40000000 		.4byte	.LFE96
 4212 0110 00000000 		.4byte	.LFB97
 4213 0114 B0000000 		.4byte	.LFE97
 4214 0118 00000000 		.4byte	.LFB98
 4215 011c 26000000 		.4byte	.LFE98
 4216 0120 00000000 		.4byte	.LFB99
 4217 0124 38000000 		.4byte	.LFE99
 4218 0128 00000000 		.4byte	.LFB100
 4219 012c 16000000 		.4byte	.LFE100
 4220 0130 00000000 		.4byte	.LFB101
 4221 0134 40000000 		.4byte	.LFE101
 4222 0138 00000000 		.4byte	.LFB102
 4223 013c 22000000 		.4byte	.LFE102
 4224 0140 00000000 		.4byte	0
 4225 0144 00000000 		.4byte	0
 4226              		.section	.debug_line,"",%progbits
 4227              	.Ldebug_line0:
 4228 0000 28050000 		.section	.debug_str,"MS",%progbits,1
 4228      02004B01 
 4228      00000201 
 4228      FB0E0D00 
 4228      01010101 
 4229              	.LASF22:
 4230 0000 72657375 		.ascii	"result\000"
 4230      6C7400
 4231              	.LASF54:
 4232 0007 4D495334 		.ascii	"MIS4_SetBurstTimeout\000"
 4232      5F536574 
 4232      42757273 
 4232      7454696D 
 4232      656F7574 
ARM GAS  C:\Users\Tomas\AppData\Local\Temp\cc1QFzoE.s 			page 85


 4233              	.LASF25:
 4234 001c 4D495331 		.ascii	"MIS1_ReadCurTime\000"
 4234      5F526561 
 4234      64437572 
 4234      54696D65 
 4234      00
 4235              	.LASF80:
 4236 002d 63617074 		.ascii	"capture_3_timestampTimer\000"
 4236      7572655F 
 4236      335F7469 
 4236      6D657374 
 4236      616D7054 
 4237              	.LASF65:
 4238 0046 4D49535F 		.ascii	"MIS_Measure\000"
 4238      4D656173 
 4238      75726500 
 4239              	.LASF88:
 4240 0052 453A5C5F 		.ascii	"E:\\_CODE\\PSoC Projektai\\PSoC_MIS2\\stendo_MIS.cy"
 4240      434F4445 
 4240      5C50536F 
 4240      43205072 
 4240      6F6A656B 
 4241 0081 64736E00 		.ascii	"dsn\000"
 4242              	.LASF45:
 4243 0085 4D495333 		.ascii	"MIS3_ReadCurTime\000"
 4243      5F526561 
 4243      64437572 
 4243      54696D65 
 4243      00
 4244              	.LASF43:
 4245 0096 4D495333 		.ascii	"MIS3_ReadCount\000"
 4245      5F526561 
 4245      64436F75 
 4245      6E7400
 4246              	.LASF39:
 4247 00a5 4D495332 		.ascii	"MIS2_WaitPacket\000"
 4247      5F576169 
 4247      74506163 
 4247      6B657400 
 4248              	.LASF2:
 4249 00b5 73686F72 		.ascii	"short int\000"
 4249      7420696E 
 4249      7400
 4250              	.LASF17:
 4251 00bf 73697A65 		.ascii	"sizetype\000"
 4251      74797065 
 4251      00
 4252              	.LASF47:
 4253 00c8 4D495333 		.ascii	"MIS3_WaitPacket\000"
 4253      5F576169 
 4253      74506163 
 4253      6B657400 
 4254              	.LASF86:
 4255 00d8 474E5520 		.ascii	"GNU C11 5.4.1 20160609 (release) [ARM/embedded-5-br"
 4255      43313120 
 4255      352E342E 
 4255      31203230 
ARM GAS  C:\Users\Tomas\AppData\Local\Temp\cc1QFzoE.s 			page 86


 4255      31363036 
 4256 010b 616E6368 		.ascii	"anch revision 237715] -mcpu=cortex-m3 -mthumb -g -O"
 4256      20726576 
 4256      6973696F 
 4256      6E203233 
 4256      37373135 
 4257 013e 30202D66 		.ascii	"0 -ffunction-sections -ffat-lto-objects\000"
 4257      66756E63 
 4257      74696F6E 
 4257      2D736563 
 4257      74696F6E 
 4258              	.LASF64:
 4259 0166 4D49535F 		.ascii	"MIS_WaitPacket\000"
 4259      57616974 
 4259      5061636B 
 4259      657400
 4260              	.LASF84:
 4261 0175 63617074 		.ascii	"capture_4_timestampTimer\000"
 4261      7572655F 
 4261      345F7469 
 4261      6D657374 
 4261      616D7054 
 4262              	.LASF55:
 4263 018e 4D495334 		.ascii	"MIS4_WaitPacket\000"
 4263      5F576169 
 4263      74506163 
 4263      6B657400 
 4264              	.LASF35:
 4265 019e 4D495332 		.ascii	"MIS2_ReadCount\000"
 4265      5F526561 
 4265      64436F75 
 4265      6E7400
 4266              	.LASF42:
 4267 01ad 6973725F 		.ascii	"isr_Capture_3\000"
 4267      43617074 
 4267      7572655F 
 4267      3300
 4268              	.LASF71:
 4269 01bb 63617074 		.ascii	"capture_1_count\000"
 4269      7572655F 
 4269      315F636F 
 4269      756E7400 
 4270              	.LASF70:
 4271 01cb 74696D65 		.ascii	"timestampTimer\000"
 4271      7374616D 
 4271      7054696D 
 4271      657200
 4272              	.LASF81:
 4273 01da 63617074 		.ascii	"capture_3_Timestamp_hw\000"
 4273      7572655F 
 4273      335F5469 
 4273      6D657374 
 4273      616D705F 
 4274              	.LASF59:
 4275 01f1 6F6C645F 		.ascii	"old_MIS2_pulse\000"
 4275      4D495332 
 4275      5F70756C 
ARM GAS  C:\Users\Tomas\AppData\Local\Temp\cc1QFzoE.s 			page 87


 4275      736500
 4276              	.LASF11:
 4277 0200 75696E74 		.ascii	"uint8\000"
 4277      3800
 4278              	.LASF66:
 4279 0206 4D49535F 		.ascii	"MIS_PulseCounterStatus\000"
 4279      50756C73 
 4279      65436F75 
 4279      6E746572 
 4279      53746174 
 4280              	.LASF18:
 4281 021d 6973725F 		.ascii	"isr_PulseCounter_1_handler\000"
 4281      50756C73 
 4281      65436F75 
 4281      6E746572 
 4281      5F315F68 
 4282              	.LASF29:
 4283 0238 4D495331 		.ascii	"MIS1_ReadCount\000"
 4283      5F526561 
 4283      64436F75 
 4283      6E7400
 4284              	.LASF37:
 4285 0247 4D495332 		.ascii	"MIS2_ReadCurTime\000"
 4285      5F526561 
 4285      64437572 
 4285      54696D65 
 4285      00
 4286              	.LASF13:
 4287 0258 666C6F61 		.ascii	"float\000"
 4287      7400
 4288              	.LASF61:
 4289 025e 6F6C645F 		.ascii	"old_MIS4_pulse\000"
 4289      4D495334 
 4289      5F70756C 
 4289      736500
 4290              	.LASF6:
 4291 026d 6C6F6E67 		.ascii	"long long int\000"
 4291      206C6F6E 
 4291      6720696E 
 4291      7400
 4292              	.LASF53:
 4293 027b 4D495334 		.ascii	"MIS4_ReadCurTime\000"
 4293      5F526561 
 4293      64437572 
 4293      54696D65 
 4293      00
 4294              	.LASF41:
 4295 028c 6973725F 		.ascii	"isr_PulseCounter_3_handler\000"
 4295      50756C73 
 4295      65436F75 
 4295      6E746572 
 4295      5F335F68 
 4296              	.LASF77:
 4297 02a7 63617074 		.ascii	"capture_2_Timestamp_hw\000"
 4297      7572655F 
 4297      325F5469 
 4297      6D657374 
ARM GAS  C:\Users\Tomas\AppData\Local\Temp\cc1QFzoE.s 			page 88


 4297      616D705F 
 4298              	.LASF4:
 4299 02be 6C6F6E67 		.ascii	"long int\000"
 4299      20696E74 
 4299      00
 4300              	.LASF49:
 4301 02c7 6973725F 		.ascii	"isr_PulseCounter_4_handler\000"
 4301      50756C73 
 4301      65436F75 
 4301      6E746572 
 4301      5F345F68 
 4302              	.LASF28:
 4303 02e2 4D495331 		.ascii	"MIS1_SetBurstTimeout\000"
 4303      5F536574 
 4303      42757273 
 4303      7454696D 
 4303      656F7574 
 4304              	.LASF33:
 4305 02f7 6973725F 		.ascii	"isr_PulseCounter_2_handler\000"
 4305      50756C73 
 4305      65436F75 
 4305      6E746572 
 4305      5F325F68 
 4306              	.LASF38:
 4307 0312 4D495332 		.ascii	"MIS2_SetBurstTimeout\000"
 4307      5F536574 
 4307      42757273 
 4307      7454696D 
 4307      656F7574 
 4308              	.LASF1:
 4309 0327 756E7369 		.ascii	"unsigned char\000"
 4309      676E6564 
 4309      20636861 
 4309      7200
 4310              	.LASF16:
 4311 0335 6C6F6E67 		.ascii	"long double\000"
 4311      20646F75 
 4311      626C6500 
 4312              	.LASF76:
 4313 0341 63617074 		.ascii	"capture_2_timestampTimer\000"
 4313      7572655F 
 4313      325F7469 
 4313      6D657374 
 4313      616D7054 
 4314              	.LASF46:
 4315 035a 4D495333 		.ascii	"MIS3_SetBurstTimeout\000"
 4315      5F536574 
 4315      42757273 
 4315      7454696D 
 4315      656F7574 
 4316              	.LASF51:
 4317 036f 4D495334 		.ascii	"MIS4_ReadCount\000"
 4317      5F526561 
 4317      64436F75 
 4317      6E7400
 4318              	.LASF73:
 4319 037e 63617074 		.ascii	"capture_1_Timestamp_hw\000"
ARM GAS  C:\Users\Tomas\AppData\Local\Temp\cc1QFzoE.s 			page 89


 4319      7572655F 
 4319      315F5469 
 4319      6D657374 
 4319      616D705F 
 4320              	.LASF0:
 4321 0395 7369676E 		.ascii	"signed char\000"
 4321      65642063 
 4321      68617200 
 4322              	.LASF10:
 4323 03a1 696E7433 		.ascii	"int32_t\000"
 4323      325F7400 
 4324              	.LASF7:
 4325 03a9 6C6F6E67 		.ascii	"long long unsigned int\000"
 4325      206C6F6E 
 4325      6720756E 
 4325      7369676E 
 4325      65642069 
 4326              	.LASF63:
 4327 03c0 4D49535F 		.ascii	"MIS_SetPulseTimeout\000"
 4327      53657450 
 4327      756C7365 
 4327      54696D65 
 4327      6F757400 
 4328              	.LASF44:
 4329 03d4 4D495333 		.ascii	"MIS3_ReadTotTime\000"
 4329      5F526561 
 4329      64546F74 
 4329      54696D65 
 4329      00
 4330              	.LASF8:
 4331 03e5 756E7369 		.ascii	"unsigned int\000"
 4331      676E6564 
 4331      20696E74 
 4331      00
 4332              	.LASF85:
 4333 03f2 63617074 		.ascii	"capture_4_Timestamp_hw\000"
 4333      7572655F 
 4333      345F5469 
 4333      6D657374 
 4333      616D705F 
 4334              	.LASF26:
 4335 0409 6375725F 		.ascii	"cur_timestampTimer\000"
 4335      74696D65 
 4335      7374616D 
 4335      7054696D 
 4335      657200
 4336              	.LASF3:
 4337 041c 73686F72 		.ascii	"short unsigned int\000"
 4337      7420756E 
 4337      7369676E 
 4337      65642069 
 4337      6E7400
 4338              	.LASF30:
 4339 042f 4D495331 		.ascii	"MIS1_WaitPacket\000"
 4339      5F576169 
 4339      74506163 
 4339      6B657400 
ARM GAS  C:\Users\Tomas\AppData\Local\Temp\cc1QFzoE.s 			page 90


 4340              	.LASF20:
 4341 043f 68775F6F 		.ascii	"hw_old\000"
 4341      6C6400
 4342              	.LASF15:
 4343 0446 63686172 		.ascii	"char\000"
 4343      00
 4344              	.LASF24:
 4345 044b 4D495331 		.ascii	"MIS1_ReadTotTime\000"
 4345      5F526561 
 4345      64546F74 
 4345      54696D65 
 4345      00
 4346              	.LASF62:
 4347 045c 4D49535F 		.ascii	"MIS_Stop\000"
 4347      53746F70 
 4347      00
 4348              	.LASF21:
 4349 0465 68775F6E 		.ascii	"hw_new\000"
 4349      657700
 4350              	.LASF57:
 4351 046c 4D49535F 		.ascii	"MIS_Start\000"
 4351      53746172 
 4351      7400
 4352              	.LASF58:
 4353 0476 6F6C645F 		.ascii	"old_MIS1_pulse\000"
 4353      4D495331 
 4353      5F70756C 
 4353      736500
 4354              	.LASF68:
 4355 0485 50756C73 		.ascii	"PulseCounter_1_Timestamp_hw\000"
 4355      65436F75 
 4355      6E746572 
 4355      5F315F54 
 4355      696D6573 
 4356              	.LASF12:
 4357 04a1 75696E74 		.ascii	"uint32\000"
 4357      333200
 4358              	.LASF75:
 4359 04a8 63617074 		.ascii	"capture_2_count\000"
 4359      7572655F 
 4359      325F636F 
 4359      756E7400 
 4360              	.LASF5:
 4361 04b8 6C6F6E67 		.ascii	"long unsigned int\000"
 4361      20756E73 
 4361      69676E65 
 4361      6420696E 
 4361      7400
 4362              	.LASF14:
 4363 04ca 646F7562 		.ascii	"double\000"
 4363      6C6500
 4364              	.LASF36:
 4365 04d1 4D495332 		.ascii	"MIS2_ReadTotTime\000"
 4365      5F526561 
 4365      64546F74 
 4365      54696D65 
 4365      00
ARM GAS  C:\Users\Tomas\AppData\Local\Temp\cc1QFzoE.s 			page 91


 4366              	.LASF60:
 4367 04e2 6F6C645F 		.ascii	"old_MIS3_pulse\000"
 4367      4D495333 
 4367      5F70756C 
 4367      736500
 4368              	.LASF79:
 4369 04f1 63617074 		.ascii	"capture_3_count\000"
 4369      7572655F 
 4369      335F636F 
 4369      756E7400 
 4370              	.LASF52:
 4371 0501 4D495334 		.ascii	"MIS4_ReadTotTime\000"
 4371      5F526561 
 4371      64546F74 
 4371      54696D65 
 4371      00
 4372              	.LASF9:
 4373 0512 5F5F696E 		.ascii	"__int32_t\000"
 4373      7433325F 
 4373      7400
 4374              	.LASF31:
 4375 051c 4D495331 		.ascii	"MIS1_Measure\000"
 4375      5F4D6561 
 4375      73757265 
 4375      00
 4376              	.LASF23:
 4377 0529 4D495331 		.ascii	"MIS1_LastPulseTime\000"
 4377      5F4C6173 
 4377      7450756C 
 4377      73655469 
 4377      6D6500
 4378              	.LASF87:
 4379 053c 6D69732E 		.ascii	"mis.c\000"
 4379      6300
 4380              	.LASF40:
 4381 0542 4D495332 		.ascii	"MIS2_Measure\000"
 4381      5F4D6561 
 4381      73757265 
 4381      00
 4382              	.LASF27:
 4383 054f 6973725F 		.ascii	"isr_Capture_1\000"
 4383      43617074 
 4383      7572655F 
 4383      3100
 4384              	.LASF34:
 4385 055d 6973725F 		.ascii	"isr_Capture_2\000"
 4385      43617074 
 4385      7572655F 
 4385      3200
 4386              	.LASF72:
 4387 056b 63617074 		.ascii	"capture_1_timestampTimer\000"
 4387      7572655F 
 4387      315F7469 
 4387      6D657374 
 4387      616D7054 
 4388              	.LASF50:
 4389 0584 6973725F 		.ascii	"isr_Capture_4\000"
ARM GAS  C:\Users\Tomas\AppData\Local\Temp\cc1QFzoE.s 			page 92


 4389      43617074 
 4389      7572655F 
 4389      3400
 4390              	.LASF48:
 4391 0592 4D495333 		.ascii	"MIS3_Measure\000"
 4391      5F4D6561 
 4391      73757265 
 4391      00
 4392              	.LASF69:
 4393 059f 70756C73 		.ascii	"pulseCounter1\000"
 4393      65436F75 
 4393      6E746572 
 4393      3100
 4394              	.LASF74:
 4395 05ad 70756C73 		.ascii	"pulseCounter2\000"
 4395      65436F75 
 4395      6E746572 
 4395      3200
 4396              	.LASF78:
 4397 05bb 70756C73 		.ascii	"pulseCounter3\000"
 4397      65436F75 
 4397      6E746572 
 4397      3300
 4398              	.LASF82:
 4399 05c9 70756C73 		.ascii	"pulseCounter4\000"
 4399      65436F75 
 4399      6E746572 
 4399      3400
 4400              	.LASF67:
 4401 05d7 49544D5F 		.ascii	"ITM_RxBuffer\000"
 4401      52784275 
 4401      66666572 
 4401      00
 4402              	.LASF56:
 4403 05e4 4D495334 		.ascii	"MIS4_Measure\000"
 4403      5F4D6561 
 4403      73757265 
 4403      00
 4404              	.LASF83:
 4405 05f1 63617074 		.ascii	"capture_4_count\000"
 4405      7572655F 
 4405      345F636F 
 4405      756E7400 
 4406              	.LASF32:
 4407 0601 74696D65 		.ascii	"time_ms\000"
 4407      5F6D7300 
 4408              	.LASF19:
 4409 0609 6973725F 		.ascii	"isr_Timestamp_handler\000"
 4409      54696D65 
 4409      7374616D 
 4409      705F6861 
 4409      6E646C65 
 4410              		.ident	"GCC: (GNU Tools for ARM Embedded Processors) 5.4.1 20160609 (release) [ARM/embedded-5-bran
