ARM GAS  C:\Users\Tomas\AppData\Local\Temp\cc3PqP4E.s 			page 1


   1              		.syntax unified
   2              		.cpu cortex-m3
   3              		.fpu softvfp
   4              		.eabi_attribute 20, 1
   5              		.eabi_attribute 21, 1
   6              		.eabi_attribute 23, 3
   7              		.eabi_attribute 24, 1
   8              		.eabi_attribute 25, 1
   9              		.eabi_attribute 26, 1
  10              		.eabi_attribute 30, 6
  11              		.eabi_attribute 34, 1
  12              		.eabi_attribute 18, 4
  13              		.thumb
  14              		.syntax unified
  15              		.file	"SPIM.c"
  16              		.text
  17              	.Ltext0:
  18              		.cfi_sections	.debug_frame
  19              		.comm	SPIM_txBuffer,32,4
  20              		.comm	SPIM_txBufferFull,1,1
  21              		.comm	SPIM_txBufferRead,1,1
  22              		.comm	SPIM_txBufferWrite,1,1
  23              		.comm	SPIM_rxBuffer,32,4
  24              		.comm	SPIM_rxBufferFull,1,1
  25              		.comm	SPIM_rxBufferRead,1,1
  26              		.comm	SPIM_rxBufferWrite,1,1
  27              		.global	SPIM_initVar
  28              		.bss
  29              		.type	SPIM_initVar, %object
  30              		.size	SPIM_initVar, 1
  31              	SPIM_initVar:
  32 0000 00       		.space	1
  33              		.comm	SPIM_swStatusTx,1,1
  34              		.comm	SPIM_swStatusRx,1,1
  35              		.section	.text.SPIM_Init,"ax",%progbits
  36              		.align	2
  37              		.global	SPIM_Init
  38              		.thumb
  39              		.thumb_func
  40              		.type	SPIM_Init, %function
  41              	SPIM_Init:
  42              	.LFB0:
  43              		.file 1 "Generated_Source\\PSoC5\\SPIM.c"
   1:Generated_Source\PSoC5/SPIM.c **** /*******************************************************************************
   2:Generated_Source\PSoC5/SPIM.c **** * File Name: SPIM.c
   3:Generated_Source\PSoC5/SPIM.c **** * Version 2.50
   4:Generated_Source\PSoC5/SPIM.c **** *
   5:Generated_Source\PSoC5/SPIM.c **** * Description:
   6:Generated_Source\PSoC5/SPIM.c **** *  This file provides all API functionality of the SPI Master component.
   7:Generated_Source\PSoC5/SPIM.c **** *
   8:Generated_Source\PSoC5/SPIM.c **** * Note:
   9:Generated_Source\PSoC5/SPIM.c **** *  None.
  10:Generated_Source\PSoC5/SPIM.c **** *
  11:Generated_Source\PSoC5/SPIM.c **** ********************************************************************************
  12:Generated_Source\PSoC5/SPIM.c **** * Copyright 2008-2015, Cypress Semiconductor Corporation.  All rights reserved.
  13:Generated_Source\PSoC5/SPIM.c **** * You may use this file only in accordance with the license, terms, conditions,
  14:Generated_Source\PSoC5/SPIM.c **** * disclaimers, and limitations in the end user license agreement accompanying
ARM GAS  C:\Users\Tomas\AppData\Local\Temp\cc3PqP4E.s 			page 2


  15:Generated_Source\PSoC5/SPIM.c **** * the software package with which this file was provided.
  16:Generated_Source\PSoC5/SPIM.c **** *******************************************************************************/
  17:Generated_Source\PSoC5/SPIM.c **** 
  18:Generated_Source\PSoC5/SPIM.c **** #include "SPIM_PVT.h"
  19:Generated_Source\PSoC5/SPIM.c **** 
  20:Generated_Source\PSoC5/SPIM.c **** #if(SPIM_TX_SOFTWARE_BUF_ENABLED)
  21:Generated_Source\PSoC5/SPIM.c ****     volatile uint8 SPIM_txBuffer[SPIM_TX_BUFFER_SIZE];
  22:Generated_Source\PSoC5/SPIM.c ****     volatile uint8 SPIM_txBufferFull;
  23:Generated_Source\PSoC5/SPIM.c ****     volatile uint8 SPIM_txBufferRead;
  24:Generated_Source\PSoC5/SPIM.c ****     volatile uint8 SPIM_txBufferWrite;
  25:Generated_Source\PSoC5/SPIM.c **** #endif /* (SPIM_TX_SOFTWARE_BUF_ENABLED) */
  26:Generated_Source\PSoC5/SPIM.c **** 
  27:Generated_Source\PSoC5/SPIM.c **** #if(SPIM_RX_SOFTWARE_BUF_ENABLED)
  28:Generated_Source\PSoC5/SPIM.c ****     volatile uint8 SPIM_rxBuffer[SPIM_RX_BUFFER_SIZE];
  29:Generated_Source\PSoC5/SPIM.c ****     volatile uint8 SPIM_rxBufferFull;
  30:Generated_Source\PSoC5/SPIM.c ****     volatile uint8 SPIM_rxBufferRead;
  31:Generated_Source\PSoC5/SPIM.c ****     volatile uint8 SPIM_rxBufferWrite;
  32:Generated_Source\PSoC5/SPIM.c **** #endif /* (SPIM_RX_SOFTWARE_BUF_ENABLED) */
  33:Generated_Source\PSoC5/SPIM.c **** 
  34:Generated_Source\PSoC5/SPIM.c **** uint8 SPIM_initVar = 0u;
  35:Generated_Source\PSoC5/SPIM.c **** 
  36:Generated_Source\PSoC5/SPIM.c **** volatile uint8 SPIM_swStatusTx;
  37:Generated_Source\PSoC5/SPIM.c **** volatile uint8 SPIM_swStatusRx;
  38:Generated_Source\PSoC5/SPIM.c **** 
  39:Generated_Source\PSoC5/SPIM.c **** 
  40:Generated_Source\PSoC5/SPIM.c **** /*******************************************************************************
  41:Generated_Source\PSoC5/SPIM.c **** * Function Name: SPIM_Init
  42:Generated_Source\PSoC5/SPIM.c **** ********************************************************************************
  43:Generated_Source\PSoC5/SPIM.c **** *
  44:Generated_Source\PSoC5/SPIM.c **** * Summary:
  45:Generated_Source\PSoC5/SPIM.c **** *  Inits/Restores default SPIM configuration provided with customizer.
  46:Generated_Source\PSoC5/SPIM.c **** *
  47:Generated_Source\PSoC5/SPIM.c **** * Parameters:
  48:Generated_Source\PSoC5/SPIM.c **** *  None.
  49:Generated_Source\PSoC5/SPIM.c **** *
  50:Generated_Source\PSoC5/SPIM.c **** * Return:
  51:Generated_Source\PSoC5/SPIM.c **** *  None.
  52:Generated_Source\PSoC5/SPIM.c **** *
  53:Generated_Source\PSoC5/SPIM.c **** * Side Effects:
  54:Generated_Source\PSoC5/SPIM.c **** *  When this function is called it initializes all of the necessary parameters
  55:Generated_Source\PSoC5/SPIM.c **** *  for execution. i.e. setting the initial interrupt mask, configuring the
  56:Generated_Source\PSoC5/SPIM.c **** *  interrupt service routine, configuring the bit-counter parameters and
  57:Generated_Source\PSoC5/SPIM.c **** *  clearing the FIFO and Status Register.
  58:Generated_Source\PSoC5/SPIM.c **** *
  59:Generated_Source\PSoC5/SPIM.c **** * Reentrant:
  60:Generated_Source\PSoC5/SPIM.c **** *  No.
  61:Generated_Source\PSoC5/SPIM.c **** *
  62:Generated_Source\PSoC5/SPIM.c **** *******************************************************************************/
  63:Generated_Source\PSoC5/SPIM.c **** void SPIM_Init(void) 
  64:Generated_Source\PSoC5/SPIM.c **** {
  44              		.loc 1 64 0
  45              		.cfi_startproc
  46              		@ args = 0, pretend = 0, frame = 0
  47              		@ frame_needed = 1, uses_anonymous_args = 0
  48 0000 80B5     		push	{r7, lr}
  49              		.cfi_def_cfa_offset 8
  50              		.cfi_offset 7, -8
ARM GAS  C:\Users\Tomas\AppData\Local\Temp\cc3PqP4E.s 			page 3


  51              		.cfi_offset 14, -4
  52 0002 00AF     		add	r7, sp, #0
  53              		.cfi_def_cfa_register 7
  65:Generated_Source\PSoC5/SPIM.c ****     /* Initialize the Bit counter */
  66:Generated_Source\PSoC5/SPIM.c ****     SPIM_COUNTER_PERIOD_REG = SPIM_BITCTR_INIT;
  54              		.loc 1 66 0
  55 0004 1C4B     		ldr	r3, .L2
  56 0006 0F22     		movs	r2, #15
  57 0008 1A70     		strb	r2, [r3]
  67:Generated_Source\PSoC5/SPIM.c **** 
  68:Generated_Source\PSoC5/SPIM.c ****     /* Init TX ISR  */
  69:Generated_Source\PSoC5/SPIM.c ****     #if(0u != SPIM_INTERNAL_TX_INT_ENABLED)
  70:Generated_Source\PSoC5/SPIM.c ****         CyIntDisable         (SPIM_TX_ISR_NUMBER);
  58              		.loc 1 70 0
  59 000a 1C4B     		ldr	r3, .L2+4
  60 000c 0222     		movs	r2, #2
  61 000e 1A60     		str	r2, [r3]
  71:Generated_Source\PSoC5/SPIM.c ****         CyIntSetPriority     (SPIM_TX_ISR_NUMBER,  SPIM_TX_ISR_PRIORITY);
  62              		.loc 1 71 0
  63 0010 0721     		movs	r1, #7
  64 0012 0120     		movs	r0, #1
  65 0014 FFF7FEFF 		bl	CyIntSetPriority
  72:Generated_Source\PSoC5/SPIM.c ****         (void) CyIntSetVector(SPIM_TX_ISR_NUMBER, &SPIM_TX_ISR);
  66              		.loc 1 72 0
  67 0018 1949     		ldr	r1, .L2+8
  68 001a 0120     		movs	r0, #1
  69 001c FFF7FEFF 		bl	CyIntSetVector
  73:Generated_Source\PSoC5/SPIM.c ****     #endif /* (0u != SPIM_INTERNAL_TX_INT_ENABLED) */
  74:Generated_Source\PSoC5/SPIM.c **** 
  75:Generated_Source\PSoC5/SPIM.c ****     /* Init RX ISR  */
  76:Generated_Source\PSoC5/SPIM.c ****     #if(0u != SPIM_INTERNAL_RX_INT_ENABLED)
  77:Generated_Source\PSoC5/SPIM.c ****         CyIntDisable         (SPIM_RX_ISR_NUMBER);
  70              		.loc 1 77 0
  71 0020 164B     		ldr	r3, .L2+4
  72 0022 0122     		movs	r2, #1
  73 0024 1A60     		str	r2, [r3]
  78:Generated_Source\PSoC5/SPIM.c ****         CyIntSetPriority     (SPIM_RX_ISR_NUMBER,  SPIM_RX_ISR_PRIORITY);
  74              		.loc 1 78 0
  75 0026 0721     		movs	r1, #7
  76 0028 0020     		movs	r0, #0
  77 002a FFF7FEFF 		bl	CyIntSetPriority
  79:Generated_Source\PSoC5/SPIM.c ****         (void) CyIntSetVector(SPIM_RX_ISR_NUMBER, &SPIM_RX_ISR);
  78              		.loc 1 79 0
  79 002e 1549     		ldr	r1, .L2+12
  80 0030 0020     		movs	r0, #0
  81 0032 FFF7FEFF 		bl	CyIntSetVector
  80:Generated_Source\PSoC5/SPIM.c ****     #endif /* (0u != SPIM_INTERNAL_RX_INT_ENABLED) */
  81:Generated_Source\PSoC5/SPIM.c **** 
  82:Generated_Source\PSoC5/SPIM.c ****     /* Clear any stray data from the RX and TX FIFO */
  83:Generated_Source\PSoC5/SPIM.c ****     SPIM_ClearFIFO();
  82              		.loc 1 83 0
  83 0036 FFF7FEFF 		bl	SPIM_ClearFIFO
  84:Generated_Source\PSoC5/SPIM.c **** 
  85:Generated_Source\PSoC5/SPIM.c ****     #if(SPIM_RX_SOFTWARE_BUF_ENABLED)
  86:Generated_Source\PSoC5/SPIM.c ****         SPIM_rxBufferFull  = 0u;
  84              		.loc 1 86 0
  85 003a 134B     		ldr	r3, .L2+16
ARM GAS  C:\Users\Tomas\AppData\Local\Temp\cc3PqP4E.s 			page 4


  86 003c 0022     		movs	r2, #0
  87 003e 1A70     		strb	r2, [r3]
  87:Generated_Source\PSoC5/SPIM.c ****         SPIM_rxBufferRead  = 0u;
  88              		.loc 1 87 0
  89 0040 124B     		ldr	r3, .L2+20
  90 0042 0022     		movs	r2, #0
  91 0044 1A70     		strb	r2, [r3]
  88:Generated_Source\PSoC5/SPIM.c ****         SPIM_rxBufferWrite = 0u;
  92              		.loc 1 88 0
  93 0046 124B     		ldr	r3, .L2+24
  94 0048 0022     		movs	r2, #0
  95 004a 1A70     		strb	r2, [r3]
  89:Generated_Source\PSoC5/SPIM.c ****     #endif /* (SPIM_RX_SOFTWARE_BUF_ENABLED) */
  90:Generated_Source\PSoC5/SPIM.c **** 
  91:Generated_Source\PSoC5/SPIM.c ****     #if(SPIM_TX_SOFTWARE_BUF_ENABLED)
  92:Generated_Source\PSoC5/SPIM.c ****         SPIM_txBufferFull  = 0u;
  96              		.loc 1 92 0
  97 004c 114B     		ldr	r3, .L2+28
  98 004e 0022     		movs	r2, #0
  99 0050 1A70     		strb	r2, [r3]
  93:Generated_Source\PSoC5/SPIM.c ****         SPIM_txBufferRead  = 0u;
 100              		.loc 1 93 0
 101 0052 114B     		ldr	r3, .L2+32
 102 0054 0022     		movs	r2, #0
 103 0056 1A70     		strb	r2, [r3]
  94:Generated_Source\PSoC5/SPIM.c ****         SPIM_txBufferWrite = 0u;
 104              		.loc 1 94 0
 105 0058 104B     		ldr	r3, .L2+36
 106 005a 0022     		movs	r2, #0
 107 005c 1A70     		strb	r2, [r3]
  95:Generated_Source\PSoC5/SPIM.c ****     #endif /* (SPIM_TX_SOFTWARE_BUF_ENABLED) */
  96:Generated_Source\PSoC5/SPIM.c **** 
  97:Generated_Source\PSoC5/SPIM.c ****     (void) SPIM_ReadTxStatus(); /* Clear Tx status and swStatusTx */
 108              		.loc 1 97 0
 109 005e FFF7FEFF 		bl	SPIM_ReadTxStatus
  98:Generated_Source\PSoC5/SPIM.c ****     (void) SPIM_ReadRxStatus(); /* Clear Rx status and swStatusRx */
 110              		.loc 1 98 0
 111 0062 FFF7FEFF 		bl	SPIM_ReadRxStatus
  99:Generated_Source\PSoC5/SPIM.c **** 
 100:Generated_Source\PSoC5/SPIM.c ****     /* Configure TX and RX interrupt mask */
 101:Generated_Source\PSoC5/SPIM.c ****     SPIM_TX_STATUS_MASK_REG = SPIM_TX_INIT_INTERRUPTS_MASK;
 112              		.loc 1 101 0
 113 0066 0E4B     		ldr	r3, .L2+40
 114 0068 0022     		movs	r2, #0
 115 006a 1A70     		strb	r2, [r3]
 102:Generated_Source\PSoC5/SPIM.c ****     SPIM_RX_STATUS_MASK_REG = SPIM_RX_INIT_INTERRUPTS_MASK;
 116              		.loc 1 102 0
 117 006c 0D4B     		ldr	r3, .L2+44
 118 006e 2022     		movs	r2, #32
 119 0070 1A70     		strb	r2, [r3]
 103:Generated_Source\PSoC5/SPIM.c **** }
 120              		.loc 1 103 0
 121 0072 00BF     		nop
 122 0074 80BD     		pop	{r7, pc}
 123              	.L3:
 124 0076 00BF     		.align	2
 125              	.L2:
ARM GAS  C:\Users\Tomas\AppData\Local\Temp\cc3PqP4E.s 			page 5


 126 0078 85650040 		.word	1073767813
 127 007c 80E100E0 		.word	-536813184
 128 0080 00000000 		.word	SPIM_TX_ISR
 129 0084 00000000 		.word	SPIM_RX_ISR
 130 0088 00000000 		.word	SPIM_rxBufferFull
 131 008c 00000000 		.word	SPIM_rxBufferRead
 132 0090 00000000 		.word	SPIM_rxBufferWrite
 133 0094 00000000 		.word	SPIM_txBufferFull
 134 0098 00000000 		.word	SPIM_txBufferRead
 135 009c 00000000 		.word	SPIM_txBufferWrite
 136 00a0 86640040 		.word	1073767558
 137 00a4 86650040 		.word	1073767814
 138              		.cfi_endproc
 139              	.LFE0:
 140              		.size	SPIM_Init, .-SPIM_Init
 141              		.section	.text.SPIM_Enable,"ax",%progbits
 142              		.align	2
 143              		.global	SPIM_Enable
 144              		.thumb
 145              		.thumb_func
 146              		.type	SPIM_Enable, %function
 147              	SPIM_Enable:
 148              	.LFB1:
 104:Generated_Source\PSoC5/SPIM.c **** 
 105:Generated_Source\PSoC5/SPIM.c **** 
 106:Generated_Source\PSoC5/SPIM.c **** /*******************************************************************************
 107:Generated_Source\PSoC5/SPIM.c **** * Function Name: SPIM_Enable
 108:Generated_Source\PSoC5/SPIM.c **** ********************************************************************************
 109:Generated_Source\PSoC5/SPIM.c **** *
 110:Generated_Source\PSoC5/SPIM.c **** * Summary:
 111:Generated_Source\PSoC5/SPIM.c **** *  Enable SPIM component.
 112:Generated_Source\PSoC5/SPIM.c **** *
 113:Generated_Source\PSoC5/SPIM.c **** * Parameters:
 114:Generated_Source\PSoC5/SPIM.c **** *  None.
 115:Generated_Source\PSoC5/SPIM.c **** *
 116:Generated_Source\PSoC5/SPIM.c **** * Return:
 117:Generated_Source\PSoC5/SPIM.c **** *  None.
 118:Generated_Source\PSoC5/SPIM.c **** *
 119:Generated_Source\PSoC5/SPIM.c **** *******************************************************************************/
 120:Generated_Source\PSoC5/SPIM.c **** void SPIM_Enable(void) 
 121:Generated_Source\PSoC5/SPIM.c **** {
 149              		.loc 1 121 0
 150              		.cfi_startproc
 151              		@ args = 0, pretend = 0, frame = 8
 152              		@ frame_needed = 1, uses_anonymous_args = 0
 153 0000 80B5     		push	{r7, lr}
 154              		.cfi_def_cfa_offset 8
 155              		.cfi_offset 7, -8
 156              		.cfi_offset 14, -4
 157 0002 82B0     		sub	sp, sp, #8
 158              		.cfi_def_cfa_offset 16
 159 0004 00AF     		add	r7, sp, #0
 160              		.cfi_def_cfa_register 7
 122:Generated_Source\PSoC5/SPIM.c ****     uint8 enableInterrupts;
 123:Generated_Source\PSoC5/SPIM.c **** 
 124:Generated_Source\PSoC5/SPIM.c ****     enableInterrupts = CyEnterCriticalSection();
 161              		.loc 1 124 0
ARM GAS  C:\Users\Tomas\AppData\Local\Temp\cc3PqP4E.s 			page 6


 162 0006 FFF7FEFF 		bl	CyEnterCriticalSection
 163 000a 0346     		mov	r3, r0
 164 000c FB71     		strb	r3, [r7, #7]
 125:Generated_Source\PSoC5/SPIM.c ****     SPIM_COUNTER_CONTROL_REG |= SPIM_CNTR_ENABLE;
 165              		.loc 1 125 0
 166 000e 124A     		ldr	r2, .L5
 167 0010 114B     		ldr	r3, .L5
 168 0012 1B78     		ldrb	r3, [r3]
 169 0014 DBB2     		uxtb	r3, r3
 170 0016 43F02003 		orr	r3, r3, #32
 171 001a DBB2     		uxtb	r3, r3
 172 001c 1370     		strb	r3, [r2]
 126:Generated_Source\PSoC5/SPIM.c ****     SPIM_TX_STATUS_ACTL_REG  |= SPIM_INT_ENABLE;
 173              		.loc 1 126 0
 174 001e 0F4A     		ldr	r2, .L5+4
 175 0020 0E4B     		ldr	r3, .L5+4
 176 0022 1B78     		ldrb	r3, [r3]
 177 0024 DBB2     		uxtb	r3, r3
 178 0026 43F01003 		orr	r3, r3, #16
 179 002a DBB2     		uxtb	r3, r3
 180 002c 1370     		strb	r3, [r2]
 127:Generated_Source\PSoC5/SPIM.c ****     SPIM_RX_STATUS_ACTL_REG  |= SPIM_INT_ENABLE;
 181              		.loc 1 127 0
 182 002e 0C4A     		ldr	r2, .L5+8
 183 0030 0B4B     		ldr	r3, .L5+8
 184 0032 1B78     		ldrb	r3, [r3]
 185 0034 DBB2     		uxtb	r3, r3
 186 0036 43F01003 		orr	r3, r3, #16
 187 003a DBB2     		uxtb	r3, r3
 188 003c 1370     		strb	r3, [r2]
 128:Generated_Source\PSoC5/SPIM.c ****     CyExitCriticalSection(enableInterrupts);
 189              		.loc 1 128 0
 190 003e FB79     		ldrb	r3, [r7, #7]	@ zero_extendqisi2
 191 0040 1846     		mov	r0, r3
 192 0042 FFF7FEFF 		bl	CyExitCriticalSection
 129:Generated_Source\PSoC5/SPIM.c **** 
 130:Generated_Source\PSoC5/SPIM.c ****     #if(0u != SPIM_INTERNAL_CLOCK)
 131:Generated_Source\PSoC5/SPIM.c ****         SPIM_IntClock_Enable();
 132:Generated_Source\PSoC5/SPIM.c ****     #endif /* (0u != SPIM_INTERNAL_CLOCK) */
 133:Generated_Source\PSoC5/SPIM.c **** 
 134:Generated_Source\PSoC5/SPIM.c ****     SPIM_EnableTxInt();
 193              		.loc 1 134 0
 194 0046 FFF7FEFF 		bl	SPIM_EnableTxInt
 135:Generated_Source\PSoC5/SPIM.c ****     SPIM_EnableRxInt();
 195              		.loc 1 135 0
 196 004a FFF7FEFF 		bl	SPIM_EnableRxInt
 136:Generated_Source\PSoC5/SPIM.c **** }
 197              		.loc 1 136 0
 198 004e 00BF     		nop
 199 0050 0837     		adds	r7, r7, #8
 200              		.cfi_def_cfa_offset 8
 201 0052 BD46     		mov	sp, r7
 202              		.cfi_def_cfa_register 13
 203              		@ sp needed
 204 0054 80BD     		pop	{r7, pc}
 205              	.L6:
 206 0056 00BF     		.align	2
ARM GAS  C:\Users\Tomas\AppData\Local\Temp\cc3PqP4E.s 			page 7


 207              	.L5:
 208 0058 95650040 		.word	1073767829
 209 005c 96640040 		.word	1073767574
 210 0060 96650040 		.word	1073767830
 211              		.cfi_endproc
 212              	.LFE1:
 213              		.size	SPIM_Enable, .-SPIM_Enable
 214              		.section	.text.SPIM_Start,"ax",%progbits
 215              		.align	2
 216              		.global	SPIM_Start
 217              		.thumb
 218              		.thumb_func
 219              		.type	SPIM_Start, %function
 220              	SPIM_Start:
 221              	.LFB2:
 137:Generated_Source\PSoC5/SPIM.c **** 
 138:Generated_Source\PSoC5/SPIM.c **** 
 139:Generated_Source\PSoC5/SPIM.c **** /*******************************************************************************
 140:Generated_Source\PSoC5/SPIM.c **** * Function Name: SPIM_Start
 141:Generated_Source\PSoC5/SPIM.c **** ********************************************************************************
 142:Generated_Source\PSoC5/SPIM.c **** *
 143:Generated_Source\PSoC5/SPIM.c **** * Summary:
 144:Generated_Source\PSoC5/SPIM.c **** *  Initialize and Enable the SPI Master component.
 145:Generated_Source\PSoC5/SPIM.c **** *
 146:Generated_Source\PSoC5/SPIM.c **** * Parameters:
 147:Generated_Source\PSoC5/SPIM.c **** *  None.
 148:Generated_Source\PSoC5/SPIM.c **** *
 149:Generated_Source\PSoC5/SPIM.c **** * Return:
 150:Generated_Source\PSoC5/SPIM.c **** *  None.
 151:Generated_Source\PSoC5/SPIM.c **** *
 152:Generated_Source\PSoC5/SPIM.c **** * Global variables:
 153:Generated_Source\PSoC5/SPIM.c **** *  SPIM_initVar - used to check initial configuration, modified on
 154:Generated_Source\PSoC5/SPIM.c **** *  first function call.
 155:Generated_Source\PSoC5/SPIM.c **** *
 156:Generated_Source\PSoC5/SPIM.c **** * Theory:
 157:Generated_Source\PSoC5/SPIM.c **** *  Enable the clock input to enable operation.
 158:Generated_Source\PSoC5/SPIM.c **** *
 159:Generated_Source\PSoC5/SPIM.c **** * Reentrant:
 160:Generated_Source\PSoC5/SPIM.c **** *  No.
 161:Generated_Source\PSoC5/SPIM.c **** *
 162:Generated_Source\PSoC5/SPIM.c **** *******************************************************************************/
 163:Generated_Source\PSoC5/SPIM.c **** void SPIM_Start(void) 
 164:Generated_Source\PSoC5/SPIM.c **** {
 222              		.loc 1 164 0
 223              		.cfi_startproc
 224              		@ args = 0, pretend = 0, frame = 0
 225              		@ frame_needed = 1, uses_anonymous_args = 0
 226 0000 80B5     		push	{r7, lr}
 227              		.cfi_def_cfa_offset 8
 228              		.cfi_offset 7, -8
 229              		.cfi_offset 14, -4
 230 0002 00AF     		add	r7, sp, #0
 231              		.cfi_def_cfa_register 7
 165:Generated_Source\PSoC5/SPIM.c ****     if(0u == SPIM_initVar)
 232              		.loc 1 165 0
 233 0004 064B     		ldr	r3, .L9
 234 0006 1B78     		ldrb	r3, [r3]	@ zero_extendqisi2
ARM GAS  C:\Users\Tomas\AppData\Local\Temp\cc3PqP4E.s 			page 8


 235 0008 002B     		cmp	r3, #0
 236 000a 04D1     		bne	.L8
 166:Generated_Source\PSoC5/SPIM.c ****     {
 167:Generated_Source\PSoC5/SPIM.c ****         SPIM_Init();
 237              		.loc 1 167 0
 238 000c FFF7FEFF 		bl	SPIM_Init
 168:Generated_Source\PSoC5/SPIM.c ****         SPIM_initVar = 1u;
 239              		.loc 1 168 0
 240 0010 034B     		ldr	r3, .L9
 241 0012 0122     		movs	r2, #1
 242 0014 1A70     		strb	r2, [r3]
 243              	.L8:
 169:Generated_Source\PSoC5/SPIM.c ****     }
 170:Generated_Source\PSoC5/SPIM.c **** 
 171:Generated_Source\PSoC5/SPIM.c ****     SPIM_Enable();
 244              		.loc 1 171 0
 245 0016 FFF7FEFF 		bl	SPIM_Enable
 172:Generated_Source\PSoC5/SPIM.c **** }
 246              		.loc 1 172 0
 247 001a 00BF     		nop
 248 001c 80BD     		pop	{r7, pc}
 249              	.L10:
 250 001e 00BF     		.align	2
 251              	.L9:
 252 0020 00000000 		.word	SPIM_initVar
 253              		.cfi_endproc
 254              	.LFE2:
 255              		.size	SPIM_Start, .-SPIM_Start
 256              		.section	.text.SPIM_Stop,"ax",%progbits
 257              		.align	2
 258              		.global	SPIM_Stop
 259              		.thumb
 260              		.thumb_func
 261              		.type	SPIM_Stop, %function
 262              	SPIM_Stop:
 263              	.LFB3:
 173:Generated_Source\PSoC5/SPIM.c **** 
 174:Generated_Source\PSoC5/SPIM.c **** 
 175:Generated_Source\PSoC5/SPIM.c **** /*******************************************************************************
 176:Generated_Source\PSoC5/SPIM.c **** * Function Name: SPIM_Stop
 177:Generated_Source\PSoC5/SPIM.c **** ********************************************************************************
 178:Generated_Source\PSoC5/SPIM.c **** *
 179:Generated_Source\PSoC5/SPIM.c **** * Summary:
 180:Generated_Source\PSoC5/SPIM.c **** *  Disable the SPI Master component.
 181:Generated_Source\PSoC5/SPIM.c **** *
 182:Generated_Source\PSoC5/SPIM.c **** * Parameters:
 183:Generated_Source\PSoC5/SPIM.c **** *  None.
 184:Generated_Source\PSoC5/SPIM.c **** *
 185:Generated_Source\PSoC5/SPIM.c **** * Return:
 186:Generated_Source\PSoC5/SPIM.c **** *  None.
 187:Generated_Source\PSoC5/SPIM.c **** *
 188:Generated_Source\PSoC5/SPIM.c **** * Theory:
 189:Generated_Source\PSoC5/SPIM.c **** *  Disable the clock input to enable operation.
 190:Generated_Source\PSoC5/SPIM.c **** *
 191:Generated_Source\PSoC5/SPIM.c **** *******************************************************************************/
 192:Generated_Source\PSoC5/SPIM.c **** void SPIM_Stop(void) 
 193:Generated_Source\PSoC5/SPIM.c **** {
ARM GAS  C:\Users\Tomas\AppData\Local\Temp\cc3PqP4E.s 			page 9


 264              		.loc 1 193 0
 265              		.cfi_startproc
 266              		@ args = 0, pretend = 0, frame = 8
 267              		@ frame_needed = 1, uses_anonymous_args = 0
 268 0000 80B5     		push	{r7, lr}
 269              		.cfi_def_cfa_offset 8
 270              		.cfi_offset 7, -8
 271              		.cfi_offset 14, -4
 272 0002 82B0     		sub	sp, sp, #8
 273              		.cfi_def_cfa_offset 16
 274 0004 00AF     		add	r7, sp, #0
 275              		.cfi_def_cfa_register 7
 194:Generated_Source\PSoC5/SPIM.c ****     uint8 enableInterrupts;
 195:Generated_Source\PSoC5/SPIM.c **** 
 196:Generated_Source\PSoC5/SPIM.c ****     enableInterrupts = CyEnterCriticalSection();
 276              		.loc 1 196 0
 277 0006 FFF7FEFF 		bl	CyEnterCriticalSection
 278 000a 0346     		mov	r3, r0
 279 000c FB71     		strb	r3, [r7, #7]
 197:Generated_Source\PSoC5/SPIM.c ****     SPIM_TX_STATUS_ACTL_REG &= ((uint8) ~SPIM_INT_ENABLE);
 280              		.loc 1 197 0
 281 000e 0E4A     		ldr	r2, .L12
 282 0010 0D4B     		ldr	r3, .L12
 283 0012 1B78     		ldrb	r3, [r3]
 284 0014 DBB2     		uxtb	r3, r3
 285 0016 23F01003 		bic	r3, r3, #16
 286 001a DBB2     		uxtb	r3, r3
 287 001c 1370     		strb	r3, [r2]
 198:Generated_Source\PSoC5/SPIM.c ****     SPIM_RX_STATUS_ACTL_REG &= ((uint8) ~SPIM_INT_ENABLE);
 288              		.loc 1 198 0
 289 001e 0B4A     		ldr	r2, .L12+4
 290 0020 0A4B     		ldr	r3, .L12+4
 291 0022 1B78     		ldrb	r3, [r3]
 292 0024 DBB2     		uxtb	r3, r3
 293 0026 23F01003 		bic	r3, r3, #16
 294 002a DBB2     		uxtb	r3, r3
 295 002c 1370     		strb	r3, [r2]
 199:Generated_Source\PSoC5/SPIM.c ****     CyExitCriticalSection(enableInterrupts);
 296              		.loc 1 199 0
 297 002e FB79     		ldrb	r3, [r7, #7]	@ zero_extendqisi2
 298 0030 1846     		mov	r0, r3
 299 0032 FFF7FEFF 		bl	CyExitCriticalSection
 200:Generated_Source\PSoC5/SPIM.c **** 
 201:Generated_Source\PSoC5/SPIM.c ****     #if(0u != SPIM_INTERNAL_CLOCK)
 202:Generated_Source\PSoC5/SPIM.c ****         SPIM_IntClock_Disable();
 203:Generated_Source\PSoC5/SPIM.c ****     #endif /* (0u != SPIM_INTERNAL_CLOCK) */
 204:Generated_Source\PSoC5/SPIM.c **** 
 205:Generated_Source\PSoC5/SPIM.c ****     SPIM_DisableTxInt();
 300              		.loc 1 205 0
 301 0036 FFF7FEFF 		bl	SPIM_DisableTxInt
 206:Generated_Source\PSoC5/SPIM.c ****     SPIM_DisableRxInt();
 302              		.loc 1 206 0
 303 003a FFF7FEFF 		bl	SPIM_DisableRxInt
 207:Generated_Source\PSoC5/SPIM.c **** }
 304              		.loc 1 207 0
 305 003e 00BF     		nop
 306 0040 0837     		adds	r7, r7, #8
ARM GAS  C:\Users\Tomas\AppData\Local\Temp\cc3PqP4E.s 			page 10


 307              		.cfi_def_cfa_offset 8
 308 0042 BD46     		mov	sp, r7
 309              		.cfi_def_cfa_register 13
 310              		@ sp needed
 311 0044 80BD     		pop	{r7, pc}
 312              	.L13:
 313 0046 00BF     		.align	2
 314              	.L12:
 315 0048 96640040 		.word	1073767574
 316 004c 96650040 		.word	1073767830
 317              		.cfi_endproc
 318              	.LFE3:
 319              		.size	SPIM_Stop, .-SPIM_Stop
 320              		.section	.text.SPIM_EnableTxInt,"ax",%progbits
 321              		.align	2
 322              		.global	SPIM_EnableTxInt
 323              		.thumb
 324              		.thumb_func
 325              		.type	SPIM_EnableTxInt, %function
 326              	SPIM_EnableTxInt:
 327              	.LFB4:
 208:Generated_Source\PSoC5/SPIM.c **** 
 209:Generated_Source\PSoC5/SPIM.c **** 
 210:Generated_Source\PSoC5/SPIM.c **** /*******************************************************************************
 211:Generated_Source\PSoC5/SPIM.c **** * Function Name: SPIM_EnableTxInt
 212:Generated_Source\PSoC5/SPIM.c **** ********************************************************************************
 213:Generated_Source\PSoC5/SPIM.c **** *
 214:Generated_Source\PSoC5/SPIM.c **** * Summary:
 215:Generated_Source\PSoC5/SPIM.c **** *  Enable internal Tx interrupt generation.
 216:Generated_Source\PSoC5/SPIM.c **** *
 217:Generated_Source\PSoC5/SPIM.c **** * Parameters:
 218:Generated_Source\PSoC5/SPIM.c **** *  None.
 219:Generated_Source\PSoC5/SPIM.c **** *
 220:Generated_Source\PSoC5/SPIM.c **** * Return:
 221:Generated_Source\PSoC5/SPIM.c **** *  None.
 222:Generated_Source\PSoC5/SPIM.c **** *
 223:Generated_Source\PSoC5/SPIM.c **** * Theory:
 224:Generated_Source\PSoC5/SPIM.c **** *  Enable the internal Tx interrupt output -or- the interrupt component itself.
 225:Generated_Source\PSoC5/SPIM.c **** *
 226:Generated_Source\PSoC5/SPIM.c **** *******************************************************************************/
 227:Generated_Source\PSoC5/SPIM.c **** void SPIM_EnableTxInt(void) 
 228:Generated_Source\PSoC5/SPIM.c **** {
 328              		.loc 1 228 0
 329              		.cfi_startproc
 330              		@ args = 0, pretend = 0, frame = 0
 331              		@ frame_needed = 1, uses_anonymous_args = 0
 332              		@ link register save eliminated.
 333 0000 80B4     		push	{r7}
 334              		.cfi_def_cfa_offset 4
 335              		.cfi_offset 7, -4
 336 0002 00AF     		add	r7, sp, #0
 337              		.cfi_def_cfa_register 7
 229:Generated_Source\PSoC5/SPIM.c ****     #if(0u != SPIM_INTERNAL_TX_INT_ENABLED)
 230:Generated_Source\PSoC5/SPIM.c ****         CyIntEnable(SPIM_TX_ISR_NUMBER);
 338              		.loc 1 230 0
 339 0004 034B     		ldr	r3, .L15
 340 0006 0222     		movs	r2, #2
ARM GAS  C:\Users\Tomas\AppData\Local\Temp\cc3PqP4E.s 			page 11


 341 0008 1A60     		str	r2, [r3]
 231:Generated_Source\PSoC5/SPIM.c ****     #endif /* (0u != SPIM_INTERNAL_TX_INT_ENABLED) */
 232:Generated_Source\PSoC5/SPIM.c **** }
 342              		.loc 1 232 0
 343 000a 00BF     		nop
 344 000c BD46     		mov	sp, r7
 345              		.cfi_def_cfa_register 13
 346              		@ sp needed
 347 000e 80BC     		pop	{r7}
 348              		.cfi_restore 7
 349              		.cfi_def_cfa_offset 0
 350 0010 7047     		bx	lr
 351              	.L16:
 352 0012 00BF     		.align	2
 353              	.L15:
 354 0014 00E100E0 		.word	-536813312
 355              		.cfi_endproc
 356              	.LFE4:
 357              		.size	SPIM_EnableTxInt, .-SPIM_EnableTxInt
 358              		.section	.text.SPIM_EnableRxInt,"ax",%progbits
 359              		.align	2
 360              		.global	SPIM_EnableRxInt
 361              		.thumb
 362              		.thumb_func
 363              		.type	SPIM_EnableRxInt, %function
 364              	SPIM_EnableRxInt:
 365              	.LFB5:
 233:Generated_Source\PSoC5/SPIM.c **** 
 234:Generated_Source\PSoC5/SPIM.c **** 
 235:Generated_Source\PSoC5/SPIM.c **** /*******************************************************************************
 236:Generated_Source\PSoC5/SPIM.c **** * Function Name: SPIM_EnableRxInt
 237:Generated_Source\PSoC5/SPIM.c **** ********************************************************************************
 238:Generated_Source\PSoC5/SPIM.c **** *
 239:Generated_Source\PSoC5/SPIM.c **** * Summary:
 240:Generated_Source\PSoC5/SPIM.c **** *  Enable internal Rx interrupt generation.
 241:Generated_Source\PSoC5/SPIM.c **** *
 242:Generated_Source\PSoC5/SPIM.c **** * Parameters:
 243:Generated_Source\PSoC5/SPIM.c **** *  None.
 244:Generated_Source\PSoC5/SPIM.c **** *
 245:Generated_Source\PSoC5/SPIM.c **** * Return:
 246:Generated_Source\PSoC5/SPIM.c **** *  None.
 247:Generated_Source\PSoC5/SPIM.c **** *
 248:Generated_Source\PSoC5/SPIM.c **** * Theory:
 249:Generated_Source\PSoC5/SPIM.c **** *  Enable the internal Rx interrupt output -or- the interrupt component itself.
 250:Generated_Source\PSoC5/SPIM.c **** *
 251:Generated_Source\PSoC5/SPIM.c **** *******************************************************************************/
 252:Generated_Source\PSoC5/SPIM.c **** void SPIM_EnableRxInt(void) 
 253:Generated_Source\PSoC5/SPIM.c **** {
 366              		.loc 1 253 0
 367              		.cfi_startproc
 368              		@ args = 0, pretend = 0, frame = 0
 369              		@ frame_needed = 1, uses_anonymous_args = 0
 370              		@ link register save eliminated.
 371 0000 80B4     		push	{r7}
 372              		.cfi_def_cfa_offset 4
 373              		.cfi_offset 7, -4
 374 0002 00AF     		add	r7, sp, #0
ARM GAS  C:\Users\Tomas\AppData\Local\Temp\cc3PqP4E.s 			page 12


 375              		.cfi_def_cfa_register 7
 254:Generated_Source\PSoC5/SPIM.c ****     #if(0u != SPIM_INTERNAL_RX_INT_ENABLED)
 255:Generated_Source\PSoC5/SPIM.c ****         CyIntEnable(SPIM_RX_ISR_NUMBER);
 376              		.loc 1 255 0
 377 0004 034B     		ldr	r3, .L18
 378 0006 0122     		movs	r2, #1
 379 0008 1A60     		str	r2, [r3]
 256:Generated_Source\PSoC5/SPIM.c ****     #endif /* (0u != SPIM_INTERNAL_RX_INT_ENABLED) */
 257:Generated_Source\PSoC5/SPIM.c **** }
 380              		.loc 1 257 0
 381 000a 00BF     		nop
 382 000c BD46     		mov	sp, r7
 383              		.cfi_def_cfa_register 13
 384              		@ sp needed
 385 000e 80BC     		pop	{r7}
 386              		.cfi_restore 7
 387              		.cfi_def_cfa_offset 0
 388 0010 7047     		bx	lr
 389              	.L19:
 390 0012 00BF     		.align	2
 391              	.L18:
 392 0014 00E100E0 		.word	-536813312
 393              		.cfi_endproc
 394              	.LFE5:
 395              		.size	SPIM_EnableRxInt, .-SPIM_EnableRxInt
 396              		.section	.text.SPIM_DisableTxInt,"ax",%progbits
 397              		.align	2
 398              		.global	SPIM_DisableTxInt
 399              		.thumb
 400              		.thumb_func
 401              		.type	SPIM_DisableTxInt, %function
 402              	SPIM_DisableTxInt:
 403              	.LFB6:
 258:Generated_Source\PSoC5/SPIM.c **** 
 259:Generated_Source\PSoC5/SPIM.c **** 
 260:Generated_Source\PSoC5/SPIM.c **** /*******************************************************************************
 261:Generated_Source\PSoC5/SPIM.c **** * Function Name: SPIM_DisableTxInt
 262:Generated_Source\PSoC5/SPIM.c **** ********************************************************************************
 263:Generated_Source\PSoC5/SPIM.c **** *
 264:Generated_Source\PSoC5/SPIM.c **** * Summary:
 265:Generated_Source\PSoC5/SPIM.c **** *  Disable internal Tx interrupt generation.
 266:Generated_Source\PSoC5/SPIM.c **** *
 267:Generated_Source\PSoC5/SPIM.c **** * Parameters:
 268:Generated_Source\PSoC5/SPIM.c **** *  None.
 269:Generated_Source\PSoC5/SPIM.c **** *
 270:Generated_Source\PSoC5/SPIM.c **** * Return:
 271:Generated_Source\PSoC5/SPIM.c **** *  None.
 272:Generated_Source\PSoC5/SPIM.c **** *
 273:Generated_Source\PSoC5/SPIM.c **** * Theory:
 274:Generated_Source\PSoC5/SPIM.c **** *  Disable the internal Tx interrupt output -or- the interrupt component itself.
 275:Generated_Source\PSoC5/SPIM.c **** *
 276:Generated_Source\PSoC5/SPIM.c **** *******************************************************************************/
 277:Generated_Source\PSoC5/SPIM.c **** void SPIM_DisableTxInt(void) 
 278:Generated_Source\PSoC5/SPIM.c **** {
 404              		.loc 1 278 0
 405              		.cfi_startproc
 406              		@ args = 0, pretend = 0, frame = 0
ARM GAS  C:\Users\Tomas\AppData\Local\Temp\cc3PqP4E.s 			page 13


 407              		@ frame_needed = 1, uses_anonymous_args = 0
 408              		@ link register save eliminated.
 409 0000 80B4     		push	{r7}
 410              		.cfi_def_cfa_offset 4
 411              		.cfi_offset 7, -4
 412 0002 00AF     		add	r7, sp, #0
 413              		.cfi_def_cfa_register 7
 279:Generated_Source\PSoC5/SPIM.c ****     #if(0u != SPIM_INTERNAL_TX_INT_ENABLED)
 280:Generated_Source\PSoC5/SPIM.c ****         CyIntDisable(SPIM_TX_ISR_NUMBER);
 414              		.loc 1 280 0
 415 0004 034B     		ldr	r3, .L21
 416 0006 0222     		movs	r2, #2
 417 0008 1A60     		str	r2, [r3]
 281:Generated_Source\PSoC5/SPIM.c ****     #endif /* (0u != SPIM_INTERNAL_TX_INT_ENABLED) */
 282:Generated_Source\PSoC5/SPIM.c **** }
 418              		.loc 1 282 0
 419 000a 00BF     		nop
 420 000c BD46     		mov	sp, r7
 421              		.cfi_def_cfa_register 13
 422              		@ sp needed
 423 000e 80BC     		pop	{r7}
 424              		.cfi_restore 7
 425              		.cfi_def_cfa_offset 0
 426 0010 7047     		bx	lr
 427              	.L22:
 428 0012 00BF     		.align	2
 429              	.L21:
 430 0014 80E100E0 		.word	-536813184
 431              		.cfi_endproc
 432              	.LFE6:
 433              		.size	SPIM_DisableTxInt, .-SPIM_DisableTxInt
 434              		.section	.text.SPIM_DisableRxInt,"ax",%progbits
 435              		.align	2
 436              		.global	SPIM_DisableRxInt
 437              		.thumb
 438              		.thumb_func
 439              		.type	SPIM_DisableRxInt, %function
 440              	SPIM_DisableRxInt:
 441              	.LFB7:
 283:Generated_Source\PSoC5/SPIM.c **** 
 284:Generated_Source\PSoC5/SPIM.c **** 
 285:Generated_Source\PSoC5/SPIM.c **** /*******************************************************************************
 286:Generated_Source\PSoC5/SPIM.c **** * Function Name: SPIM_DisableRxInt
 287:Generated_Source\PSoC5/SPIM.c **** ********************************************************************************
 288:Generated_Source\PSoC5/SPIM.c **** *
 289:Generated_Source\PSoC5/SPIM.c **** * Summary:
 290:Generated_Source\PSoC5/SPIM.c **** *  Disable internal Rx interrupt generation.
 291:Generated_Source\PSoC5/SPIM.c **** *
 292:Generated_Source\PSoC5/SPIM.c **** * Parameters:
 293:Generated_Source\PSoC5/SPIM.c **** *  None.
 294:Generated_Source\PSoC5/SPIM.c **** *
 295:Generated_Source\PSoC5/SPIM.c **** * Return:
 296:Generated_Source\PSoC5/SPIM.c **** *  None.
 297:Generated_Source\PSoC5/SPIM.c **** *
 298:Generated_Source\PSoC5/SPIM.c **** * Theory:
 299:Generated_Source\PSoC5/SPIM.c **** *  Disable the internal Rx interrupt output -or- the interrupt component itself.
 300:Generated_Source\PSoC5/SPIM.c **** *
ARM GAS  C:\Users\Tomas\AppData\Local\Temp\cc3PqP4E.s 			page 14


 301:Generated_Source\PSoC5/SPIM.c **** *******************************************************************************/
 302:Generated_Source\PSoC5/SPIM.c **** void SPIM_DisableRxInt(void) 
 303:Generated_Source\PSoC5/SPIM.c **** {
 442              		.loc 1 303 0
 443              		.cfi_startproc
 444              		@ args = 0, pretend = 0, frame = 0
 445              		@ frame_needed = 1, uses_anonymous_args = 0
 446              		@ link register save eliminated.
 447 0000 80B4     		push	{r7}
 448              		.cfi_def_cfa_offset 4
 449              		.cfi_offset 7, -4
 450 0002 00AF     		add	r7, sp, #0
 451              		.cfi_def_cfa_register 7
 304:Generated_Source\PSoC5/SPIM.c ****     #if(0u != SPIM_INTERNAL_RX_INT_ENABLED)
 305:Generated_Source\PSoC5/SPIM.c ****         CyIntDisable(SPIM_RX_ISR_NUMBER);
 452              		.loc 1 305 0
 453 0004 034B     		ldr	r3, .L24
 454 0006 0122     		movs	r2, #1
 455 0008 1A60     		str	r2, [r3]
 306:Generated_Source\PSoC5/SPIM.c ****     #endif /* (0u != SPIM_INTERNAL_RX_INT_ENABLED) */
 307:Generated_Source\PSoC5/SPIM.c **** }
 456              		.loc 1 307 0
 457 000a 00BF     		nop
 458 000c BD46     		mov	sp, r7
 459              		.cfi_def_cfa_register 13
 460              		@ sp needed
 461 000e 80BC     		pop	{r7}
 462              		.cfi_restore 7
 463              		.cfi_def_cfa_offset 0
 464 0010 7047     		bx	lr
 465              	.L25:
 466 0012 00BF     		.align	2
 467              	.L24:
 468 0014 80E100E0 		.word	-536813184
 469              		.cfi_endproc
 470              	.LFE7:
 471              		.size	SPIM_DisableRxInt, .-SPIM_DisableRxInt
 472              		.section	.text.SPIM_SetTxInterruptMode,"ax",%progbits
 473              		.align	2
 474              		.global	SPIM_SetTxInterruptMode
 475              		.thumb
 476              		.thumb_func
 477              		.type	SPIM_SetTxInterruptMode, %function
 478              	SPIM_SetTxInterruptMode:
 479              	.LFB8:
 308:Generated_Source\PSoC5/SPIM.c **** 
 309:Generated_Source\PSoC5/SPIM.c **** 
 310:Generated_Source\PSoC5/SPIM.c **** /*******************************************************************************
 311:Generated_Source\PSoC5/SPIM.c **** * Function Name: SPIM_SetTxInterruptMode
 312:Generated_Source\PSoC5/SPIM.c **** ********************************************************************************
 313:Generated_Source\PSoC5/SPIM.c **** *
 314:Generated_Source\PSoC5/SPIM.c **** * Summary:
 315:Generated_Source\PSoC5/SPIM.c **** *  Configure which status bits trigger an interrupt event.
 316:Generated_Source\PSoC5/SPIM.c **** *
 317:Generated_Source\PSoC5/SPIM.c **** * Parameters:
 318:Generated_Source\PSoC5/SPIM.c **** *  intSrc: An or'd combination of the desired status bit masks (defined in the
 319:Generated_Source\PSoC5/SPIM.c **** *  header file).
ARM GAS  C:\Users\Tomas\AppData\Local\Temp\cc3PqP4E.s 			page 15


 320:Generated_Source\PSoC5/SPIM.c **** *
 321:Generated_Source\PSoC5/SPIM.c **** * Return:
 322:Generated_Source\PSoC5/SPIM.c **** *  None.
 323:Generated_Source\PSoC5/SPIM.c **** *
 324:Generated_Source\PSoC5/SPIM.c **** * Theory:
 325:Generated_Source\PSoC5/SPIM.c **** *  Enables the output of specific status bits to the interrupt controller.
 326:Generated_Source\PSoC5/SPIM.c **** *
 327:Generated_Source\PSoC5/SPIM.c **** *******************************************************************************/
 328:Generated_Source\PSoC5/SPIM.c **** void SPIM_SetTxInterruptMode(uint8 intSrc) 
 329:Generated_Source\PSoC5/SPIM.c **** {
 480              		.loc 1 329 0
 481              		.cfi_startproc
 482              		@ args = 0, pretend = 0, frame = 8
 483              		@ frame_needed = 1, uses_anonymous_args = 0
 484              		@ link register save eliminated.
 485 0000 80B4     		push	{r7}
 486              		.cfi_def_cfa_offset 4
 487              		.cfi_offset 7, -4
 488 0002 83B0     		sub	sp, sp, #12
 489              		.cfi_def_cfa_offset 16
 490 0004 00AF     		add	r7, sp, #0
 491              		.cfi_def_cfa_register 7
 492 0006 0346     		mov	r3, r0
 493 0008 FB71     		strb	r3, [r7, #7]
 330:Generated_Source\PSoC5/SPIM.c ****     SPIM_TX_STATUS_MASK_REG = intSrc;
 494              		.loc 1 330 0
 495 000a 044A     		ldr	r2, .L27
 496 000c FB79     		ldrb	r3, [r7, #7]
 497 000e 1370     		strb	r3, [r2]
 331:Generated_Source\PSoC5/SPIM.c **** }
 498              		.loc 1 331 0
 499 0010 00BF     		nop
 500 0012 0C37     		adds	r7, r7, #12
 501              		.cfi_def_cfa_offset 4
 502 0014 BD46     		mov	sp, r7
 503              		.cfi_def_cfa_register 13
 504              		@ sp needed
 505 0016 80BC     		pop	{r7}
 506              		.cfi_restore 7
 507              		.cfi_def_cfa_offset 0
 508 0018 7047     		bx	lr
 509              	.L28:
 510 001a 00BF     		.align	2
 511              	.L27:
 512 001c 86640040 		.word	1073767558
 513              		.cfi_endproc
 514              	.LFE8:
 515              		.size	SPIM_SetTxInterruptMode, .-SPIM_SetTxInterruptMode
 516              		.section	.text.SPIM_SetRxInterruptMode,"ax",%progbits
 517              		.align	2
 518              		.global	SPIM_SetRxInterruptMode
 519              		.thumb
 520              		.thumb_func
 521              		.type	SPIM_SetRxInterruptMode, %function
 522              	SPIM_SetRxInterruptMode:
 523              	.LFB9:
 332:Generated_Source\PSoC5/SPIM.c **** 
ARM GAS  C:\Users\Tomas\AppData\Local\Temp\cc3PqP4E.s 			page 16


 333:Generated_Source\PSoC5/SPIM.c **** 
 334:Generated_Source\PSoC5/SPIM.c **** /*******************************************************************************
 335:Generated_Source\PSoC5/SPIM.c **** * Function Name: SPIM_SetRxInterruptMode
 336:Generated_Source\PSoC5/SPIM.c **** ********************************************************************************
 337:Generated_Source\PSoC5/SPIM.c **** *
 338:Generated_Source\PSoC5/SPIM.c **** * Summary:
 339:Generated_Source\PSoC5/SPIM.c **** *  Configure which status bits trigger an interrupt event.
 340:Generated_Source\PSoC5/SPIM.c **** *
 341:Generated_Source\PSoC5/SPIM.c **** * Parameters:
 342:Generated_Source\PSoC5/SPIM.c **** *  intSrc: An or'd combination of the desired status bit masks (defined in the
 343:Generated_Source\PSoC5/SPIM.c **** *  header file).
 344:Generated_Source\PSoC5/SPIM.c **** *
 345:Generated_Source\PSoC5/SPIM.c **** * Return:
 346:Generated_Source\PSoC5/SPIM.c **** *  None.
 347:Generated_Source\PSoC5/SPIM.c **** *
 348:Generated_Source\PSoC5/SPIM.c **** * Theory:
 349:Generated_Source\PSoC5/SPIM.c **** *  Enables the output of specific status bits to the interrupt controller.
 350:Generated_Source\PSoC5/SPIM.c **** *
 351:Generated_Source\PSoC5/SPIM.c **** *******************************************************************************/
 352:Generated_Source\PSoC5/SPIM.c **** void SPIM_SetRxInterruptMode(uint8 intSrc) 
 353:Generated_Source\PSoC5/SPIM.c **** {
 524              		.loc 1 353 0
 525              		.cfi_startproc
 526              		@ args = 0, pretend = 0, frame = 8
 527              		@ frame_needed = 1, uses_anonymous_args = 0
 528              		@ link register save eliminated.
 529 0000 80B4     		push	{r7}
 530              		.cfi_def_cfa_offset 4
 531              		.cfi_offset 7, -4
 532 0002 83B0     		sub	sp, sp, #12
 533              		.cfi_def_cfa_offset 16
 534 0004 00AF     		add	r7, sp, #0
 535              		.cfi_def_cfa_register 7
 536 0006 0346     		mov	r3, r0
 537 0008 FB71     		strb	r3, [r7, #7]
 354:Generated_Source\PSoC5/SPIM.c ****     SPIM_RX_STATUS_MASK_REG  = intSrc;
 538              		.loc 1 354 0
 539 000a 044A     		ldr	r2, .L30
 540 000c FB79     		ldrb	r3, [r7, #7]
 541 000e 1370     		strb	r3, [r2]
 355:Generated_Source\PSoC5/SPIM.c **** }
 542              		.loc 1 355 0
 543 0010 00BF     		nop
 544 0012 0C37     		adds	r7, r7, #12
 545              		.cfi_def_cfa_offset 4
 546 0014 BD46     		mov	sp, r7
 547              		.cfi_def_cfa_register 13
 548              		@ sp needed
 549 0016 80BC     		pop	{r7}
 550              		.cfi_restore 7
 551              		.cfi_def_cfa_offset 0
 552 0018 7047     		bx	lr
 553              	.L31:
 554 001a 00BF     		.align	2
 555              	.L30:
 556 001c 86650040 		.word	1073767814
 557              		.cfi_endproc
ARM GAS  C:\Users\Tomas\AppData\Local\Temp\cc3PqP4E.s 			page 17


 558              	.LFE9:
 559              		.size	SPIM_SetRxInterruptMode, .-SPIM_SetRxInterruptMode
 560              		.section	.text.SPIM_ReadTxStatus,"ax",%progbits
 561              		.align	2
 562              		.global	SPIM_ReadTxStatus
 563              		.thumb
 564              		.thumb_func
 565              		.type	SPIM_ReadTxStatus, %function
 566              	SPIM_ReadTxStatus:
 567              	.LFB10:
 356:Generated_Source\PSoC5/SPIM.c **** 
 357:Generated_Source\PSoC5/SPIM.c **** 
 358:Generated_Source\PSoC5/SPIM.c **** /*******************************************************************************
 359:Generated_Source\PSoC5/SPIM.c **** * Function Name: SPIM_ReadTxStatus
 360:Generated_Source\PSoC5/SPIM.c **** ********************************************************************************
 361:Generated_Source\PSoC5/SPIM.c **** *
 362:Generated_Source\PSoC5/SPIM.c **** * Summary:
 363:Generated_Source\PSoC5/SPIM.c **** *  Read the Tx status register for the component.
 364:Generated_Source\PSoC5/SPIM.c **** *
 365:Generated_Source\PSoC5/SPIM.c **** * Parameters:
 366:Generated_Source\PSoC5/SPIM.c **** *  None.
 367:Generated_Source\PSoC5/SPIM.c **** *
 368:Generated_Source\PSoC5/SPIM.c **** * Return:
 369:Generated_Source\PSoC5/SPIM.c **** *  Contents of the Tx status register.
 370:Generated_Source\PSoC5/SPIM.c **** *
 371:Generated_Source\PSoC5/SPIM.c **** * Global variables:
 372:Generated_Source\PSoC5/SPIM.c **** *  SPIM_swStatusTx - used to store in software status register,
 373:Generated_Source\PSoC5/SPIM.c **** *  modified every function call - resets to zero.
 374:Generated_Source\PSoC5/SPIM.c **** *
 375:Generated_Source\PSoC5/SPIM.c **** * Theory:
 376:Generated_Source\PSoC5/SPIM.c **** *  Allows the user and the API to read the Tx status register for error
 377:Generated_Source\PSoC5/SPIM.c **** *  detection and flow control.
 378:Generated_Source\PSoC5/SPIM.c **** *
 379:Generated_Source\PSoC5/SPIM.c **** * Side Effects:
 380:Generated_Source\PSoC5/SPIM.c **** *  Clear Tx status register of the component.
 381:Generated_Source\PSoC5/SPIM.c **** *
 382:Generated_Source\PSoC5/SPIM.c **** * Reentrant:
 383:Generated_Source\PSoC5/SPIM.c **** *  No.
 384:Generated_Source\PSoC5/SPIM.c **** *
 385:Generated_Source\PSoC5/SPIM.c **** *******************************************************************************/
 386:Generated_Source\PSoC5/SPIM.c **** uint8 SPIM_ReadTxStatus(void) 
 387:Generated_Source\PSoC5/SPIM.c **** {
 568              		.loc 1 387 0
 569              		.cfi_startproc
 570              		@ args = 0, pretend = 0, frame = 8
 571              		@ frame_needed = 1, uses_anonymous_args = 0
 572 0000 80B5     		push	{r7, lr}
 573              		.cfi_def_cfa_offset 8
 574              		.cfi_offset 7, -8
 575              		.cfi_offset 14, -4
 576 0002 82B0     		sub	sp, sp, #8
 577              		.cfi_def_cfa_offset 16
 578 0004 00AF     		add	r7, sp, #0
 579              		.cfi_def_cfa_register 7
 388:Generated_Source\PSoC5/SPIM.c ****     uint8 tmpStatus;
 389:Generated_Source\PSoC5/SPIM.c **** 
 390:Generated_Source\PSoC5/SPIM.c ****     #if(SPIM_TX_SOFTWARE_BUF_ENABLED)
ARM GAS  C:\Users\Tomas\AppData\Local\Temp\cc3PqP4E.s 			page 18


 391:Generated_Source\PSoC5/SPIM.c ****         /* Disable TX interrupt to protect global veriables */
 392:Generated_Source\PSoC5/SPIM.c ****         SPIM_DisableTxInt();
 580              		.loc 1 392 0
 581 0006 FFF7FEFF 		bl	SPIM_DisableTxInt
 393:Generated_Source\PSoC5/SPIM.c **** 
 394:Generated_Source\PSoC5/SPIM.c ****         tmpStatus = SPIM_GET_STATUS_TX(SPIM_swStatusTx);
 582              		.loc 1 394 0
 583 000a 0A4B     		ldr	r3, .L34
 584 000c 1B78     		ldrb	r3, [r3]
 585 000e DAB2     		uxtb	r2, r3
 586 0010 094B     		ldr	r3, .L34+4
 587 0012 1B78     		ldrb	r3, [r3]
 588 0014 DBB2     		uxtb	r3, r3
 589 0016 03F00903 		and	r3, r3, #9
 590 001a DBB2     		uxtb	r3, r3
 591 001c 1343     		orrs	r3, r3, r2
 592 001e FB71     		strb	r3, [r7, #7]
 395:Generated_Source\PSoC5/SPIM.c ****         SPIM_swStatusTx = 0u;
 593              		.loc 1 395 0
 594 0020 054B     		ldr	r3, .L34+4
 595 0022 0022     		movs	r2, #0
 596 0024 1A70     		strb	r2, [r3]
 396:Generated_Source\PSoC5/SPIM.c **** 
 397:Generated_Source\PSoC5/SPIM.c ****         SPIM_EnableTxInt();
 597              		.loc 1 397 0
 598 0026 FFF7FEFF 		bl	SPIM_EnableTxInt
 398:Generated_Source\PSoC5/SPIM.c **** 
 399:Generated_Source\PSoC5/SPIM.c ****     #else
 400:Generated_Source\PSoC5/SPIM.c **** 
 401:Generated_Source\PSoC5/SPIM.c ****         tmpStatus = SPIM_TX_STATUS_REG;
 402:Generated_Source\PSoC5/SPIM.c **** 
 403:Generated_Source\PSoC5/SPIM.c ****     #endif /* (SPIM_TX_SOFTWARE_BUF_ENABLED) */
 404:Generated_Source\PSoC5/SPIM.c **** 
 405:Generated_Source\PSoC5/SPIM.c ****     return(tmpStatus);
 599              		.loc 1 405 0
 600 002a FB79     		ldrb	r3, [r7, #7]	@ zero_extendqisi2
 406:Generated_Source\PSoC5/SPIM.c **** }
 601              		.loc 1 406 0
 602 002c 1846     		mov	r0, r3
 603 002e 0837     		adds	r7, r7, #8
 604              		.cfi_def_cfa_offset 8
 605 0030 BD46     		mov	sp, r7
 606              		.cfi_def_cfa_register 13
 607              		@ sp needed
 608 0032 80BD     		pop	{r7, pc}
 609              	.L35:
 610              		.align	2
 611              	.L34:
 612 0034 66640040 		.word	1073767526
 613 0038 00000000 		.word	SPIM_swStatusTx
 614              		.cfi_endproc
 615              	.LFE10:
 616              		.size	SPIM_ReadTxStatus, .-SPIM_ReadTxStatus
 617              		.section	.text.SPIM_ReadRxStatus,"ax",%progbits
 618              		.align	2
 619              		.global	SPIM_ReadRxStatus
 620              		.thumb
ARM GAS  C:\Users\Tomas\AppData\Local\Temp\cc3PqP4E.s 			page 19


 621              		.thumb_func
 622              		.type	SPIM_ReadRxStatus, %function
 623              	SPIM_ReadRxStatus:
 624              	.LFB11:
 407:Generated_Source\PSoC5/SPIM.c **** 
 408:Generated_Source\PSoC5/SPIM.c **** 
 409:Generated_Source\PSoC5/SPIM.c **** /*******************************************************************************
 410:Generated_Source\PSoC5/SPIM.c **** * Function Name: SPIM_ReadRxStatus
 411:Generated_Source\PSoC5/SPIM.c **** ********************************************************************************
 412:Generated_Source\PSoC5/SPIM.c **** *
 413:Generated_Source\PSoC5/SPIM.c **** * Summary:
 414:Generated_Source\PSoC5/SPIM.c **** *  Read the Rx status register for the component.
 415:Generated_Source\PSoC5/SPIM.c **** *
 416:Generated_Source\PSoC5/SPIM.c **** * Parameters:
 417:Generated_Source\PSoC5/SPIM.c **** *  None.
 418:Generated_Source\PSoC5/SPIM.c **** *
 419:Generated_Source\PSoC5/SPIM.c **** * Return:
 420:Generated_Source\PSoC5/SPIM.c **** *  Contents of the Rx status register.
 421:Generated_Source\PSoC5/SPIM.c **** *
 422:Generated_Source\PSoC5/SPIM.c **** * Global variables:
 423:Generated_Source\PSoC5/SPIM.c **** *  SPIM_swStatusRx - used to store in software Rx status register,
 424:Generated_Source\PSoC5/SPIM.c **** *  modified every function call - resets to zero.
 425:Generated_Source\PSoC5/SPIM.c **** *
 426:Generated_Source\PSoC5/SPIM.c **** * Theory:
 427:Generated_Source\PSoC5/SPIM.c **** *  Allows the user and the API to read the Rx status register for error
 428:Generated_Source\PSoC5/SPIM.c **** *  detection and flow control.
 429:Generated_Source\PSoC5/SPIM.c **** *
 430:Generated_Source\PSoC5/SPIM.c **** * Side Effects:
 431:Generated_Source\PSoC5/SPIM.c **** *  Clear Rx status register of the component.
 432:Generated_Source\PSoC5/SPIM.c **** *
 433:Generated_Source\PSoC5/SPIM.c **** * Reentrant:
 434:Generated_Source\PSoC5/SPIM.c **** *  No.
 435:Generated_Source\PSoC5/SPIM.c **** *
 436:Generated_Source\PSoC5/SPIM.c **** *******************************************************************************/
 437:Generated_Source\PSoC5/SPIM.c **** uint8 SPIM_ReadRxStatus(void) 
 438:Generated_Source\PSoC5/SPIM.c **** {
 625              		.loc 1 438 0
 626              		.cfi_startproc
 627              		@ args = 0, pretend = 0, frame = 8
 628              		@ frame_needed = 1, uses_anonymous_args = 0
 629 0000 80B5     		push	{r7, lr}
 630              		.cfi_def_cfa_offset 8
 631              		.cfi_offset 7, -8
 632              		.cfi_offset 14, -4
 633 0002 82B0     		sub	sp, sp, #8
 634              		.cfi_def_cfa_offset 16
 635 0004 00AF     		add	r7, sp, #0
 636              		.cfi_def_cfa_register 7
 439:Generated_Source\PSoC5/SPIM.c ****     uint8 tmpStatus;
 440:Generated_Source\PSoC5/SPIM.c **** 
 441:Generated_Source\PSoC5/SPIM.c ****     #if(SPIM_RX_SOFTWARE_BUF_ENABLED)
 442:Generated_Source\PSoC5/SPIM.c ****         /* Disable RX interrupt to protect global veriables */
 443:Generated_Source\PSoC5/SPIM.c ****         SPIM_DisableRxInt();
 637              		.loc 1 443 0
 638 0006 FFF7FEFF 		bl	SPIM_DisableRxInt
 444:Generated_Source\PSoC5/SPIM.c **** 
 445:Generated_Source\PSoC5/SPIM.c ****         tmpStatus = SPIM_GET_STATUS_RX(SPIM_swStatusRx);
ARM GAS  C:\Users\Tomas\AppData\Local\Temp\cc3PqP4E.s 			page 20


 639              		.loc 1 445 0
 640 000a 0A4B     		ldr	r3, .L38
 641 000c 1B78     		ldrb	r3, [r3]
 642 000e DAB2     		uxtb	r2, r3
 643 0010 094B     		ldr	r3, .L38+4
 644 0012 1B78     		ldrb	r3, [r3]
 645 0014 DBB2     		uxtb	r3, r3
 646 0016 03F04003 		and	r3, r3, #64
 647 001a DBB2     		uxtb	r3, r3
 648 001c 1343     		orrs	r3, r3, r2
 649 001e FB71     		strb	r3, [r7, #7]
 446:Generated_Source\PSoC5/SPIM.c ****         SPIM_swStatusRx = 0u;
 650              		.loc 1 446 0
 651 0020 054B     		ldr	r3, .L38+4
 652 0022 0022     		movs	r2, #0
 653 0024 1A70     		strb	r2, [r3]
 447:Generated_Source\PSoC5/SPIM.c **** 
 448:Generated_Source\PSoC5/SPIM.c ****         SPIM_EnableRxInt();
 654              		.loc 1 448 0
 655 0026 FFF7FEFF 		bl	SPIM_EnableRxInt
 449:Generated_Source\PSoC5/SPIM.c **** 
 450:Generated_Source\PSoC5/SPIM.c ****     #else
 451:Generated_Source\PSoC5/SPIM.c **** 
 452:Generated_Source\PSoC5/SPIM.c ****         tmpStatus = SPIM_RX_STATUS_REG;
 453:Generated_Source\PSoC5/SPIM.c **** 
 454:Generated_Source\PSoC5/SPIM.c ****     #endif /* (SPIM_RX_SOFTWARE_BUF_ENABLED) */
 455:Generated_Source\PSoC5/SPIM.c **** 
 456:Generated_Source\PSoC5/SPIM.c ****     return(tmpStatus);
 656              		.loc 1 456 0
 657 002a FB79     		ldrb	r3, [r7, #7]	@ zero_extendqisi2
 457:Generated_Source\PSoC5/SPIM.c **** }
 658              		.loc 1 457 0
 659 002c 1846     		mov	r0, r3
 660 002e 0837     		adds	r7, r7, #8
 661              		.cfi_def_cfa_offset 8
 662 0030 BD46     		mov	sp, r7
 663              		.cfi_def_cfa_register 13
 664              		@ sp needed
 665 0032 80BD     		pop	{r7, pc}
 666              	.L39:
 667              		.align	2
 668              	.L38:
 669 0034 66650040 		.word	1073767782
 670 0038 00000000 		.word	SPIM_swStatusRx
 671              		.cfi_endproc
 672              	.LFE11:
 673              		.size	SPIM_ReadRxStatus, .-SPIM_ReadRxStatus
 674              		.section	.text.SPIM_WriteTxData,"ax",%progbits
 675              		.align	2
 676              		.global	SPIM_WriteTxData
 677              		.thumb
 678              		.thumb_func
 679              		.type	SPIM_WriteTxData, %function
 680              	SPIM_WriteTxData:
 681              	.LFB12:
 458:Generated_Source\PSoC5/SPIM.c **** 
 459:Generated_Source\PSoC5/SPIM.c **** 
ARM GAS  C:\Users\Tomas\AppData\Local\Temp\cc3PqP4E.s 			page 21


 460:Generated_Source\PSoC5/SPIM.c **** /*******************************************************************************
 461:Generated_Source\PSoC5/SPIM.c **** * Function Name: SPIM_WriteTxData
 462:Generated_Source\PSoC5/SPIM.c **** ********************************************************************************
 463:Generated_Source\PSoC5/SPIM.c **** *
 464:Generated_Source\PSoC5/SPIM.c **** * Summary:
 465:Generated_Source\PSoC5/SPIM.c **** *  Write a byte of data to be sent across the SPI.
 466:Generated_Source\PSoC5/SPIM.c **** *
 467:Generated_Source\PSoC5/SPIM.c **** * Parameters:
 468:Generated_Source\PSoC5/SPIM.c **** *  txDataByte: The data value to send across the SPI.
 469:Generated_Source\PSoC5/SPIM.c **** *
 470:Generated_Source\PSoC5/SPIM.c **** * Return:
 471:Generated_Source\PSoC5/SPIM.c **** *  None.
 472:Generated_Source\PSoC5/SPIM.c **** *
 473:Generated_Source\PSoC5/SPIM.c **** * Global variables:
 474:Generated_Source\PSoC5/SPIM.c **** *  SPIM_txBufferWrite - used for the account of the bytes which
 475:Generated_Source\PSoC5/SPIM.c **** *  have been written down in the TX software buffer, modified every function
 476:Generated_Source\PSoC5/SPIM.c **** *  call if TX Software Buffer is used.
 477:Generated_Source\PSoC5/SPIM.c **** *  SPIM_txBufferRead - used for the account of the bytes which
 478:Generated_Source\PSoC5/SPIM.c **** *  have been read from the TX software buffer.
 479:Generated_Source\PSoC5/SPIM.c **** *  SPIM_txBuffer[SPIM_TX_BUFFER_SIZE] - used to store
 480:Generated_Source\PSoC5/SPIM.c **** *  data to sending, modified every function call if TX Software Buffer is used.
 481:Generated_Source\PSoC5/SPIM.c **** *
 482:Generated_Source\PSoC5/SPIM.c **** * Theory:
 483:Generated_Source\PSoC5/SPIM.c **** *  Allows the user to transmit any byte of data in a single transfer.
 484:Generated_Source\PSoC5/SPIM.c **** *
 485:Generated_Source\PSoC5/SPIM.c **** * Side Effects:
 486:Generated_Source\PSoC5/SPIM.c **** *  If this function is called again before the previous byte is finished then
 487:Generated_Source\PSoC5/SPIM.c **** *  the next byte will be appended to the transfer with no time between
 488:Generated_Source\PSoC5/SPIM.c **** *  the byte transfers. Clear Tx status register of the component.
 489:Generated_Source\PSoC5/SPIM.c **** *
 490:Generated_Source\PSoC5/SPIM.c **** * Reentrant:
 491:Generated_Source\PSoC5/SPIM.c **** *  No.
 492:Generated_Source\PSoC5/SPIM.c **** *
 493:Generated_Source\PSoC5/SPIM.c **** *******************************************************************************/
 494:Generated_Source\PSoC5/SPIM.c **** void SPIM_WriteTxData(uint8 txData) 
 495:Generated_Source\PSoC5/SPIM.c **** {
 682              		.loc 1 495 0
 683              		.cfi_startproc
 684              		@ args = 0, pretend = 0, frame = 16
 685              		@ frame_needed = 1, uses_anonymous_args = 0
 686 0000 80B5     		push	{r7, lr}
 687              		.cfi_def_cfa_offset 8
 688              		.cfi_offset 7, -8
 689              		.cfi_offset 14, -4
 690 0002 84B0     		sub	sp, sp, #16
 691              		.cfi_def_cfa_offset 24
 692 0004 00AF     		add	r7, sp, #0
 693              		.cfi_def_cfa_register 7
 694 0006 0346     		mov	r3, r0
 695 0008 FB71     		strb	r3, [r7, #7]
 696              	.L43:
 496:Generated_Source\PSoC5/SPIM.c ****     #if(SPIM_TX_SOFTWARE_BUF_ENABLED)
 497:Generated_Source\PSoC5/SPIM.c **** 
 498:Generated_Source\PSoC5/SPIM.c ****         uint8 tempStatus;
 499:Generated_Source\PSoC5/SPIM.c ****         uint8 tmpTxBufferRead;
 500:Generated_Source\PSoC5/SPIM.c **** 
 501:Generated_Source\PSoC5/SPIM.c ****         /* Block if TX buffer is FULL: don't overwrite */
ARM GAS  C:\Users\Tomas\AppData\Local\Temp\cc3PqP4E.s 			page 22


 502:Generated_Source\PSoC5/SPIM.c ****         do
 503:Generated_Source\PSoC5/SPIM.c ****         {
 504:Generated_Source\PSoC5/SPIM.c ****             tmpTxBufferRead = SPIM_txBufferRead;
 697              		.loc 1 504 0
 698 000a 394B     		ldr	r3, .L49
 699 000c 1B78     		ldrb	r3, [r3]
 700 000e FB73     		strb	r3, [r7, #15]
 505:Generated_Source\PSoC5/SPIM.c ****             if(0u == tmpTxBufferRead)
 701              		.loc 1 505 0
 702 0010 FB7B     		ldrb	r3, [r7, #15]	@ zero_extendqisi2
 703 0012 002B     		cmp	r3, #0
 704 0014 02D1     		bne	.L41
 506:Generated_Source\PSoC5/SPIM.c ****             {
 507:Generated_Source\PSoC5/SPIM.c ****                 tmpTxBufferRead = (SPIM_TX_BUFFER_SIZE - 1u);
 705              		.loc 1 507 0
 706 0016 1F23     		movs	r3, #31
 707 0018 FB73     		strb	r3, [r7, #15]
 708 001a 02E0     		b	.L42
 709              	.L41:
 508:Generated_Source\PSoC5/SPIM.c ****             }
 509:Generated_Source\PSoC5/SPIM.c ****             else
 510:Generated_Source\PSoC5/SPIM.c ****             {
 511:Generated_Source\PSoC5/SPIM.c ****                 tmpTxBufferRead--;
 710              		.loc 1 511 0
 711 001c FB7B     		ldrb	r3, [r7, #15]	@ zero_extendqisi2
 712 001e 013B     		subs	r3, r3, #1
 713 0020 FB73     		strb	r3, [r7, #15]
 714              	.L42:
 512:Generated_Source\PSoC5/SPIM.c ****             }
 513:Generated_Source\PSoC5/SPIM.c **** 
 514:Generated_Source\PSoC5/SPIM.c ****         }while(tmpTxBufferRead == SPIM_txBufferWrite);
 715              		.loc 1 514 0
 716 0022 344B     		ldr	r3, .L49+4
 717 0024 1B78     		ldrb	r3, [r3]
 718 0026 DBB2     		uxtb	r3, r3
 719 0028 FA7B     		ldrb	r2, [r7, #15]	@ zero_extendqisi2
 720 002a 9A42     		cmp	r2, r3
 721 002c EDD0     		beq	.L43
 515:Generated_Source\PSoC5/SPIM.c **** 
 516:Generated_Source\PSoC5/SPIM.c ****         /* Disable TX interrupt to protect global veriables */
 517:Generated_Source\PSoC5/SPIM.c ****         SPIM_DisableTxInt();
 722              		.loc 1 517 0
 723 002e FFF7FEFF 		bl	SPIM_DisableTxInt
 518:Generated_Source\PSoC5/SPIM.c **** 
 519:Generated_Source\PSoC5/SPIM.c ****         tempStatus = SPIM_GET_STATUS_TX(SPIM_swStatusTx);
 724              		.loc 1 519 0
 725 0032 314B     		ldr	r3, .L49+8
 726 0034 1B78     		ldrb	r3, [r3]
 727 0036 DAB2     		uxtb	r2, r3
 728 0038 304B     		ldr	r3, .L49+12
 729 003a 1B78     		ldrb	r3, [r3]
 730 003c DBB2     		uxtb	r3, r3
 731 003e 03F00903 		and	r3, r3, #9
 732 0042 DBB2     		uxtb	r3, r3
 733 0044 1343     		orrs	r3, r3, r2
 734 0046 BB73     		strb	r3, [r7, #14]
 520:Generated_Source\PSoC5/SPIM.c ****         SPIM_swStatusTx = tempStatus;
ARM GAS  C:\Users\Tomas\AppData\Local\Temp\cc3PqP4E.s 			page 23


 735              		.loc 1 520 0
 736 0048 2C4A     		ldr	r2, .L49+12
 737 004a BB7B     		ldrb	r3, [r7, #14]
 738 004c 1370     		strb	r3, [r2]
 521:Generated_Source\PSoC5/SPIM.c **** 
 522:Generated_Source\PSoC5/SPIM.c **** 
 523:Generated_Source\PSoC5/SPIM.c ****         if((SPIM_txBufferRead == SPIM_txBufferWrite) &&
 739              		.loc 1 523 0
 740 004e 284B     		ldr	r3, .L49
 741 0050 1B78     		ldrb	r3, [r3]
 742 0052 DAB2     		uxtb	r2, r3
 743 0054 274B     		ldr	r3, .L49+4
 744 0056 1B78     		ldrb	r3, [r3]
 745 0058 DBB2     		uxtb	r3, r3
 746 005a 9A42     		cmp	r2, r3
 747 005c 0AD1     		bne	.L44
 524:Generated_Source\PSoC5/SPIM.c ****            (0u != (SPIM_swStatusTx & SPIM_STS_TX_FIFO_NOT_FULL)))
 748              		.loc 1 524 0 discriminator 1
 749 005e 274B     		ldr	r3, .L49+12
 750 0060 1B78     		ldrb	r3, [r3]
 751 0062 DBB2     		uxtb	r3, r3
 752 0064 03F00403 		and	r3, r3, #4
 523:Generated_Source\PSoC5/SPIM.c ****            (0u != (SPIM_swStatusTx & SPIM_STS_TX_FIFO_NOT_FULL)))
 753              		.loc 1 523 0 discriminator 1
 754 0068 002B     		cmp	r3, #0
 755 006a 03D0     		beq	.L44
 525:Generated_Source\PSoC5/SPIM.c ****         {
 526:Generated_Source\PSoC5/SPIM.c ****             /* Put data element into the TX FIFO */
 527:Generated_Source\PSoC5/SPIM.c ****             CY_SET_REG8(SPIM_TXDATA_PTR, txData);
 756              		.loc 1 527 0
 757 006c 244A     		ldr	r2, .L49+16
 758 006e FB79     		ldrb	r3, [r7, #7]
 759 0070 1370     		strb	r3, [r2]
 760 0072 37E0     		b	.L45
 761              	.L44:
 528:Generated_Source\PSoC5/SPIM.c ****         }
 529:Generated_Source\PSoC5/SPIM.c ****         else
 530:Generated_Source\PSoC5/SPIM.c ****         {
 531:Generated_Source\PSoC5/SPIM.c ****             /* Add to the TX software buffer */
 532:Generated_Source\PSoC5/SPIM.c ****             SPIM_txBufferWrite++;
 762              		.loc 1 532 0
 763 0074 1F4B     		ldr	r3, .L49+4
 764 0076 1B78     		ldrb	r3, [r3]
 765 0078 DBB2     		uxtb	r3, r3
 766 007a 0133     		adds	r3, r3, #1
 767 007c DAB2     		uxtb	r2, r3
 768 007e 1D4B     		ldr	r3, .L49+4
 769 0080 1A70     		strb	r2, [r3]
 533:Generated_Source\PSoC5/SPIM.c ****             if(SPIM_txBufferWrite >= SPIM_TX_BUFFER_SIZE)
 770              		.loc 1 533 0
 771 0082 1C4B     		ldr	r3, .L49+4
 772 0084 1B78     		ldrb	r3, [r3]
 773 0086 DBB2     		uxtb	r3, r3
 774 0088 1F2B     		cmp	r3, #31
 775 008a 02D9     		bls	.L46
 534:Generated_Source\PSoC5/SPIM.c ****             {
 535:Generated_Source\PSoC5/SPIM.c ****                 SPIM_txBufferWrite = 0u;
ARM GAS  C:\Users\Tomas\AppData\Local\Temp\cc3PqP4E.s 			page 24


 776              		.loc 1 535 0
 777 008c 194B     		ldr	r3, .L49+4
 778 008e 0022     		movs	r2, #0
 779 0090 1A70     		strb	r2, [r3]
 780              	.L46:
 536:Generated_Source\PSoC5/SPIM.c ****             }
 537:Generated_Source\PSoC5/SPIM.c **** 
 538:Generated_Source\PSoC5/SPIM.c ****             if(SPIM_txBufferWrite == SPIM_txBufferRead)
 781              		.loc 1 538 0
 782 0092 184B     		ldr	r3, .L49+4
 783 0094 1B78     		ldrb	r3, [r3]
 784 0096 DAB2     		uxtb	r2, r3
 785 0098 154B     		ldr	r3, .L49
 786 009a 1B78     		ldrb	r3, [r3]
 787 009c DBB2     		uxtb	r3, r3
 788 009e 9A42     		cmp	r2, r3
 789 00a0 11D1     		bne	.L47
 539:Generated_Source\PSoC5/SPIM.c ****             {
 540:Generated_Source\PSoC5/SPIM.c ****                 SPIM_txBufferRead++;
 790              		.loc 1 540 0
 791 00a2 134B     		ldr	r3, .L49
 792 00a4 1B78     		ldrb	r3, [r3]
 793 00a6 DBB2     		uxtb	r3, r3
 794 00a8 0133     		adds	r3, r3, #1
 795 00aa DAB2     		uxtb	r2, r3
 796 00ac 104B     		ldr	r3, .L49
 797 00ae 1A70     		strb	r2, [r3]
 541:Generated_Source\PSoC5/SPIM.c ****                 if(SPIM_txBufferRead >= SPIM_TX_BUFFER_SIZE)
 798              		.loc 1 541 0
 799 00b0 0F4B     		ldr	r3, .L49
 800 00b2 1B78     		ldrb	r3, [r3]
 801 00b4 DBB2     		uxtb	r3, r3
 802 00b6 1F2B     		cmp	r3, #31
 803 00b8 02D9     		bls	.L48
 542:Generated_Source\PSoC5/SPIM.c ****                 {
 543:Generated_Source\PSoC5/SPIM.c ****                     SPIM_txBufferRead = 0u;
 804              		.loc 1 543 0
 805 00ba 0D4B     		ldr	r3, .L49
 806 00bc 0022     		movs	r2, #0
 807 00be 1A70     		strb	r2, [r3]
 808              	.L48:
 544:Generated_Source\PSoC5/SPIM.c ****                 }
 545:Generated_Source\PSoC5/SPIM.c ****                 SPIM_txBufferFull = 1u;
 809              		.loc 1 545 0
 810 00c0 104B     		ldr	r3, .L49+20
 811 00c2 0122     		movs	r2, #1
 812 00c4 1A70     		strb	r2, [r3]
 813              	.L47:
 546:Generated_Source\PSoC5/SPIM.c ****             }
 547:Generated_Source\PSoC5/SPIM.c **** 
 548:Generated_Source\PSoC5/SPIM.c ****             SPIM_txBuffer[SPIM_txBufferWrite] = txData;
 814              		.loc 1 548 0
 815 00c6 0B4B     		ldr	r3, .L49+4
 816 00c8 1B78     		ldrb	r3, [r3]
 817 00ca DBB2     		uxtb	r3, r3
 818 00cc 1946     		mov	r1, r3
 819 00ce 0E4A     		ldr	r2, .L49+24
ARM GAS  C:\Users\Tomas\AppData\Local\Temp\cc3PqP4E.s 			page 25


 820 00d0 FB79     		ldrb	r3, [r7, #7]
 821 00d2 5354     		strb	r3, [r2, r1]
 549:Generated_Source\PSoC5/SPIM.c **** 
 550:Generated_Source\PSoC5/SPIM.c ****             SPIM_TX_STATUS_MASK_REG |= SPIM_STS_TX_FIFO_NOT_FULL;
 822              		.loc 1 550 0
 823 00d4 0D4A     		ldr	r2, .L49+28
 824 00d6 0D4B     		ldr	r3, .L49+28
 825 00d8 1B78     		ldrb	r3, [r3]
 826 00da DBB2     		uxtb	r3, r3
 827 00dc 43F00403 		orr	r3, r3, #4
 828 00e0 DBB2     		uxtb	r3, r3
 829 00e2 1370     		strb	r3, [r2]
 830              	.L45:
 551:Generated_Source\PSoC5/SPIM.c ****         }
 552:Generated_Source\PSoC5/SPIM.c **** 
 553:Generated_Source\PSoC5/SPIM.c ****         SPIM_EnableTxInt();
 831              		.loc 1 553 0
 832 00e4 FFF7FEFF 		bl	SPIM_EnableTxInt
 554:Generated_Source\PSoC5/SPIM.c **** 
 555:Generated_Source\PSoC5/SPIM.c ****     #else
 556:Generated_Source\PSoC5/SPIM.c ****         /* Wait until TX FIFO has a place */
 557:Generated_Source\PSoC5/SPIM.c ****         while(0u == (SPIM_TX_STATUS_REG & SPIM_STS_TX_FIFO_NOT_FULL))
 558:Generated_Source\PSoC5/SPIM.c ****         {
 559:Generated_Source\PSoC5/SPIM.c ****         }
 560:Generated_Source\PSoC5/SPIM.c **** 
 561:Generated_Source\PSoC5/SPIM.c ****         /* Put data element into the TX FIFO */
 562:Generated_Source\PSoC5/SPIM.c ****         CY_SET_REG8(SPIM_TXDATA_PTR, txData);
 563:Generated_Source\PSoC5/SPIM.c **** 
 564:Generated_Source\PSoC5/SPIM.c ****     #endif /* (SPIM_TX_SOFTWARE_BUF_ENABLED) */
 565:Generated_Source\PSoC5/SPIM.c **** }
 833              		.loc 1 565 0
 834 00e8 00BF     		nop
 835 00ea 1037     		adds	r7, r7, #16
 836              		.cfi_def_cfa_offset 8
 837 00ec BD46     		mov	sp, r7
 838              		.cfi_def_cfa_register 13
 839              		@ sp needed
 840 00ee 80BD     		pop	{r7, pc}
 841              	.L50:
 842              		.align	2
 843              	.L49:
 844 00f0 00000000 		.word	SPIM_txBufferRead
 845 00f4 00000000 		.word	SPIM_txBufferWrite
 846 00f8 66640040 		.word	1073767526
 847 00fc 00000000 		.word	SPIM_swStatusTx
 848 0100 46640040 		.word	1073767494
 849 0104 00000000 		.word	SPIM_txBufferFull
 850 0108 00000000 		.word	SPIM_txBuffer
 851 010c 86640040 		.word	1073767558
 852              		.cfi_endproc
 853              	.LFE12:
 854              		.size	SPIM_WriteTxData, .-SPIM_WriteTxData
 855              		.section	.text.SPIM_ReadRxData,"ax",%progbits
 856              		.align	2
 857              		.global	SPIM_ReadRxData
 858              		.thumb
 859              		.thumb_func
ARM GAS  C:\Users\Tomas\AppData\Local\Temp\cc3PqP4E.s 			page 26


 860              		.type	SPIM_ReadRxData, %function
 861              	SPIM_ReadRxData:
 862              	.LFB13:
 566:Generated_Source\PSoC5/SPIM.c **** 
 567:Generated_Source\PSoC5/SPIM.c **** 
 568:Generated_Source\PSoC5/SPIM.c **** /*******************************************************************************
 569:Generated_Source\PSoC5/SPIM.c **** * Function Name: SPIM_ReadRxData
 570:Generated_Source\PSoC5/SPIM.c **** ********************************************************************************
 571:Generated_Source\PSoC5/SPIM.c **** *
 572:Generated_Source\PSoC5/SPIM.c **** * Summary:
 573:Generated_Source\PSoC5/SPIM.c **** *  Read the next byte of data received across the SPI.
 574:Generated_Source\PSoC5/SPIM.c **** *
 575:Generated_Source\PSoC5/SPIM.c **** * Parameters:
 576:Generated_Source\PSoC5/SPIM.c **** *  None.
 577:Generated_Source\PSoC5/SPIM.c **** *
 578:Generated_Source\PSoC5/SPIM.c **** * Return:
 579:Generated_Source\PSoC5/SPIM.c **** *  The next byte of data read from the FIFO.
 580:Generated_Source\PSoC5/SPIM.c **** *
 581:Generated_Source\PSoC5/SPIM.c **** * Global variables:
 582:Generated_Source\PSoC5/SPIM.c **** *  SPIM_rxBufferWrite - used for the account of the bytes which
 583:Generated_Source\PSoC5/SPIM.c **** *  have been written down in the RX software buffer.
 584:Generated_Source\PSoC5/SPIM.c **** *  SPIM_rxBufferRead - used for the account of the bytes which
 585:Generated_Source\PSoC5/SPIM.c **** *  have been read from the RX software buffer, modified every function
 586:Generated_Source\PSoC5/SPIM.c **** *  call if RX Software Buffer is used.
 587:Generated_Source\PSoC5/SPIM.c **** *  SPIM_rxBuffer[SPIM_RX_BUFFER_SIZE] - used to store
 588:Generated_Source\PSoC5/SPIM.c **** *  received data.
 589:Generated_Source\PSoC5/SPIM.c **** *
 590:Generated_Source\PSoC5/SPIM.c **** * Theory:
 591:Generated_Source\PSoC5/SPIM.c **** *  Allows the user to read a byte of data received.
 592:Generated_Source\PSoC5/SPIM.c **** *
 593:Generated_Source\PSoC5/SPIM.c **** * Side Effects:
 594:Generated_Source\PSoC5/SPIM.c **** *  Will return invalid data if the FIFO is empty. The user should Call
 595:Generated_Source\PSoC5/SPIM.c **** *  GetRxBufferSize() and if it returns a non-zero value then it is safe to call
 596:Generated_Source\PSoC5/SPIM.c **** *  ReadByte() function.
 597:Generated_Source\PSoC5/SPIM.c **** *
 598:Generated_Source\PSoC5/SPIM.c **** * Reentrant:
 599:Generated_Source\PSoC5/SPIM.c **** *  No.
 600:Generated_Source\PSoC5/SPIM.c **** *
 601:Generated_Source\PSoC5/SPIM.c **** *******************************************************************************/
 602:Generated_Source\PSoC5/SPIM.c **** uint8 SPIM_ReadRxData(void) 
 603:Generated_Source\PSoC5/SPIM.c **** {
 863              		.loc 1 603 0
 864              		.cfi_startproc
 865              		@ args = 0, pretend = 0, frame = 8
 866              		@ frame_needed = 1, uses_anonymous_args = 0
 867 0000 80B5     		push	{r7, lr}
 868              		.cfi_def_cfa_offset 8
 869              		.cfi_offset 7, -8
 870              		.cfi_offset 14, -4
 871 0002 82B0     		sub	sp, sp, #8
 872              		.cfi_def_cfa_offset 16
 873 0004 00AF     		add	r7, sp, #0
 874              		.cfi_def_cfa_register 7
 604:Generated_Source\PSoC5/SPIM.c ****     uint8 rxData;
 605:Generated_Source\PSoC5/SPIM.c **** 
 606:Generated_Source\PSoC5/SPIM.c ****     #if(SPIM_RX_SOFTWARE_BUF_ENABLED)
 607:Generated_Source\PSoC5/SPIM.c **** 
ARM GAS  C:\Users\Tomas\AppData\Local\Temp\cc3PqP4E.s 			page 27


 608:Generated_Source\PSoC5/SPIM.c ****         /* Disable RX interrupt to protect global veriables */
 609:Generated_Source\PSoC5/SPIM.c ****         SPIM_DisableRxInt();
 875              		.loc 1 609 0
 876 0006 FFF7FEFF 		bl	SPIM_DisableRxInt
 610:Generated_Source\PSoC5/SPIM.c **** 
 611:Generated_Source\PSoC5/SPIM.c ****         if(SPIM_rxBufferRead != SPIM_rxBufferWrite)
 877              		.loc 1 611 0
 878 000a 174B     		ldr	r3, .L56
 879 000c 1B78     		ldrb	r3, [r3]
 880 000e DAB2     		uxtb	r2, r3
 881 0010 164B     		ldr	r3, .L56+4
 882 0012 1B78     		ldrb	r3, [r3]
 883 0014 DBB2     		uxtb	r3, r3
 884 0016 9A42     		cmp	r2, r3
 885 0018 17D0     		beq	.L52
 612:Generated_Source\PSoC5/SPIM.c ****         {
 613:Generated_Source\PSoC5/SPIM.c ****             if(0u == SPIM_rxBufferFull)
 886              		.loc 1 613 0
 887 001a 154B     		ldr	r3, .L56+8
 888 001c 1B78     		ldrb	r3, [r3]
 889 001e DBB2     		uxtb	r3, r3
 890 0020 002B     		cmp	r3, #0
 891 0022 0FD1     		bne	.L53
 614:Generated_Source\PSoC5/SPIM.c ****             {
 615:Generated_Source\PSoC5/SPIM.c ****                 SPIM_rxBufferRead++;
 892              		.loc 1 615 0
 893 0024 104B     		ldr	r3, .L56
 894 0026 1B78     		ldrb	r3, [r3]
 895 0028 DBB2     		uxtb	r3, r3
 896 002a 0133     		adds	r3, r3, #1
 897 002c DAB2     		uxtb	r2, r3
 898 002e 0E4B     		ldr	r3, .L56
 899 0030 1A70     		strb	r2, [r3]
 616:Generated_Source\PSoC5/SPIM.c ****                 if(SPIM_rxBufferRead >= SPIM_RX_BUFFER_SIZE)
 900              		.loc 1 616 0
 901 0032 0D4B     		ldr	r3, .L56
 902 0034 1B78     		ldrb	r3, [r3]
 903 0036 DBB2     		uxtb	r3, r3
 904 0038 1F2B     		cmp	r3, #31
 905 003a 06D9     		bls	.L52
 617:Generated_Source\PSoC5/SPIM.c ****                 {
 618:Generated_Source\PSoC5/SPIM.c ****                     SPIM_rxBufferRead = 0u;
 906              		.loc 1 618 0
 907 003c 0A4B     		ldr	r3, .L56
 908 003e 0022     		movs	r2, #0
 909 0040 1A70     		strb	r2, [r3]
 910 0042 02E0     		b	.L52
 911              	.L53:
 619:Generated_Source\PSoC5/SPIM.c ****                 }
 620:Generated_Source\PSoC5/SPIM.c ****             }
 621:Generated_Source\PSoC5/SPIM.c ****             else
 622:Generated_Source\PSoC5/SPIM.c ****             {
 623:Generated_Source\PSoC5/SPIM.c ****                 SPIM_rxBufferFull = 0u;
 912              		.loc 1 623 0
 913 0044 0A4B     		ldr	r3, .L56+8
 914 0046 0022     		movs	r2, #0
 915 0048 1A70     		strb	r2, [r3]
ARM GAS  C:\Users\Tomas\AppData\Local\Temp\cc3PqP4E.s 			page 28


 916              	.L52:
 624:Generated_Source\PSoC5/SPIM.c ****             }
 625:Generated_Source\PSoC5/SPIM.c ****         }
 626:Generated_Source\PSoC5/SPIM.c **** 
 627:Generated_Source\PSoC5/SPIM.c ****         rxData = SPIM_rxBuffer[SPIM_rxBufferRead];
 917              		.loc 1 627 0
 918 004a 074B     		ldr	r3, .L56
 919 004c 1B78     		ldrb	r3, [r3]
 920 004e DBB2     		uxtb	r3, r3
 921 0050 1A46     		mov	r2, r3
 922 0052 084B     		ldr	r3, .L56+12
 923 0054 9B5C     		ldrb	r3, [r3, r2]
 924 0056 FB71     		strb	r3, [r7, #7]
 628:Generated_Source\PSoC5/SPIM.c **** 
 629:Generated_Source\PSoC5/SPIM.c ****         SPIM_EnableRxInt();
 925              		.loc 1 629 0
 926 0058 FFF7FEFF 		bl	SPIM_EnableRxInt
 630:Generated_Source\PSoC5/SPIM.c **** 
 631:Generated_Source\PSoC5/SPIM.c ****     #else
 632:Generated_Source\PSoC5/SPIM.c **** 
 633:Generated_Source\PSoC5/SPIM.c ****         rxData = CY_GET_REG8(SPIM_RXDATA_PTR);
 634:Generated_Source\PSoC5/SPIM.c **** 
 635:Generated_Source\PSoC5/SPIM.c ****     #endif /* (SPIM_RX_SOFTWARE_BUF_ENABLED) */
 636:Generated_Source\PSoC5/SPIM.c **** 
 637:Generated_Source\PSoC5/SPIM.c ****     return(rxData);
 927              		.loc 1 637 0
 928 005c FB79     		ldrb	r3, [r7, #7]	@ zero_extendqisi2
 638:Generated_Source\PSoC5/SPIM.c **** }
 929              		.loc 1 638 0
 930 005e 1846     		mov	r0, r3
 931 0060 0837     		adds	r7, r7, #8
 932              		.cfi_def_cfa_offset 8
 933 0062 BD46     		mov	sp, r7
 934              		.cfi_def_cfa_register 13
 935              		@ sp needed
 936 0064 80BD     		pop	{r7, pc}
 937              	.L57:
 938 0066 00BF     		.align	2
 939              	.L56:
 940 0068 00000000 		.word	SPIM_rxBufferRead
 941 006c 00000000 		.word	SPIM_rxBufferWrite
 942 0070 00000000 		.word	SPIM_rxBufferFull
 943 0074 00000000 		.word	SPIM_rxBuffer
 944              		.cfi_endproc
 945              	.LFE13:
 946              		.size	SPIM_ReadRxData, .-SPIM_ReadRxData
 947              		.section	.text.SPIM_GetRxBufferSize,"ax",%progbits
 948              		.align	2
 949              		.global	SPIM_GetRxBufferSize
 950              		.thumb
 951              		.thumb_func
 952              		.type	SPIM_GetRxBufferSize, %function
 953              	SPIM_GetRxBufferSize:
 954              	.LFB14:
 639:Generated_Source\PSoC5/SPIM.c **** 
 640:Generated_Source\PSoC5/SPIM.c **** 
 641:Generated_Source\PSoC5/SPIM.c **** /*******************************************************************************
ARM GAS  C:\Users\Tomas\AppData\Local\Temp\cc3PqP4E.s 			page 29


 642:Generated_Source\PSoC5/SPIM.c **** * Function Name: SPIM_GetRxBufferSize
 643:Generated_Source\PSoC5/SPIM.c **** ********************************************************************************
 644:Generated_Source\PSoC5/SPIM.c **** *
 645:Generated_Source\PSoC5/SPIM.c **** * Summary:
 646:Generated_Source\PSoC5/SPIM.c **** *  Returns the number of bytes/words of data currently held in the RX buffer.
 647:Generated_Source\PSoC5/SPIM.c **** *  If RX Software Buffer not used then function return 0 if FIFO empty or 1 if
 648:Generated_Source\PSoC5/SPIM.c **** *  FIFO not empty. In another case function return size of RX Software Buffer.
 649:Generated_Source\PSoC5/SPIM.c **** *
 650:Generated_Source\PSoC5/SPIM.c **** * Parameters:
 651:Generated_Source\PSoC5/SPIM.c **** *  None.
 652:Generated_Source\PSoC5/SPIM.c **** *
 653:Generated_Source\PSoC5/SPIM.c **** * Return:
 654:Generated_Source\PSoC5/SPIM.c **** *  Integer count of the number of bytes/words in the RX buffer.
 655:Generated_Source\PSoC5/SPIM.c **** *
 656:Generated_Source\PSoC5/SPIM.c **** * Global variables:
 657:Generated_Source\PSoC5/SPIM.c **** *  SPIM_rxBufferWrite - used for the account of the bytes which
 658:Generated_Source\PSoC5/SPIM.c **** *  have been written down in the RX software buffer.
 659:Generated_Source\PSoC5/SPIM.c **** *  SPIM_rxBufferRead - used for the account of the bytes which
 660:Generated_Source\PSoC5/SPIM.c **** *  have been read from the RX software buffer.
 661:Generated_Source\PSoC5/SPIM.c **** *
 662:Generated_Source\PSoC5/SPIM.c **** * Side Effects:
 663:Generated_Source\PSoC5/SPIM.c **** *  Clear status register of the component.
 664:Generated_Source\PSoC5/SPIM.c **** *
 665:Generated_Source\PSoC5/SPIM.c **** *******************************************************************************/
 666:Generated_Source\PSoC5/SPIM.c **** uint8 SPIM_GetRxBufferSize(void) 
 667:Generated_Source\PSoC5/SPIM.c **** {
 955              		.loc 1 667 0
 956              		.cfi_startproc
 957              		@ args = 0, pretend = 0, frame = 8
 958              		@ frame_needed = 1, uses_anonymous_args = 0
 959 0000 80B5     		push	{r7, lr}
 960              		.cfi_def_cfa_offset 8
 961              		.cfi_offset 7, -8
 962              		.cfi_offset 14, -4
 963 0002 82B0     		sub	sp, sp, #8
 964              		.cfi_def_cfa_offset 16
 965 0004 00AF     		add	r7, sp, #0
 966              		.cfi_def_cfa_register 7
 668:Generated_Source\PSoC5/SPIM.c ****     uint8 size;
 669:Generated_Source\PSoC5/SPIM.c **** 
 670:Generated_Source\PSoC5/SPIM.c ****     #if(SPIM_RX_SOFTWARE_BUF_ENABLED)
 671:Generated_Source\PSoC5/SPIM.c **** 
 672:Generated_Source\PSoC5/SPIM.c ****         /* Disable RX interrupt to protect global veriables */
 673:Generated_Source\PSoC5/SPIM.c ****         SPIM_DisableRxInt();
 967              		.loc 1 673 0
 968 0006 FFF7FEFF 		bl	SPIM_DisableRxInt
 674:Generated_Source\PSoC5/SPIM.c **** 
 675:Generated_Source\PSoC5/SPIM.c ****         if(SPIM_rxBufferRead == SPIM_rxBufferWrite)
 969              		.loc 1 675 0
 970 000a 164B     		ldr	r3, .L63
 971 000c 1B78     		ldrb	r3, [r3]
 972 000e DAB2     		uxtb	r2, r3
 973 0010 154B     		ldr	r3, .L63+4
 974 0012 1B78     		ldrb	r3, [r3]
 975 0014 DBB2     		uxtb	r3, r3
 976 0016 9A42     		cmp	r2, r3
 977 0018 02D1     		bne	.L59
ARM GAS  C:\Users\Tomas\AppData\Local\Temp\cc3PqP4E.s 			page 30


 676:Generated_Source\PSoC5/SPIM.c ****         {
 677:Generated_Source\PSoC5/SPIM.c ****             size = 0u;
 978              		.loc 1 677 0
 979 001a 0023     		movs	r3, #0
 980 001c FB71     		strb	r3, [r7, #7]
 981 001e 1AE0     		b	.L60
 982              	.L59:
 678:Generated_Source\PSoC5/SPIM.c ****         }
 679:Generated_Source\PSoC5/SPIM.c ****         else if(SPIM_rxBufferRead < SPIM_rxBufferWrite)
 983              		.loc 1 679 0
 984 0020 104B     		ldr	r3, .L63
 985 0022 1B78     		ldrb	r3, [r3]
 986 0024 DAB2     		uxtb	r2, r3
 987 0026 104B     		ldr	r3, .L63+4
 988 0028 1B78     		ldrb	r3, [r3]
 989 002a DBB2     		uxtb	r3, r3
 990 002c 9A42     		cmp	r2, r3
 991 002e 08D2     		bcs	.L61
 680:Generated_Source\PSoC5/SPIM.c ****         {
 681:Generated_Source\PSoC5/SPIM.c ****             size = (SPIM_rxBufferWrite - SPIM_rxBufferRead);
 992              		.loc 1 681 0
 993 0030 0D4B     		ldr	r3, .L63+4
 994 0032 1B78     		ldrb	r3, [r3]
 995 0034 DAB2     		uxtb	r2, r3
 996 0036 0B4B     		ldr	r3, .L63
 997 0038 1B78     		ldrb	r3, [r3]
 998 003a DBB2     		uxtb	r3, r3
 999 003c D31A     		subs	r3, r2, r3
 1000 003e FB71     		strb	r3, [r7, #7]
 1001 0040 09E0     		b	.L60
 1002              	.L61:
 682:Generated_Source\PSoC5/SPIM.c ****         }
 683:Generated_Source\PSoC5/SPIM.c ****         else
 684:Generated_Source\PSoC5/SPIM.c ****         {
 685:Generated_Source\PSoC5/SPIM.c ****             size = (SPIM_RX_BUFFER_SIZE - SPIM_rxBufferRead) + SPIM_rxBufferWrite;
 1003              		.loc 1 685 0
 1004 0042 094B     		ldr	r3, .L63+4
 1005 0044 1B78     		ldrb	r3, [r3]
 1006 0046 DAB2     		uxtb	r2, r3
 1007 0048 064B     		ldr	r3, .L63
 1008 004a 1B78     		ldrb	r3, [r3]
 1009 004c DBB2     		uxtb	r3, r3
 1010 004e D31A     		subs	r3, r2, r3
 1011 0050 DBB2     		uxtb	r3, r3
 1012 0052 2033     		adds	r3, r3, #32
 1013 0054 FB71     		strb	r3, [r7, #7]
 1014              	.L60:
 686:Generated_Source\PSoC5/SPIM.c ****         }
 687:Generated_Source\PSoC5/SPIM.c **** 
 688:Generated_Source\PSoC5/SPIM.c ****         SPIM_EnableRxInt();
 1015              		.loc 1 688 0
 1016 0056 FFF7FEFF 		bl	SPIM_EnableRxInt
 689:Generated_Source\PSoC5/SPIM.c **** 
 690:Generated_Source\PSoC5/SPIM.c ****     #else
 691:Generated_Source\PSoC5/SPIM.c **** 
 692:Generated_Source\PSoC5/SPIM.c ****         /* We can only know if there is data in the RX FIFO */
 693:Generated_Source\PSoC5/SPIM.c ****         size = (0u != (SPIM_RX_STATUS_REG & SPIM_STS_RX_FIFO_NOT_EMPTY)) ? 1u : 0u;
ARM GAS  C:\Users\Tomas\AppData\Local\Temp\cc3PqP4E.s 			page 31


 694:Generated_Source\PSoC5/SPIM.c **** 
 695:Generated_Source\PSoC5/SPIM.c ****     #endif /* (SPIM_TX_SOFTWARE_BUF_ENABLED) */
 696:Generated_Source\PSoC5/SPIM.c **** 
 697:Generated_Source\PSoC5/SPIM.c ****     return(size);
 1017              		.loc 1 697 0
 1018 005a FB79     		ldrb	r3, [r7, #7]	@ zero_extendqisi2
 698:Generated_Source\PSoC5/SPIM.c **** }
 1019              		.loc 1 698 0
 1020 005c 1846     		mov	r0, r3
 1021 005e 0837     		adds	r7, r7, #8
 1022              		.cfi_def_cfa_offset 8
 1023 0060 BD46     		mov	sp, r7
 1024              		.cfi_def_cfa_register 13
 1025              		@ sp needed
 1026 0062 80BD     		pop	{r7, pc}
 1027              	.L64:
 1028              		.align	2
 1029              	.L63:
 1030 0064 00000000 		.word	SPIM_rxBufferRead
 1031 0068 00000000 		.word	SPIM_rxBufferWrite
 1032              		.cfi_endproc
 1033              	.LFE14:
 1034              		.size	SPIM_GetRxBufferSize, .-SPIM_GetRxBufferSize
 1035              		.section	.text.SPIM_GetTxBufferSize,"ax",%progbits
 1036              		.align	2
 1037              		.global	SPIM_GetTxBufferSize
 1038              		.thumb
 1039              		.thumb_func
 1040              		.type	SPIM_GetTxBufferSize, %function
 1041              	SPIM_GetTxBufferSize:
 1042              	.LFB15:
 699:Generated_Source\PSoC5/SPIM.c **** 
 700:Generated_Source\PSoC5/SPIM.c **** 
 701:Generated_Source\PSoC5/SPIM.c **** /*******************************************************************************
 702:Generated_Source\PSoC5/SPIM.c **** * Function Name: SPIM_GetTxBufferSize
 703:Generated_Source\PSoC5/SPIM.c **** ********************************************************************************
 704:Generated_Source\PSoC5/SPIM.c **** *
 705:Generated_Source\PSoC5/SPIM.c **** * Summary:
 706:Generated_Source\PSoC5/SPIM.c **** *  Returns the number of bytes/words of data currently held in the TX buffer.
 707:Generated_Source\PSoC5/SPIM.c **** *  If TX Software Buffer not used then function return 0 - if FIFO empty, 1 - if
 708:Generated_Source\PSoC5/SPIM.c **** *  FIFO not full, 4 - if FIFO full. In another case function return size of TX
 709:Generated_Source\PSoC5/SPIM.c **** *  Software Buffer.
 710:Generated_Source\PSoC5/SPIM.c **** *
 711:Generated_Source\PSoC5/SPIM.c **** * Parameters:
 712:Generated_Source\PSoC5/SPIM.c **** *  None.
 713:Generated_Source\PSoC5/SPIM.c **** *
 714:Generated_Source\PSoC5/SPIM.c **** * Return:
 715:Generated_Source\PSoC5/SPIM.c **** *  Integer count of the number of bytes/words in the TX buffer.
 716:Generated_Source\PSoC5/SPIM.c **** *
 717:Generated_Source\PSoC5/SPIM.c **** * Global variables:
 718:Generated_Source\PSoC5/SPIM.c **** *  SPIM_txBufferWrite - used for the account of the bytes which
 719:Generated_Source\PSoC5/SPIM.c **** *  have been written down in the TX software buffer.
 720:Generated_Source\PSoC5/SPIM.c **** *  SPIM_txBufferRead - used for the account of the bytes which
 721:Generated_Source\PSoC5/SPIM.c **** *  have been read from the TX software buffer.
 722:Generated_Source\PSoC5/SPIM.c **** *
 723:Generated_Source\PSoC5/SPIM.c **** * Side Effects:
 724:Generated_Source\PSoC5/SPIM.c **** *  Clear status register of the component.
ARM GAS  C:\Users\Tomas\AppData\Local\Temp\cc3PqP4E.s 			page 32


 725:Generated_Source\PSoC5/SPIM.c **** *
 726:Generated_Source\PSoC5/SPIM.c **** *******************************************************************************/
 727:Generated_Source\PSoC5/SPIM.c **** uint8  SPIM_GetTxBufferSize(void) 
 728:Generated_Source\PSoC5/SPIM.c **** {
 1043              		.loc 1 728 0
 1044              		.cfi_startproc
 1045              		@ args = 0, pretend = 0, frame = 8
 1046              		@ frame_needed = 1, uses_anonymous_args = 0
 1047 0000 80B5     		push	{r7, lr}
 1048              		.cfi_def_cfa_offset 8
 1049              		.cfi_offset 7, -8
 1050              		.cfi_offset 14, -4
 1051 0002 82B0     		sub	sp, sp, #8
 1052              		.cfi_def_cfa_offset 16
 1053 0004 00AF     		add	r7, sp, #0
 1054              		.cfi_def_cfa_register 7
 729:Generated_Source\PSoC5/SPIM.c ****     uint8 size;
 730:Generated_Source\PSoC5/SPIM.c **** 
 731:Generated_Source\PSoC5/SPIM.c ****     #if(SPIM_TX_SOFTWARE_BUF_ENABLED)
 732:Generated_Source\PSoC5/SPIM.c ****         /* Disable TX interrupt to protect global veriables */
 733:Generated_Source\PSoC5/SPIM.c ****         SPIM_DisableTxInt();
 1055              		.loc 1 733 0
 1056 0006 FFF7FEFF 		bl	SPIM_DisableTxInt
 734:Generated_Source\PSoC5/SPIM.c **** 
 735:Generated_Source\PSoC5/SPIM.c ****         if(SPIM_txBufferRead == SPIM_txBufferWrite)
 1057              		.loc 1 735 0
 1058 000a 164B     		ldr	r3, .L70
 1059 000c 1B78     		ldrb	r3, [r3]
 1060 000e DAB2     		uxtb	r2, r3
 1061 0010 154B     		ldr	r3, .L70+4
 1062 0012 1B78     		ldrb	r3, [r3]
 1063 0014 DBB2     		uxtb	r3, r3
 1064 0016 9A42     		cmp	r2, r3
 1065 0018 02D1     		bne	.L66
 736:Generated_Source\PSoC5/SPIM.c ****         {
 737:Generated_Source\PSoC5/SPIM.c ****             size = 0u;
 1066              		.loc 1 737 0
 1067 001a 0023     		movs	r3, #0
 1068 001c FB71     		strb	r3, [r7, #7]
 1069 001e 1AE0     		b	.L67
 1070              	.L66:
 738:Generated_Source\PSoC5/SPIM.c ****         }
 739:Generated_Source\PSoC5/SPIM.c ****         else if(SPIM_txBufferRead < SPIM_txBufferWrite)
 1071              		.loc 1 739 0
 1072 0020 104B     		ldr	r3, .L70
 1073 0022 1B78     		ldrb	r3, [r3]
 1074 0024 DAB2     		uxtb	r2, r3
 1075 0026 104B     		ldr	r3, .L70+4
 1076 0028 1B78     		ldrb	r3, [r3]
 1077 002a DBB2     		uxtb	r3, r3
 1078 002c 9A42     		cmp	r2, r3
 1079 002e 08D2     		bcs	.L68
 740:Generated_Source\PSoC5/SPIM.c ****         {
 741:Generated_Source\PSoC5/SPIM.c ****             size = (SPIM_txBufferWrite - SPIM_txBufferRead);
 1080              		.loc 1 741 0
 1081 0030 0D4B     		ldr	r3, .L70+4
 1082 0032 1B78     		ldrb	r3, [r3]
ARM GAS  C:\Users\Tomas\AppData\Local\Temp\cc3PqP4E.s 			page 33


 1083 0034 DAB2     		uxtb	r2, r3
 1084 0036 0B4B     		ldr	r3, .L70
 1085 0038 1B78     		ldrb	r3, [r3]
 1086 003a DBB2     		uxtb	r3, r3
 1087 003c D31A     		subs	r3, r2, r3
 1088 003e FB71     		strb	r3, [r7, #7]
 1089 0040 09E0     		b	.L67
 1090              	.L68:
 742:Generated_Source\PSoC5/SPIM.c ****         }
 743:Generated_Source\PSoC5/SPIM.c ****         else
 744:Generated_Source\PSoC5/SPIM.c ****         {
 745:Generated_Source\PSoC5/SPIM.c ****             size = (SPIM_TX_BUFFER_SIZE - SPIM_txBufferRead) + SPIM_txBufferWrite;
 1091              		.loc 1 745 0
 1092 0042 094B     		ldr	r3, .L70+4
 1093 0044 1B78     		ldrb	r3, [r3]
 1094 0046 DAB2     		uxtb	r2, r3
 1095 0048 064B     		ldr	r3, .L70
 1096 004a 1B78     		ldrb	r3, [r3]
 1097 004c DBB2     		uxtb	r3, r3
 1098 004e D31A     		subs	r3, r2, r3
 1099 0050 DBB2     		uxtb	r3, r3
 1100 0052 2033     		adds	r3, r3, #32
 1101 0054 FB71     		strb	r3, [r7, #7]
 1102              	.L67:
 746:Generated_Source\PSoC5/SPIM.c ****         }
 747:Generated_Source\PSoC5/SPIM.c **** 
 748:Generated_Source\PSoC5/SPIM.c ****         SPIM_EnableTxInt();
 1103              		.loc 1 748 0
 1104 0056 FFF7FEFF 		bl	SPIM_EnableTxInt
 749:Generated_Source\PSoC5/SPIM.c **** 
 750:Generated_Source\PSoC5/SPIM.c ****     #else
 751:Generated_Source\PSoC5/SPIM.c **** 
 752:Generated_Source\PSoC5/SPIM.c ****         size = SPIM_TX_STATUS_REG;
 753:Generated_Source\PSoC5/SPIM.c **** 
 754:Generated_Source\PSoC5/SPIM.c ****         if(0u != (size & SPIM_STS_TX_FIFO_EMPTY))
 755:Generated_Source\PSoC5/SPIM.c ****         {
 756:Generated_Source\PSoC5/SPIM.c ****             size = 0u;
 757:Generated_Source\PSoC5/SPIM.c ****         }
 758:Generated_Source\PSoC5/SPIM.c ****         else if(0u != (size & SPIM_STS_TX_FIFO_NOT_FULL))
 759:Generated_Source\PSoC5/SPIM.c ****         {
 760:Generated_Source\PSoC5/SPIM.c ****             size = 1u;
 761:Generated_Source\PSoC5/SPIM.c ****         }
 762:Generated_Source\PSoC5/SPIM.c ****         else
 763:Generated_Source\PSoC5/SPIM.c ****         {
 764:Generated_Source\PSoC5/SPIM.c ****             size = SPIM_FIFO_SIZE;
 765:Generated_Source\PSoC5/SPIM.c ****         }
 766:Generated_Source\PSoC5/SPIM.c **** 
 767:Generated_Source\PSoC5/SPIM.c ****     #endif /* (SPIM_TX_SOFTWARE_BUF_ENABLED) */
 768:Generated_Source\PSoC5/SPIM.c **** 
 769:Generated_Source\PSoC5/SPIM.c ****     return(size);
 1105              		.loc 1 769 0
 1106 005a FB79     		ldrb	r3, [r7, #7]	@ zero_extendqisi2
 770:Generated_Source\PSoC5/SPIM.c **** }
 1107              		.loc 1 770 0
 1108 005c 1846     		mov	r0, r3
 1109 005e 0837     		adds	r7, r7, #8
 1110              		.cfi_def_cfa_offset 8
ARM GAS  C:\Users\Tomas\AppData\Local\Temp\cc3PqP4E.s 			page 34


 1111 0060 BD46     		mov	sp, r7
 1112              		.cfi_def_cfa_register 13
 1113              		@ sp needed
 1114 0062 80BD     		pop	{r7, pc}
 1115              	.L71:
 1116              		.align	2
 1117              	.L70:
 1118 0064 00000000 		.word	SPIM_txBufferRead
 1119 0068 00000000 		.word	SPIM_txBufferWrite
 1120              		.cfi_endproc
 1121              	.LFE15:
 1122              		.size	SPIM_GetTxBufferSize, .-SPIM_GetTxBufferSize
 1123              		.section	.text.SPIM_ClearRxBuffer,"ax",%progbits
 1124              		.align	2
 1125              		.global	SPIM_ClearRxBuffer
 1126              		.thumb
 1127              		.thumb_func
 1128              		.type	SPIM_ClearRxBuffer, %function
 1129              	SPIM_ClearRxBuffer:
 1130              	.LFB16:
 771:Generated_Source\PSoC5/SPIM.c **** 
 772:Generated_Source\PSoC5/SPIM.c **** 
 773:Generated_Source\PSoC5/SPIM.c **** /*******************************************************************************
 774:Generated_Source\PSoC5/SPIM.c **** * Function Name: SPIM_ClearRxBuffer
 775:Generated_Source\PSoC5/SPIM.c **** ********************************************************************************
 776:Generated_Source\PSoC5/SPIM.c **** *
 777:Generated_Source\PSoC5/SPIM.c **** * Summary:
 778:Generated_Source\PSoC5/SPIM.c **** *  Clear the RX RAM buffer by setting the read and write pointers both to zero.
 779:Generated_Source\PSoC5/SPIM.c **** *
 780:Generated_Source\PSoC5/SPIM.c **** * Parameters:
 781:Generated_Source\PSoC5/SPIM.c **** *  None.
 782:Generated_Source\PSoC5/SPIM.c **** *
 783:Generated_Source\PSoC5/SPIM.c **** * Return:
 784:Generated_Source\PSoC5/SPIM.c **** *  None.
 785:Generated_Source\PSoC5/SPIM.c **** *
 786:Generated_Source\PSoC5/SPIM.c **** * Global variables:
 787:Generated_Source\PSoC5/SPIM.c **** *  SPIM_rxBufferWrite - used for the account of the bytes which
 788:Generated_Source\PSoC5/SPIM.c **** *  have been written down in the RX software buffer, modified every function
 789:Generated_Source\PSoC5/SPIM.c **** *  call - resets to zero.
 790:Generated_Source\PSoC5/SPIM.c **** *  SPIM_rxBufferRead - used for the account of the bytes which
 791:Generated_Source\PSoC5/SPIM.c **** *  have been read from the RX software buffer, modified every function call -
 792:Generated_Source\PSoC5/SPIM.c **** *  resets to zero.
 793:Generated_Source\PSoC5/SPIM.c **** *
 794:Generated_Source\PSoC5/SPIM.c **** * Theory:
 795:Generated_Source\PSoC5/SPIM.c **** *  Setting the pointers to zero makes the system believe there is no data to
 796:Generated_Source\PSoC5/SPIM.c **** *  read and writing will resume at address 0 overwriting any data that may have
 797:Generated_Source\PSoC5/SPIM.c **** *  remained in the RAM.
 798:Generated_Source\PSoC5/SPIM.c **** *
 799:Generated_Source\PSoC5/SPIM.c **** * Side Effects:
 800:Generated_Source\PSoC5/SPIM.c **** *  Any received data not read from the RAM buffer will be lost when overwritten.
 801:Generated_Source\PSoC5/SPIM.c **** *
 802:Generated_Source\PSoC5/SPIM.c **** * Reentrant:
 803:Generated_Source\PSoC5/SPIM.c **** *  No.
 804:Generated_Source\PSoC5/SPIM.c **** *
 805:Generated_Source\PSoC5/SPIM.c **** *******************************************************************************/
 806:Generated_Source\PSoC5/SPIM.c **** void SPIM_ClearRxBuffer(void) 
 807:Generated_Source\PSoC5/SPIM.c **** {
ARM GAS  C:\Users\Tomas\AppData\Local\Temp\cc3PqP4E.s 			page 35


 1131              		.loc 1 807 0
 1132              		.cfi_startproc
 1133              		@ args = 0, pretend = 0, frame = 0
 1134              		@ frame_needed = 1, uses_anonymous_args = 0
 1135 0000 80B5     		push	{r7, lr}
 1136              		.cfi_def_cfa_offset 8
 1137              		.cfi_offset 7, -8
 1138              		.cfi_offset 14, -4
 1139 0002 00AF     		add	r7, sp, #0
 1140              		.cfi_def_cfa_register 7
 808:Generated_Source\PSoC5/SPIM.c ****     /* Clear Hardware RX FIFO */
 809:Generated_Source\PSoC5/SPIM.c ****     while(0u !=(SPIM_RX_STATUS_REG & SPIM_STS_RX_FIFO_NOT_EMPTY))
 1141              		.loc 1 809 0
 1142 0004 01E0     		b	.L73
 1143              	.L74:
 810:Generated_Source\PSoC5/SPIM.c ****     {
 811:Generated_Source\PSoC5/SPIM.c ****         (void) CY_GET_REG8(SPIM_RXDATA_PTR);
 1144              		.loc 1 811 0
 1145 0006 0C4B     		ldr	r3, .L75
 1146 0008 1B78     		ldrb	r3, [r3]
 1147              	.L73:
 809:Generated_Source\PSoC5/SPIM.c ****     {
 1148              		.loc 1 809 0
 1149 000a 0C4B     		ldr	r3, .L75+4
 1150 000c 1B78     		ldrb	r3, [r3]
 1151 000e DBB2     		uxtb	r3, r3
 1152 0010 03F02003 		and	r3, r3, #32
 1153 0014 002B     		cmp	r3, #0
 1154 0016 F6D1     		bne	.L74
 812:Generated_Source\PSoC5/SPIM.c ****     }
 813:Generated_Source\PSoC5/SPIM.c **** 
 814:Generated_Source\PSoC5/SPIM.c ****     #if(SPIM_RX_SOFTWARE_BUF_ENABLED)
 815:Generated_Source\PSoC5/SPIM.c ****         /* Disable RX interrupt to protect global veriables */
 816:Generated_Source\PSoC5/SPIM.c ****         SPIM_DisableRxInt();
 1155              		.loc 1 816 0
 1156 0018 FFF7FEFF 		bl	SPIM_DisableRxInt
 817:Generated_Source\PSoC5/SPIM.c **** 
 818:Generated_Source\PSoC5/SPIM.c ****         SPIM_rxBufferFull  = 0u;
 1157              		.loc 1 818 0
 1158 001c 084B     		ldr	r3, .L75+8
 1159 001e 0022     		movs	r2, #0
 1160 0020 1A70     		strb	r2, [r3]
 819:Generated_Source\PSoC5/SPIM.c ****         SPIM_rxBufferRead  = 0u;
 1161              		.loc 1 819 0
 1162 0022 084B     		ldr	r3, .L75+12
 1163 0024 0022     		movs	r2, #0
 1164 0026 1A70     		strb	r2, [r3]
 820:Generated_Source\PSoC5/SPIM.c ****         SPIM_rxBufferWrite = 0u;
 1165              		.loc 1 820 0
 1166 0028 074B     		ldr	r3, .L75+16
 1167 002a 0022     		movs	r2, #0
 1168 002c 1A70     		strb	r2, [r3]
 821:Generated_Source\PSoC5/SPIM.c **** 
 822:Generated_Source\PSoC5/SPIM.c ****         SPIM_EnableRxInt();
 1169              		.loc 1 822 0
 1170 002e FFF7FEFF 		bl	SPIM_EnableRxInt
 823:Generated_Source\PSoC5/SPIM.c ****     #endif /* (SPIM_RX_SOFTWARE_BUF_ENABLED) */
ARM GAS  C:\Users\Tomas\AppData\Local\Temp\cc3PqP4E.s 			page 36


 824:Generated_Source\PSoC5/SPIM.c **** }
 1171              		.loc 1 824 0
 1172 0032 00BF     		nop
 1173 0034 80BD     		pop	{r7, pc}
 1174              	.L76:
 1175 0036 00BF     		.align	2
 1176              	.L75:
 1177 0038 56640040 		.word	1073767510
 1178 003c 66650040 		.word	1073767782
 1179 0040 00000000 		.word	SPIM_rxBufferFull
 1180 0044 00000000 		.word	SPIM_rxBufferRead
 1181 0048 00000000 		.word	SPIM_rxBufferWrite
 1182              		.cfi_endproc
 1183              	.LFE16:
 1184              		.size	SPIM_ClearRxBuffer, .-SPIM_ClearRxBuffer
 1185              		.section	.text.SPIM_ClearTxBuffer,"ax",%progbits
 1186              		.align	2
 1187              		.global	SPIM_ClearTxBuffer
 1188              		.thumb
 1189              		.thumb_func
 1190              		.type	SPIM_ClearTxBuffer, %function
 1191              	SPIM_ClearTxBuffer:
 1192              	.LFB17:
 825:Generated_Source\PSoC5/SPIM.c **** 
 826:Generated_Source\PSoC5/SPIM.c **** 
 827:Generated_Source\PSoC5/SPIM.c **** /*******************************************************************************
 828:Generated_Source\PSoC5/SPIM.c **** * Function Name: SPIM_ClearTxBuffer
 829:Generated_Source\PSoC5/SPIM.c **** ********************************************************************************
 830:Generated_Source\PSoC5/SPIM.c **** *
 831:Generated_Source\PSoC5/SPIM.c **** * Summary:
 832:Generated_Source\PSoC5/SPIM.c **** *  Clear the TX RAM buffer by setting the read and write pointers both to zero.
 833:Generated_Source\PSoC5/SPIM.c **** *
 834:Generated_Source\PSoC5/SPIM.c **** * Parameters:
 835:Generated_Source\PSoC5/SPIM.c **** *  None.
 836:Generated_Source\PSoC5/SPIM.c **** *
 837:Generated_Source\PSoC5/SPIM.c **** * Return:
 838:Generated_Source\PSoC5/SPIM.c **** *  None.
 839:Generated_Source\PSoC5/SPIM.c **** *
 840:Generated_Source\PSoC5/SPIM.c **** * Global variables:
 841:Generated_Source\PSoC5/SPIM.c **** *  SPIM_txBufferWrite - used for the account of the bytes which
 842:Generated_Source\PSoC5/SPIM.c **** *  have been written down in the TX software buffer, modified every function
 843:Generated_Source\PSoC5/SPIM.c **** *  call - resets to zero.
 844:Generated_Source\PSoC5/SPIM.c **** *  SPIM_txBufferRead - used for the account of the bytes which
 845:Generated_Source\PSoC5/SPIM.c **** *  have been read from the TX software buffer, modified every function call -
 846:Generated_Source\PSoC5/SPIM.c **** *  resets to zero.
 847:Generated_Source\PSoC5/SPIM.c **** *
 848:Generated_Source\PSoC5/SPIM.c **** * Theory:
 849:Generated_Source\PSoC5/SPIM.c **** *  Setting the pointers to zero makes the system believe there is no data to
 850:Generated_Source\PSoC5/SPIM.c **** *  read and writing will resume at address 0 overwriting any data that may have
 851:Generated_Source\PSoC5/SPIM.c **** *  remained in the RAM.
 852:Generated_Source\PSoC5/SPIM.c **** *
 853:Generated_Source\PSoC5/SPIM.c **** * Side Effects:
 854:Generated_Source\PSoC5/SPIM.c **** *  Any data not yet transmitted from the RAM buffer will be lost when
 855:Generated_Source\PSoC5/SPIM.c **** *  overwritten.
 856:Generated_Source\PSoC5/SPIM.c **** *
 857:Generated_Source\PSoC5/SPIM.c **** * Reentrant:
 858:Generated_Source\PSoC5/SPIM.c **** *  No.
ARM GAS  C:\Users\Tomas\AppData\Local\Temp\cc3PqP4E.s 			page 37


 859:Generated_Source\PSoC5/SPIM.c **** *
 860:Generated_Source\PSoC5/SPIM.c **** *******************************************************************************/
 861:Generated_Source\PSoC5/SPIM.c **** void SPIM_ClearTxBuffer(void) 
 862:Generated_Source\PSoC5/SPIM.c **** {
 1193              		.loc 1 862 0
 1194              		.cfi_startproc
 1195              		@ args = 0, pretend = 0, frame = 8
 1196              		@ frame_needed = 1, uses_anonymous_args = 0
 1197 0000 80B5     		push	{r7, lr}
 1198              		.cfi_def_cfa_offset 8
 1199              		.cfi_offset 7, -8
 1200              		.cfi_offset 14, -4
 1201 0002 82B0     		sub	sp, sp, #8
 1202              		.cfi_def_cfa_offset 16
 1203 0004 00AF     		add	r7, sp, #0
 1204              		.cfi_def_cfa_register 7
 863:Generated_Source\PSoC5/SPIM.c ****     uint8 enableInterrupts;
 864:Generated_Source\PSoC5/SPIM.c **** 
 865:Generated_Source\PSoC5/SPIM.c ****     enableInterrupts = CyEnterCriticalSection();
 1205              		.loc 1 865 0
 1206 0006 FFF7FEFF 		bl	CyEnterCriticalSection
 1207 000a 0346     		mov	r3, r0
 1208 000c FB71     		strb	r3, [r7, #7]
 866:Generated_Source\PSoC5/SPIM.c ****     /* Clear TX FIFO */
 867:Generated_Source\PSoC5/SPIM.c ****     SPIM_AUX_CONTROL_DP0_REG |= ((uint8)  SPIM_TX_FIFO_CLR);
 1209              		.loc 1 867 0
 1210 000e 164A     		ldr	r2, .L78
 1211 0010 154B     		ldr	r3, .L78
 1212 0012 1B78     		ldrb	r3, [r3]
 1213 0014 DBB2     		uxtb	r3, r3
 1214 0016 43F00103 		orr	r3, r3, #1
 1215 001a DBB2     		uxtb	r3, r3
 1216 001c 1370     		strb	r3, [r2]
 868:Generated_Source\PSoC5/SPIM.c ****     SPIM_AUX_CONTROL_DP0_REG &= ((uint8) ~SPIM_TX_FIFO_CLR);
 1217              		.loc 1 868 0
 1218 001e 124A     		ldr	r2, .L78
 1219 0020 114B     		ldr	r3, .L78
 1220 0022 1B78     		ldrb	r3, [r3]
 1221 0024 DBB2     		uxtb	r3, r3
 1222 0026 23F00103 		bic	r3, r3, #1
 1223 002a DBB2     		uxtb	r3, r3
 1224 002c 1370     		strb	r3, [r2]
 869:Generated_Source\PSoC5/SPIM.c **** 
 870:Generated_Source\PSoC5/SPIM.c ****     #if(SPIM_USE_SECOND_DATAPATH)
 871:Generated_Source\PSoC5/SPIM.c ****         /* Clear TX FIFO for 2nd Datapath */
 872:Generated_Source\PSoC5/SPIM.c ****         SPIM_AUX_CONTROL_DP1_REG |= ((uint8)  SPIM_TX_FIFO_CLR);
 873:Generated_Source\PSoC5/SPIM.c ****         SPIM_AUX_CONTROL_DP1_REG &= ((uint8) ~SPIM_TX_FIFO_CLR);
 874:Generated_Source\PSoC5/SPIM.c ****     #endif /* (SPIM_USE_SECOND_DATAPATH) */
 875:Generated_Source\PSoC5/SPIM.c ****     CyExitCriticalSection(enableInterrupts);
 1225              		.loc 1 875 0
 1226 002e FB79     		ldrb	r3, [r7, #7]	@ zero_extendqisi2
 1227 0030 1846     		mov	r0, r3
 1228 0032 FFF7FEFF 		bl	CyExitCriticalSection
 876:Generated_Source\PSoC5/SPIM.c **** 
 877:Generated_Source\PSoC5/SPIM.c ****     #if(SPIM_TX_SOFTWARE_BUF_ENABLED)
 878:Generated_Source\PSoC5/SPIM.c ****         /* Disable TX interrupt to protect global veriables */
 879:Generated_Source\PSoC5/SPIM.c ****         SPIM_DisableTxInt();
ARM GAS  C:\Users\Tomas\AppData\Local\Temp\cc3PqP4E.s 			page 38


 1229              		.loc 1 879 0
 1230 0036 FFF7FEFF 		bl	SPIM_DisableTxInt
 880:Generated_Source\PSoC5/SPIM.c **** 
 881:Generated_Source\PSoC5/SPIM.c ****         SPIM_txBufferFull  = 0u;
 1231              		.loc 1 881 0
 1232 003a 0C4B     		ldr	r3, .L78+4
 1233 003c 0022     		movs	r2, #0
 1234 003e 1A70     		strb	r2, [r3]
 882:Generated_Source\PSoC5/SPIM.c ****         SPIM_txBufferRead  = 0u;
 1235              		.loc 1 882 0
 1236 0040 0B4B     		ldr	r3, .L78+8
 1237 0042 0022     		movs	r2, #0
 1238 0044 1A70     		strb	r2, [r3]
 883:Generated_Source\PSoC5/SPIM.c ****         SPIM_txBufferWrite = 0u;
 1239              		.loc 1 883 0
 1240 0046 0B4B     		ldr	r3, .L78+12
 1241 0048 0022     		movs	r2, #0
 1242 004a 1A70     		strb	r2, [r3]
 884:Generated_Source\PSoC5/SPIM.c **** 
 885:Generated_Source\PSoC5/SPIM.c ****         /* Buffer is EMPTY: disable TX FIFO NOT FULL interrupt */
 886:Generated_Source\PSoC5/SPIM.c ****         SPIM_TX_STATUS_MASK_REG &= ((uint8) ~SPIM_STS_TX_FIFO_NOT_FULL);
 1243              		.loc 1 886 0
 1244 004c 0A4A     		ldr	r2, .L78+16
 1245 004e 0A4B     		ldr	r3, .L78+16
 1246 0050 1B78     		ldrb	r3, [r3]
 1247 0052 DBB2     		uxtb	r3, r3
 1248 0054 23F00403 		bic	r3, r3, #4
 1249 0058 DBB2     		uxtb	r3, r3
 1250 005a 1370     		strb	r3, [r2]
 887:Generated_Source\PSoC5/SPIM.c **** 
 888:Generated_Source\PSoC5/SPIM.c ****         SPIM_EnableTxInt();
 1251              		.loc 1 888 0
 1252 005c FFF7FEFF 		bl	SPIM_EnableTxInt
 889:Generated_Source\PSoC5/SPIM.c ****     #endif /* (SPIM_TX_SOFTWARE_BUF_ENABLED) */
 890:Generated_Source\PSoC5/SPIM.c **** }
 1253              		.loc 1 890 0
 1254 0060 00BF     		nop
 1255 0062 0837     		adds	r7, r7, #8
 1256              		.cfi_def_cfa_offset 8
 1257 0064 BD46     		mov	sp, r7
 1258              		.cfi_def_cfa_register 13
 1259              		@ sp needed
 1260 0066 80BD     		pop	{r7, pc}
 1261              	.L79:
 1262              		.align	2
 1263              	.L78:
 1264 0068 96640040 		.word	1073767574
 1265 006c 00000000 		.word	SPIM_txBufferFull
 1266 0070 00000000 		.word	SPIM_txBufferRead
 1267 0074 00000000 		.word	SPIM_txBufferWrite
 1268 0078 86640040 		.word	1073767558
 1269              		.cfi_endproc
 1270              	.LFE17:
 1271              		.size	SPIM_ClearTxBuffer, .-SPIM_ClearTxBuffer
 1272              		.section	.text.SPIM_PutArray,"ax",%progbits
 1273              		.align	2
 1274              		.global	SPIM_PutArray
ARM GAS  C:\Users\Tomas\AppData\Local\Temp\cc3PqP4E.s 			page 39


 1275              		.thumb
 1276              		.thumb_func
 1277              		.type	SPIM_PutArray, %function
 1278              	SPIM_PutArray:
 1279              	.LFB18:
 891:Generated_Source\PSoC5/SPIM.c **** 
 892:Generated_Source\PSoC5/SPIM.c **** 
 893:Generated_Source\PSoC5/SPIM.c **** #if(0u != SPIM_BIDIRECTIONAL_MODE)
 894:Generated_Source\PSoC5/SPIM.c ****     /*******************************************************************************
 895:Generated_Source\PSoC5/SPIM.c ****     * Function Name: SPIM_TxEnable
 896:Generated_Source\PSoC5/SPIM.c ****     ********************************************************************************
 897:Generated_Source\PSoC5/SPIM.c ****     *
 898:Generated_Source\PSoC5/SPIM.c ****     * Summary:
 899:Generated_Source\PSoC5/SPIM.c ****     *  If the SPI master is configured to use a single bi-directional pin then this
 900:Generated_Source\PSoC5/SPIM.c ****     *  will set the bi-directional pin to transmit.
 901:Generated_Source\PSoC5/SPIM.c ****     *
 902:Generated_Source\PSoC5/SPIM.c ****     * Parameters:
 903:Generated_Source\PSoC5/SPIM.c ****     *  None.
 904:Generated_Source\PSoC5/SPIM.c ****     *
 905:Generated_Source\PSoC5/SPIM.c ****     * Return:
 906:Generated_Source\PSoC5/SPIM.c ****     *  None.
 907:Generated_Source\PSoC5/SPIM.c ****     *
 908:Generated_Source\PSoC5/SPIM.c ****     *******************************************************************************/
 909:Generated_Source\PSoC5/SPIM.c ****     void SPIM_TxEnable(void) 
 910:Generated_Source\PSoC5/SPIM.c ****     {
 911:Generated_Source\PSoC5/SPIM.c ****         SPIM_CONTROL_REG |= SPIM_CTRL_TX_SIGNAL_EN;
 912:Generated_Source\PSoC5/SPIM.c ****     }
 913:Generated_Source\PSoC5/SPIM.c **** 
 914:Generated_Source\PSoC5/SPIM.c **** 
 915:Generated_Source\PSoC5/SPIM.c ****     /*******************************************************************************
 916:Generated_Source\PSoC5/SPIM.c ****     * Function Name: SPIM_TxDisable
 917:Generated_Source\PSoC5/SPIM.c ****     ********************************************************************************
 918:Generated_Source\PSoC5/SPIM.c ****     *
 919:Generated_Source\PSoC5/SPIM.c ****     * Summary:
 920:Generated_Source\PSoC5/SPIM.c ****     *  If the SPI master is configured to use a single bi-directional pin then this
 921:Generated_Source\PSoC5/SPIM.c ****     *  will set the bi-directional pin to receive.
 922:Generated_Source\PSoC5/SPIM.c ****     *
 923:Generated_Source\PSoC5/SPIM.c ****     * Parameters:
 924:Generated_Source\PSoC5/SPIM.c ****     *  None.
 925:Generated_Source\PSoC5/SPIM.c ****     *
 926:Generated_Source\PSoC5/SPIM.c ****     * Return:
 927:Generated_Source\PSoC5/SPIM.c ****     *  None.
 928:Generated_Source\PSoC5/SPIM.c ****     *
 929:Generated_Source\PSoC5/SPIM.c ****     *******************************************************************************/
 930:Generated_Source\PSoC5/SPIM.c ****     void SPIM_TxDisable(void) 
 931:Generated_Source\PSoC5/SPIM.c ****     {
 932:Generated_Source\PSoC5/SPIM.c ****         SPIM_CONTROL_REG &= ((uint8) ~SPIM_CTRL_TX_SIGNAL_EN);
 933:Generated_Source\PSoC5/SPIM.c ****     }
 934:Generated_Source\PSoC5/SPIM.c **** 
 935:Generated_Source\PSoC5/SPIM.c **** #endif /* (0u != SPIM_BIDIRECTIONAL_MODE) */
 936:Generated_Source\PSoC5/SPIM.c **** 
 937:Generated_Source\PSoC5/SPIM.c **** 
 938:Generated_Source\PSoC5/SPIM.c **** /*******************************************************************************
 939:Generated_Source\PSoC5/SPIM.c **** * Function Name: SPIM_PutArray
 940:Generated_Source\PSoC5/SPIM.c **** ********************************************************************************
 941:Generated_Source\PSoC5/SPIM.c **** *
 942:Generated_Source\PSoC5/SPIM.c **** * Summary:
ARM GAS  C:\Users\Tomas\AppData\Local\Temp\cc3PqP4E.s 			page 40


 943:Generated_Source\PSoC5/SPIM.c **** *  Write available data from ROM/RAM to the TX buffer while space is available
 944:Generated_Source\PSoC5/SPIM.c **** *  in the TX buffer. Keep trying until all data is passed to the TX buffer.
 945:Generated_Source\PSoC5/SPIM.c **** *
 946:Generated_Source\PSoC5/SPIM.c **** * Parameters:
 947:Generated_Source\PSoC5/SPIM.c **** *  *buffer: Pointer to the location in RAM containing the data to send
 948:Generated_Source\PSoC5/SPIM.c **** *  byteCount: The number of bytes to move to the transmit buffer.
 949:Generated_Source\PSoC5/SPIM.c **** *
 950:Generated_Source\PSoC5/SPIM.c **** * Return:
 951:Generated_Source\PSoC5/SPIM.c **** *  None.
 952:Generated_Source\PSoC5/SPIM.c **** *
 953:Generated_Source\PSoC5/SPIM.c **** * Side Effects:
 954:Generated_Source\PSoC5/SPIM.c **** *  Will stay in this routine until all data has been sent.  May get locked in
 955:Generated_Source\PSoC5/SPIM.c **** *  this loop if data is not being initiated by the master if there is not
 956:Generated_Source\PSoC5/SPIM.c **** *  enough room in the TX FIFO.
 957:Generated_Source\PSoC5/SPIM.c **** *
 958:Generated_Source\PSoC5/SPIM.c **** * Reentrant:
 959:Generated_Source\PSoC5/SPIM.c **** *  No.
 960:Generated_Source\PSoC5/SPIM.c **** *
 961:Generated_Source\PSoC5/SPIM.c **** *******************************************************************************/
 962:Generated_Source\PSoC5/SPIM.c **** void SPIM_PutArray(const uint8 buffer[], uint8 byteCount)
 963:Generated_Source\PSoC5/SPIM.c ****                                                                           
 964:Generated_Source\PSoC5/SPIM.c **** {
 1280              		.loc 1 964 0
 1281              		.cfi_startproc
 1282              		@ args = 0, pretend = 0, frame = 16
 1283              		@ frame_needed = 1, uses_anonymous_args = 0
 1284 0000 80B5     		push	{r7, lr}
 1285              		.cfi_def_cfa_offset 8
 1286              		.cfi_offset 7, -8
 1287              		.cfi_offset 14, -4
 1288 0002 84B0     		sub	sp, sp, #16
 1289              		.cfi_def_cfa_offset 24
 1290 0004 00AF     		add	r7, sp, #0
 1291              		.cfi_def_cfa_register 7
 1292 0006 7860     		str	r0, [r7, #4]
 1293 0008 0B46     		mov	r3, r1
 1294 000a FB70     		strb	r3, [r7, #3]
 965:Generated_Source\PSoC5/SPIM.c ****     uint8 bufIndex;
 966:Generated_Source\PSoC5/SPIM.c **** 
 967:Generated_Source\PSoC5/SPIM.c ****     bufIndex = 0u;
 1295              		.loc 1 967 0
 1296 000c 0023     		movs	r3, #0
 1297 000e FB73     		strb	r3, [r7, #15]
 968:Generated_Source\PSoC5/SPIM.c **** 
 969:Generated_Source\PSoC5/SPIM.c ****     while(byteCount > 0u)
 1298              		.loc 1 969 0
 1299 0010 0CE0     		b	.L81
 1300              	.L82:
 970:Generated_Source\PSoC5/SPIM.c ****     {
 971:Generated_Source\PSoC5/SPIM.c ****         SPIM_WriteTxData(buffer[bufIndex]);
 1301              		.loc 1 971 0
 1302 0012 FB7B     		ldrb	r3, [r7, #15]	@ zero_extendqisi2
 1303 0014 7A68     		ldr	r2, [r7, #4]
 1304 0016 1344     		add	r3, r3, r2
 1305 0018 1B78     		ldrb	r3, [r3]	@ zero_extendqisi2
 1306 001a 1846     		mov	r0, r3
 1307 001c FFF7FEFF 		bl	SPIM_WriteTxData
ARM GAS  C:\Users\Tomas\AppData\Local\Temp\cc3PqP4E.s 			page 41


 972:Generated_Source\PSoC5/SPIM.c ****         bufIndex++;
 1308              		.loc 1 972 0
 1309 0020 FB7B     		ldrb	r3, [r7, #15]	@ zero_extendqisi2
 1310 0022 0133     		adds	r3, r3, #1
 1311 0024 FB73     		strb	r3, [r7, #15]
 973:Generated_Source\PSoC5/SPIM.c ****         byteCount--;
 1312              		.loc 1 973 0
 1313 0026 FB78     		ldrb	r3, [r7, #3]	@ zero_extendqisi2
 1314 0028 013B     		subs	r3, r3, #1
 1315 002a FB70     		strb	r3, [r7, #3]
 1316              	.L81:
 969:Generated_Source\PSoC5/SPIM.c ****     {
 1317              		.loc 1 969 0
 1318 002c FB78     		ldrb	r3, [r7, #3]	@ zero_extendqisi2
 1319 002e 002B     		cmp	r3, #0
 1320 0030 EFD1     		bne	.L82
 974:Generated_Source\PSoC5/SPIM.c ****     }
 975:Generated_Source\PSoC5/SPIM.c **** }
 1321              		.loc 1 975 0
 1322 0032 00BF     		nop
 1323 0034 1037     		adds	r7, r7, #16
 1324              		.cfi_def_cfa_offset 8
 1325 0036 BD46     		mov	sp, r7
 1326              		.cfi_def_cfa_register 13
 1327              		@ sp needed
 1328 0038 80BD     		pop	{r7, pc}
 1329              		.cfi_endproc
 1330              	.LFE18:
 1331              		.size	SPIM_PutArray, .-SPIM_PutArray
 1332 003a 00BF     		.section	.text.SPIM_ClearFIFO,"ax",%progbits
 1333              		.align	2
 1334              		.global	SPIM_ClearFIFO
 1335              		.thumb
 1336              		.thumb_func
 1337              		.type	SPIM_ClearFIFO, %function
 1338              	SPIM_ClearFIFO:
 1339              	.LFB19:
 976:Generated_Source\PSoC5/SPIM.c **** 
 977:Generated_Source\PSoC5/SPIM.c **** 
 978:Generated_Source\PSoC5/SPIM.c **** /*******************************************************************************
 979:Generated_Source\PSoC5/SPIM.c **** * Function Name: SPIM_ClearFIFO
 980:Generated_Source\PSoC5/SPIM.c **** ********************************************************************************
 981:Generated_Source\PSoC5/SPIM.c **** *
 982:Generated_Source\PSoC5/SPIM.c **** * Summary:
 983:Generated_Source\PSoC5/SPIM.c **** *  Clear the RX and TX FIFO's of all data for a fresh start.
 984:Generated_Source\PSoC5/SPIM.c **** *
 985:Generated_Source\PSoC5/SPIM.c **** * Parameters:
 986:Generated_Source\PSoC5/SPIM.c **** *  None.
 987:Generated_Source\PSoC5/SPIM.c **** *
 988:Generated_Source\PSoC5/SPIM.c **** * Return:
 989:Generated_Source\PSoC5/SPIM.c **** *  None.
 990:Generated_Source\PSoC5/SPIM.c **** *
 991:Generated_Source\PSoC5/SPIM.c **** * Side Effects:
 992:Generated_Source\PSoC5/SPIM.c **** *  Clear status register of the component.
 993:Generated_Source\PSoC5/SPIM.c **** *
 994:Generated_Source\PSoC5/SPIM.c **** *******************************************************************************/
 995:Generated_Source\PSoC5/SPIM.c **** void SPIM_ClearFIFO(void) 
ARM GAS  C:\Users\Tomas\AppData\Local\Temp\cc3PqP4E.s 			page 42


 996:Generated_Source\PSoC5/SPIM.c **** {
 1340              		.loc 1 996 0
 1341              		.cfi_startproc
 1342              		@ args = 0, pretend = 0, frame = 8
 1343              		@ frame_needed = 1, uses_anonymous_args = 0
 1344 0000 80B5     		push	{r7, lr}
 1345              		.cfi_def_cfa_offset 8
 1346              		.cfi_offset 7, -8
 1347              		.cfi_offset 14, -4
 1348 0002 82B0     		sub	sp, sp, #8
 1349              		.cfi_def_cfa_offset 16
 1350 0004 00AF     		add	r7, sp, #0
 1351              		.cfi_def_cfa_register 7
 997:Generated_Source\PSoC5/SPIM.c ****     uint8 enableInterrupts;
 998:Generated_Source\PSoC5/SPIM.c **** 
 999:Generated_Source\PSoC5/SPIM.c ****     /* Clear Hardware RX FIFO */
1000:Generated_Source\PSoC5/SPIM.c ****     while(0u !=(SPIM_RX_STATUS_REG & SPIM_STS_RX_FIFO_NOT_EMPTY))
 1352              		.loc 1 1000 0
 1353 0006 01E0     		b	.L84
 1354              	.L85:
1001:Generated_Source\PSoC5/SPIM.c ****     {
1002:Generated_Source\PSoC5/SPIM.c ****         (void) CY_GET_REG8(SPIM_RXDATA_PTR);
 1355              		.loc 1 1002 0
 1356 0008 124B     		ldr	r3, .L86
 1357 000a 1B78     		ldrb	r3, [r3]
 1358              	.L84:
1000:Generated_Source\PSoC5/SPIM.c ****     {
 1359              		.loc 1 1000 0
 1360 000c 124B     		ldr	r3, .L86+4
 1361 000e 1B78     		ldrb	r3, [r3]
 1362 0010 DBB2     		uxtb	r3, r3
 1363 0012 03F02003 		and	r3, r3, #32
 1364 0016 002B     		cmp	r3, #0
 1365 0018 F6D1     		bne	.L85
1003:Generated_Source\PSoC5/SPIM.c ****     }
1004:Generated_Source\PSoC5/SPIM.c **** 
1005:Generated_Source\PSoC5/SPIM.c ****     enableInterrupts = CyEnterCriticalSection();
 1366              		.loc 1 1005 0
 1367 001a FFF7FEFF 		bl	CyEnterCriticalSection
 1368 001e 0346     		mov	r3, r0
 1369 0020 FB71     		strb	r3, [r7, #7]
1006:Generated_Source\PSoC5/SPIM.c ****     /* Clear TX FIFO */
1007:Generated_Source\PSoC5/SPIM.c ****     SPIM_AUX_CONTROL_DP0_REG |= ((uint8)  SPIM_TX_FIFO_CLR);
 1370              		.loc 1 1007 0
 1371 0022 0E4A     		ldr	r2, .L86+8
 1372 0024 0D4B     		ldr	r3, .L86+8
 1373 0026 1B78     		ldrb	r3, [r3]
 1374 0028 DBB2     		uxtb	r3, r3
 1375 002a 43F00103 		orr	r3, r3, #1
 1376 002e DBB2     		uxtb	r3, r3
 1377 0030 1370     		strb	r3, [r2]
1008:Generated_Source\PSoC5/SPIM.c ****     SPIM_AUX_CONTROL_DP0_REG &= ((uint8) ~SPIM_TX_FIFO_CLR);
 1378              		.loc 1 1008 0
 1379 0032 0A4A     		ldr	r2, .L86+8
 1380 0034 094B     		ldr	r3, .L86+8
 1381 0036 1B78     		ldrb	r3, [r3]
 1382 0038 DBB2     		uxtb	r3, r3
ARM GAS  C:\Users\Tomas\AppData\Local\Temp\cc3PqP4E.s 			page 43


 1383 003a 23F00103 		bic	r3, r3, #1
 1384 003e DBB2     		uxtb	r3, r3
 1385 0040 1370     		strb	r3, [r2]
1009:Generated_Source\PSoC5/SPIM.c **** 
1010:Generated_Source\PSoC5/SPIM.c ****     #if(SPIM_USE_SECOND_DATAPATH)
1011:Generated_Source\PSoC5/SPIM.c ****         /* Clear TX FIFO for 2nd Datapath */
1012:Generated_Source\PSoC5/SPIM.c ****         SPIM_AUX_CONTROL_DP1_REG |= ((uint8)  SPIM_TX_FIFO_CLR);
1013:Generated_Source\PSoC5/SPIM.c ****         SPIM_AUX_CONTROL_DP1_REG &= ((uint8) ~SPIM_TX_FIFO_CLR);
1014:Generated_Source\PSoC5/SPIM.c ****     #endif /* (SPIM_USE_SECOND_DATAPATH) */
1015:Generated_Source\PSoC5/SPIM.c ****     CyExitCriticalSection(enableInterrupts);
 1386              		.loc 1 1015 0
 1387 0042 FB79     		ldrb	r3, [r7, #7]	@ zero_extendqisi2
 1388 0044 1846     		mov	r0, r3
 1389 0046 FFF7FEFF 		bl	CyExitCriticalSection
1016:Generated_Source\PSoC5/SPIM.c **** }
 1390              		.loc 1 1016 0
 1391 004a 00BF     		nop
 1392 004c 0837     		adds	r7, r7, #8
 1393              		.cfi_def_cfa_offset 8
 1394 004e BD46     		mov	sp, r7
 1395              		.cfi_def_cfa_register 13
 1396              		@ sp needed
 1397 0050 80BD     		pop	{r7, pc}
 1398              	.L87:
 1399 0052 00BF     		.align	2
 1400              	.L86:
 1401 0054 56640040 		.word	1073767510
 1402 0058 66650040 		.word	1073767782
 1403 005c 96640040 		.word	1073767574
 1404              		.cfi_endproc
 1405              	.LFE19:
 1406              		.size	SPIM_ClearFIFO, .-SPIM_ClearFIFO
 1407              		.section	.text.SPIM_EnableInt,"ax",%progbits
 1408              		.align	2
 1409              		.global	SPIM_EnableInt
 1410              		.thumb
 1411              		.thumb_func
 1412              		.type	SPIM_EnableInt, %function
 1413              	SPIM_EnableInt:
 1414              	.LFB20:
1017:Generated_Source\PSoC5/SPIM.c **** 
1018:Generated_Source\PSoC5/SPIM.c **** 
1019:Generated_Source\PSoC5/SPIM.c **** /* Following functions are for version Compatibility, they are obsolete.
1020:Generated_Source\PSoC5/SPIM.c **** *  Please do not use it in new projects.
1021:Generated_Source\PSoC5/SPIM.c **** */
1022:Generated_Source\PSoC5/SPIM.c **** 
1023:Generated_Source\PSoC5/SPIM.c **** 
1024:Generated_Source\PSoC5/SPIM.c **** /*******************************************************************************
1025:Generated_Source\PSoC5/SPIM.c **** * Function Name: SPIM_EnableInt
1026:Generated_Source\PSoC5/SPIM.c **** ********************************************************************************
1027:Generated_Source\PSoC5/SPIM.c **** *
1028:Generated_Source\PSoC5/SPIM.c **** * Summary:
1029:Generated_Source\PSoC5/SPIM.c **** *  Enable internal interrupt generation.
1030:Generated_Source\PSoC5/SPIM.c **** *
1031:Generated_Source\PSoC5/SPIM.c **** * Parameters:
1032:Generated_Source\PSoC5/SPIM.c **** *  None.
1033:Generated_Source\PSoC5/SPIM.c **** *
ARM GAS  C:\Users\Tomas\AppData\Local\Temp\cc3PqP4E.s 			page 44


1034:Generated_Source\PSoC5/SPIM.c **** * Return:
1035:Generated_Source\PSoC5/SPIM.c **** *  None.
1036:Generated_Source\PSoC5/SPIM.c **** *
1037:Generated_Source\PSoC5/SPIM.c **** * Theory:
1038:Generated_Source\PSoC5/SPIM.c **** *  Enable the internal interrupt output -or- the interrupt component itself.
1039:Generated_Source\PSoC5/SPIM.c **** *
1040:Generated_Source\PSoC5/SPIM.c **** *******************************************************************************/
1041:Generated_Source\PSoC5/SPIM.c **** void SPIM_EnableInt(void) 
1042:Generated_Source\PSoC5/SPIM.c **** {
 1415              		.loc 1 1042 0
 1416              		.cfi_startproc
 1417              		@ args = 0, pretend = 0, frame = 0
 1418              		@ frame_needed = 1, uses_anonymous_args = 0
 1419 0000 80B5     		push	{r7, lr}
 1420              		.cfi_def_cfa_offset 8
 1421              		.cfi_offset 7, -8
 1422              		.cfi_offset 14, -4
 1423 0002 00AF     		add	r7, sp, #0
 1424              		.cfi_def_cfa_register 7
1043:Generated_Source\PSoC5/SPIM.c ****     SPIM_EnableRxInt();
 1425              		.loc 1 1043 0
 1426 0004 FFF7FEFF 		bl	SPIM_EnableRxInt
1044:Generated_Source\PSoC5/SPIM.c ****     SPIM_EnableTxInt();
 1427              		.loc 1 1044 0
 1428 0008 FFF7FEFF 		bl	SPIM_EnableTxInt
1045:Generated_Source\PSoC5/SPIM.c **** }
 1429              		.loc 1 1045 0
 1430 000c 00BF     		nop
 1431 000e 80BD     		pop	{r7, pc}
 1432              		.cfi_endproc
 1433              	.LFE20:
 1434              		.size	SPIM_EnableInt, .-SPIM_EnableInt
 1435              		.section	.text.SPIM_DisableInt,"ax",%progbits
 1436              		.align	2
 1437              		.global	SPIM_DisableInt
 1438              		.thumb
 1439              		.thumb_func
 1440              		.type	SPIM_DisableInt, %function
 1441              	SPIM_DisableInt:
 1442              	.LFB21:
1046:Generated_Source\PSoC5/SPIM.c **** 
1047:Generated_Source\PSoC5/SPIM.c **** 
1048:Generated_Source\PSoC5/SPIM.c **** /*******************************************************************************
1049:Generated_Source\PSoC5/SPIM.c **** * Function Name: SPIM_DisableInt
1050:Generated_Source\PSoC5/SPIM.c **** ********************************************************************************
1051:Generated_Source\PSoC5/SPIM.c **** *
1052:Generated_Source\PSoC5/SPIM.c **** * Summary:
1053:Generated_Source\PSoC5/SPIM.c **** *  Disable internal interrupt generation.
1054:Generated_Source\PSoC5/SPIM.c **** *
1055:Generated_Source\PSoC5/SPIM.c **** * Parameters:
1056:Generated_Source\PSoC5/SPIM.c **** *  None.
1057:Generated_Source\PSoC5/SPIM.c **** *
1058:Generated_Source\PSoC5/SPIM.c **** * Return:
1059:Generated_Source\PSoC5/SPIM.c **** *  None.
1060:Generated_Source\PSoC5/SPIM.c **** *
1061:Generated_Source\PSoC5/SPIM.c **** * Theory:
1062:Generated_Source\PSoC5/SPIM.c **** *  Disable the internal interrupt output -or- the interrupt component itself.
ARM GAS  C:\Users\Tomas\AppData\Local\Temp\cc3PqP4E.s 			page 45


1063:Generated_Source\PSoC5/SPIM.c **** *
1064:Generated_Source\PSoC5/SPIM.c **** *******************************************************************************/
1065:Generated_Source\PSoC5/SPIM.c **** void SPIM_DisableInt(void) 
1066:Generated_Source\PSoC5/SPIM.c **** {
 1443              		.loc 1 1066 0
 1444              		.cfi_startproc
 1445              		@ args = 0, pretend = 0, frame = 0
 1446              		@ frame_needed = 1, uses_anonymous_args = 0
 1447 0000 80B5     		push	{r7, lr}
 1448              		.cfi_def_cfa_offset 8
 1449              		.cfi_offset 7, -8
 1450              		.cfi_offset 14, -4
 1451 0002 00AF     		add	r7, sp, #0
 1452              		.cfi_def_cfa_register 7
1067:Generated_Source\PSoC5/SPIM.c ****     SPIM_DisableTxInt();
 1453              		.loc 1 1067 0
 1454 0004 FFF7FEFF 		bl	SPIM_DisableTxInt
1068:Generated_Source\PSoC5/SPIM.c ****     SPIM_DisableRxInt();
 1455              		.loc 1 1068 0
 1456 0008 FFF7FEFF 		bl	SPIM_DisableRxInt
1069:Generated_Source\PSoC5/SPIM.c **** }
 1457              		.loc 1 1069 0
 1458 000c 00BF     		nop
 1459 000e 80BD     		pop	{r7, pc}
 1460              		.cfi_endproc
 1461              	.LFE21:
 1462              		.size	SPIM_DisableInt, .-SPIM_DisableInt
 1463              		.section	.text.SPIM_SetInterruptMode,"ax",%progbits
 1464              		.align	2
 1465              		.global	SPIM_SetInterruptMode
 1466              		.thumb
 1467              		.thumb_func
 1468              		.type	SPIM_SetInterruptMode, %function
 1469              	SPIM_SetInterruptMode:
 1470              	.LFB22:
1070:Generated_Source\PSoC5/SPIM.c **** 
1071:Generated_Source\PSoC5/SPIM.c **** 
1072:Generated_Source\PSoC5/SPIM.c **** /*******************************************************************************
1073:Generated_Source\PSoC5/SPIM.c **** * Function Name: SPIM_SetInterruptMode
1074:Generated_Source\PSoC5/SPIM.c **** ********************************************************************************
1075:Generated_Source\PSoC5/SPIM.c **** *
1076:Generated_Source\PSoC5/SPIM.c **** * Summary:
1077:Generated_Source\PSoC5/SPIM.c **** *  Configure which status bits trigger an interrupt event.
1078:Generated_Source\PSoC5/SPIM.c **** *
1079:Generated_Source\PSoC5/SPIM.c **** * Parameters:
1080:Generated_Source\PSoC5/SPIM.c **** *  intSrc: An or'd combination of the desired status bit masks (defined in the
1081:Generated_Source\PSoC5/SPIM.c **** *  header file).
1082:Generated_Source\PSoC5/SPIM.c **** *
1083:Generated_Source\PSoC5/SPIM.c **** * Return:
1084:Generated_Source\PSoC5/SPIM.c **** *  None.
1085:Generated_Source\PSoC5/SPIM.c **** *
1086:Generated_Source\PSoC5/SPIM.c **** * Theory:
1087:Generated_Source\PSoC5/SPIM.c **** *  Enables the output of specific status bits to the interrupt controller.
1088:Generated_Source\PSoC5/SPIM.c **** *
1089:Generated_Source\PSoC5/SPIM.c **** *******************************************************************************/
1090:Generated_Source\PSoC5/SPIM.c **** void SPIM_SetInterruptMode(uint8 intSrc) 
1091:Generated_Source\PSoC5/SPIM.c **** {
ARM GAS  C:\Users\Tomas\AppData\Local\Temp\cc3PqP4E.s 			page 46


 1471              		.loc 1 1091 0
 1472              		.cfi_startproc
 1473              		@ args = 0, pretend = 0, frame = 8
 1474              		@ frame_needed = 1, uses_anonymous_args = 0
 1475              		@ link register save eliminated.
 1476 0000 80B4     		push	{r7}
 1477              		.cfi_def_cfa_offset 4
 1478              		.cfi_offset 7, -4
 1479 0002 83B0     		sub	sp, sp, #12
 1480              		.cfi_def_cfa_offset 16
 1481 0004 00AF     		add	r7, sp, #0
 1482              		.cfi_def_cfa_register 7
 1483 0006 0346     		mov	r3, r0
 1484 0008 FB71     		strb	r3, [r7, #7]
1092:Generated_Source\PSoC5/SPIM.c ****     SPIM_TX_STATUS_MASK_REG  = (intSrc & ((uint8) ~SPIM_STS_SPI_IDLE));
 1485              		.loc 1 1092 0
 1486 000a 074A     		ldr	r2, .L91
 1487 000c FB79     		ldrb	r3, [r7, #7]
 1488 000e 23F01003 		bic	r3, r3, #16
 1489 0012 DBB2     		uxtb	r3, r3
 1490 0014 1370     		strb	r3, [r2]
1093:Generated_Source\PSoC5/SPIM.c ****     SPIM_RX_STATUS_MASK_REG  =  intSrc;
 1491              		.loc 1 1093 0
 1492 0016 054A     		ldr	r2, .L91+4
 1493 0018 FB79     		ldrb	r3, [r7, #7]
 1494 001a 1370     		strb	r3, [r2]
1094:Generated_Source\PSoC5/SPIM.c **** }
 1495              		.loc 1 1094 0
 1496 001c 00BF     		nop
 1497 001e 0C37     		adds	r7, r7, #12
 1498              		.cfi_def_cfa_offset 4
 1499 0020 BD46     		mov	sp, r7
 1500              		.cfi_def_cfa_register 13
 1501              		@ sp needed
 1502 0022 80BC     		pop	{r7}
 1503              		.cfi_restore 7
 1504              		.cfi_def_cfa_offset 0
 1505 0024 7047     		bx	lr
 1506              	.L92:
 1507 0026 00BF     		.align	2
 1508              	.L91:
 1509 0028 86640040 		.word	1073767558
 1510 002c 86650040 		.word	1073767814
 1511              		.cfi_endproc
 1512              	.LFE22:
 1513              		.size	SPIM_SetInterruptMode, .-SPIM_SetInterruptMode
 1514              		.section	.text.SPIM_ReadStatus,"ax",%progbits
 1515              		.align	2
 1516              		.global	SPIM_ReadStatus
 1517              		.thumb
 1518              		.thumb_func
 1519              		.type	SPIM_ReadStatus, %function
 1520              	SPIM_ReadStatus:
 1521              	.LFB23:
1095:Generated_Source\PSoC5/SPIM.c **** 
1096:Generated_Source\PSoC5/SPIM.c **** 
1097:Generated_Source\PSoC5/SPIM.c **** /*******************************************************************************
ARM GAS  C:\Users\Tomas\AppData\Local\Temp\cc3PqP4E.s 			page 47


1098:Generated_Source\PSoC5/SPIM.c **** * Function Name: SPIM_ReadStatus
1099:Generated_Source\PSoC5/SPIM.c **** ********************************************************************************
1100:Generated_Source\PSoC5/SPIM.c **** *
1101:Generated_Source\PSoC5/SPIM.c **** * Summary:
1102:Generated_Source\PSoC5/SPIM.c **** *  Read the status register for the component.
1103:Generated_Source\PSoC5/SPIM.c **** *
1104:Generated_Source\PSoC5/SPIM.c **** * Parameters:
1105:Generated_Source\PSoC5/SPIM.c **** *  None.
1106:Generated_Source\PSoC5/SPIM.c **** *
1107:Generated_Source\PSoC5/SPIM.c **** * Return:
1108:Generated_Source\PSoC5/SPIM.c **** *  Contents of the status register.
1109:Generated_Source\PSoC5/SPIM.c **** *
1110:Generated_Source\PSoC5/SPIM.c **** * Global variables:
1111:Generated_Source\PSoC5/SPIM.c **** *  SPIM_swStatus - used to store in software status register,
1112:Generated_Source\PSoC5/SPIM.c **** *  modified every function call - resets to zero.
1113:Generated_Source\PSoC5/SPIM.c **** *
1114:Generated_Source\PSoC5/SPIM.c **** * Theory:
1115:Generated_Source\PSoC5/SPIM.c **** *  Allows the user and the API to read the status register for error detection
1116:Generated_Source\PSoC5/SPIM.c **** *  and flow control.
1117:Generated_Source\PSoC5/SPIM.c **** *
1118:Generated_Source\PSoC5/SPIM.c **** * Side Effects:
1119:Generated_Source\PSoC5/SPIM.c **** *  Clear status register of the component.
1120:Generated_Source\PSoC5/SPIM.c **** *
1121:Generated_Source\PSoC5/SPIM.c **** * Reentrant:
1122:Generated_Source\PSoC5/SPIM.c **** *  No.
1123:Generated_Source\PSoC5/SPIM.c **** *
1124:Generated_Source\PSoC5/SPIM.c **** *******************************************************************************/
1125:Generated_Source\PSoC5/SPIM.c **** uint8 SPIM_ReadStatus(void) 
1126:Generated_Source\PSoC5/SPIM.c **** {
 1522              		.loc 1 1126 0
 1523              		.cfi_startproc
 1524              		@ args = 0, pretend = 0, frame = 8
 1525              		@ frame_needed = 1, uses_anonymous_args = 0
 1526 0000 80B5     		push	{r7, lr}
 1527              		.cfi_def_cfa_offset 8
 1528              		.cfi_offset 7, -8
 1529              		.cfi_offset 14, -4
 1530 0002 82B0     		sub	sp, sp, #8
 1531              		.cfi_def_cfa_offset 16
 1532 0004 00AF     		add	r7, sp, #0
 1533              		.cfi_def_cfa_register 7
1127:Generated_Source\PSoC5/SPIM.c ****     uint8 tmpStatus;
1128:Generated_Source\PSoC5/SPIM.c **** 
1129:Generated_Source\PSoC5/SPIM.c ****     #if(SPIM_TX_SOFTWARE_BUF_ENABLED || SPIM_RX_SOFTWARE_BUF_ENABLED)
1130:Generated_Source\PSoC5/SPIM.c **** 
1131:Generated_Source\PSoC5/SPIM.c ****         SPIM_DisableInt();
 1534              		.loc 1 1131 0
 1535 0006 FFF7FEFF 		bl	SPIM_DisableInt
1132:Generated_Source\PSoC5/SPIM.c **** 
1133:Generated_Source\PSoC5/SPIM.c ****         tmpStatus  = SPIM_GET_STATUS_RX(SPIM_swStatusRx);
 1536              		.loc 1 1133 0
 1537 000a 154B     		ldr	r3, .L95
 1538 000c 1B78     		ldrb	r3, [r3]
 1539 000e DAB2     		uxtb	r2, r3
 1540 0010 144B     		ldr	r3, .L95+4
 1541 0012 1B78     		ldrb	r3, [r3]
 1542 0014 DBB2     		uxtb	r3, r3
ARM GAS  C:\Users\Tomas\AppData\Local\Temp\cc3PqP4E.s 			page 48


 1543 0016 03F04003 		and	r3, r3, #64
 1544 001a DBB2     		uxtb	r3, r3
 1545 001c 1343     		orrs	r3, r3, r2
 1546 001e FB71     		strb	r3, [r7, #7]
1134:Generated_Source\PSoC5/SPIM.c ****         tmpStatus |= SPIM_GET_STATUS_TX(SPIM_swStatusTx);
 1547              		.loc 1 1134 0
 1548 0020 114B     		ldr	r3, .L95+8
 1549 0022 1B78     		ldrb	r3, [r3]
 1550 0024 DAB2     		uxtb	r2, r3
 1551 0026 114B     		ldr	r3, .L95+12
 1552 0028 1B78     		ldrb	r3, [r3]
 1553 002a DBB2     		uxtb	r3, r3
 1554 002c 03F00903 		and	r3, r3, #9
 1555 0030 DBB2     		uxtb	r3, r3
 1556 0032 1343     		orrs	r3, r3, r2
 1557 0034 DAB2     		uxtb	r2, r3
 1558 0036 FB79     		ldrb	r3, [r7, #7]
 1559 0038 1343     		orrs	r3, r3, r2
 1560 003a FB71     		strb	r3, [r7, #7]
1135:Generated_Source\PSoC5/SPIM.c ****         tmpStatus &= ((uint8) ~SPIM_STS_SPI_IDLE);
 1561              		.loc 1 1135 0
 1562 003c FB79     		ldrb	r3, [r7, #7]
 1563 003e 23F01003 		bic	r3, r3, #16
 1564 0042 FB71     		strb	r3, [r7, #7]
1136:Generated_Source\PSoC5/SPIM.c **** 
1137:Generated_Source\PSoC5/SPIM.c ****         SPIM_swStatusTx = 0u;
 1565              		.loc 1 1137 0
 1566 0044 094B     		ldr	r3, .L95+12
 1567 0046 0022     		movs	r2, #0
 1568 0048 1A70     		strb	r2, [r3]
1138:Generated_Source\PSoC5/SPIM.c ****         SPIM_swStatusRx = 0u;
 1569              		.loc 1 1138 0
 1570 004a 064B     		ldr	r3, .L95+4
 1571 004c 0022     		movs	r2, #0
 1572 004e 1A70     		strb	r2, [r3]
1139:Generated_Source\PSoC5/SPIM.c **** 
1140:Generated_Source\PSoC5/SPIM.c ****         SPIM_EnableInt();
 1573              		.loc 1 1140 0
 1574 0050 FFF7FEFF 		bl	SPIM_EnableInt
1141:Generated_Source\PSoC5/SPIM.c **** 
1142:Generated_Source\PSoC5/SPIM.c ****     #else
1143:Generated_Source\PSoC5/SPIM.c **** 
1144:Generated_Source\PSoC5/SPIM.c ****         tmpStatus  = SPIM_RX_STATUS_REG;
1145:Generated_Source\PSoC5/SPIM.c ****         tmpStatus |= SPIM_TX_STATUS_REG;
1146:Generated_Source\PSoC5/SPIM.c ****         tmpStatus &= ((uint8) ~SPIM_STS_SPI_IDLE);
1147:Generated_Source\PSoC5/SPIM.c **** 
1148:Generated_Source\PSoC5/SPIM.c ****     #endif /* (SPIM_TX_SOFTWARE_BUF_ENABLED || SPIM_RX_SOFTWARE_BUF_ENABLED) */
1149:Generated_Source\PSoC5/SPIM.c **** 
1150:Generated_Source\PSoC5/SPIM.c ****     return(tmpStatus);
 1575              		.loc 1 1150 0
 1576 0054 FB79     		ldrb	r3, [r7, #7]	@ zero_extendqisi2
1151:Generated_Source\PSoC5/SPIM.c **** }
 1577              		.loc 1 1151 0
 1578 0056 1846     		mov	r0, r3
 1579 0058 0837     		adds	r7, r7, #8
 1580              		.cfi_def_cfa_offset 8
 1581 005a BD46     		mov	sp, r7
ARM GAS  C:\Users\Tomas\AppData\Local\Temp\cc3PqP4E.s 			page 49


 1582              		.cfi_def_cfa_register 13
 1583              		@ sp needed
 1584 005c 80BD     		pop	{r7, pc}
 1585              	.L96:
 1586 005e 00BF     		.align	2
 1587              	.L95:
 1588 0060 66650040 		.word	1073767782
 1589 0064 00000000 		.word	SPIM_swStatusRx
 1590 0068 66640040 		.word	1073767526
 1591 006c 00000000 		.word	SPIM_swStatusTx
 1592              		.cfi_endproc
 1593              	.LFE23:
 1594              		.size	SPIM_ReadStatus, .-SPIM_ReadStatus
 1595              		.text
 1596              	.Letext0:
 1597              		.file 2 "Generated_Source\\PSoC5\\cytypes.h"