ARM GAS  C:\Users\Tomas\AppData\Local\Temp\cckfh7Ha.s 			page 1


   1              		.syntax unified
   2              		.cpu cortex-m3
   3              		.fpu softvfp
   4              		.eabi_attribute 20, 1
   5              		.eabi_attribute 21, 1
   6              		.eabi_attribute 23, 3
   7              		.eabi_attribute 24, 1
   8              		.eabi_attribute 25, 1
   9              		.eabi_attribute 26, 1
  10              		.eabi_attribute 30, 6
  11              		.eabi_attribute 34, 1
  12              		.eabi_attribute 18, 4
  13              		.thumb
  14              		.syntax unified
  15              		.file	"SPIS_PM.c"
  16              		.text
  17              	.Ltext0:
  18              		.cfi_sections	.debug_frame
  19              		.data
  20              		.align	2
  21              		.type	SPIS_backup, %object
  22              		.size	SPIS_backup, 2
  23              	SPIS_backup:
  24 0000 00       		.byte	0
  25 0001 07       		.byte	7
  26              		.section	.text.SPIS_SaveConfig,"ax",%progbits
  27              		.align	2
  28              		.global	SPIS_SaveConfig
  29              		.thumb
  30              		.thumb_func
  31              		.type	SPIS_SaveConfig, %function
  32              	SPIS_SaveConfig:
  33              	.LFB0:
  34              		.file 1 "Generated_Source\\PSoC5\\SPIS_PM.c"
   1:Generated_Source\PSoC5/SPIS_PM.c **** /*******************************************************************************
   2:Generated_Source\PSoC5/SPIS_PM.c **** * File Name: SPIS_PM.c
   3:Generated_Source\PSoC5/SPIS_PM.c **** * Version 2.70
   4:Generated_Source\PSoC5/SPIS_PM.c **** *
   5:Generated_Source\PSoC5/SPIS_PM.c **** * Description:
   6:Generated_Source\PSoC5/SPIS_PM.c **** *  This file contains the setup, control and status commands to support
   7:Generated_Source\PSoC5/SPIS_PM.c **** *  component operations in low power mode.
   8:Generated_Source\PSoC5/SPIS_PM.c **** *
   9:Generated_Source\PSoC5/SPIS_PM.c **** * Note:
  10:Generated_Source\PSoC5/SPIS_PM.c **** *
  11:Generated_Source\PSoC5/SPIS_PM.c **** ********************************************************************************
  12:Generated_Source\PSoC5/SPIS_PM.c **** * Copyright 2008-2015, Cypress Semiconductor Corporation.  All rights reserved.
  13:Generated_Source\PSoC5/SPIS_PM.c **** * You may use this file only in accordance with the license, terms, conditions,
  14:Generated_Source\PSoC5/SPIS_PM.c **** * disclaimers, and limitations in the end user license agreement accompanying
  15:Generated_Source\PSoC5/SPIS_PM.c **** * the software package with which this file was provided.
  16:Generated_Source\PSoC5/SPIS_PM.c **** *******************************************************************************/
  17:Generated_Source\PSoC5/SPIS_PM.c **** 
  18:Generated_Source\PSoC5/SPIS_PM.c **** #include "SPIS_PVT.h"
  19:Generated_Source\PSoC5/SPIS_PM.c **** 
  20:Generated_Source\PSoC5/SPIS_PM.c **** static SPIS_BACKUP_STRUCT SPIS_backup = 
  21:Generated_Source\PSoC5/SPIS_PM.c **** {
  22:Generated_Source\PSoC5/SPIS_PM.c ****     SPIS_DISABLED,
  23:Generated_Source\PSoC5/SPIS_PM.c ****     SPIS_BITCTR_INIT,
ARM GAS  C:\Users\Tomas\AppData\Local\Temp\cckfh7Ha.s 			page 2


  24:Generated_Source\PSoC5/SPIS_PM.c **** };
  25:Generated_Source\PSoC5/SPIS_PM.c **** 
  26:Generated_Source\PSoC5/SPIS_PM.c **** 
  27:Generated_Source\PSoC5/SPIS_PM.c **** /*******************************************************************************
  28:Generated_Source\PSoC5/SPIS_PM.c **** * Function Name: SPIS_SaveConfig
  29:Generated_Source\PSoC5/SPIS_PM.c **** ********************************************************************************
  30:Generated_Source\PSoC5/SPIS_PM.c **** *
  31:Generated_Source\PSoC5/SPIS_PM.c **** * Summary:
  32:Generated_Source\PSoC5/SPIS_PM.c **** *  Empty function. Included for consistency with other components.
  33:Generated_Source\PSoC5/SPIS_PM.c **** *
  34:Generated_Source\PSoC5/SPIS_PM.c **** * Parameters:
  35:Generated_Source\PSoC5/SPIS_PM.c **** *  None.
  36:Generated_Source\PSoC5/SPIS_PM.c **** *
  37:Generated_Source\PSoC5/SPIS_PM.c **** * Return:
  38:Generated_Source\PSoC5/SPIS_PM.c **** *  None.
  39:Generated_Source\PSoC5/SPIS_PM.c **** *
  40:Generated_Source\PSoC5/SPIS_PM.c **** *******************************************************************************/
  41:Generated_Source\PSoC5/SPIS_PM.c **** void SPIS_SaveConfig(void) 
  42:Generated_Source\PSoC5/SPIS_PM.c **** {
  35              		.loc 1 42 0
  36              		.cfi_startproc
  37              		@ args = 0, pretend = 0, frame = 0
  38              		@ frame_needed = 1, uses_anonymous_args = 0
  39              		@ link register save eliminated.
  40 0000 80B4     		push	{r7}
  41              		.cfi_def_cfa_offset 4
  42              		.cfi_offset 7, -4
  43 0002 00AF     		add	r7, sp, #0
  44              		.cfi_def_cfa_register 7
  43:Generated_Source\PSoC5/SPIS_PM.c **** 
  44:Generated_Source\PSoC5/SPIS_PM.c **** }
  45              		.loc 1 44 0
  46 0004 00BF     		nop
  47 0006 BD46     		mov	sp, r7
  48              		.cfi_def_cfa_register 13
  49              		@ sp needed
  50 0008 80BC     		pop	{r7}
  51              		.cfi_restore 7
  52              		.cfi_def_cfa_offset 0
  53 000a 7047     		bx	lr
  54              		.cfi_endproc
  55              	.LFE0:
  56              		.size	SPIS_SaveConfig, .-SPIS_SaveConfig
  57              		.section	.text.SPIS_RestoreConfig,"ax",%progbits
  58              		.align	2
  59              		.global	SPIS_RestoreConfig
  60              		.thumb
  61              		.thumb_func
  62              		.type	SPIS_RestoreConfig, %function
  63              	SPIS_RestoreConfig:
  64              	.LFB1:
  45:Generated_Source\PSoC5/SPIS_PM.c **** 
  46:Generated_Source\PSoC5/SPIS_PM.c **** 
  47:Generated_Source\PSoC5/SPIS_PM.c **** /*******************************************************************************
  48:Generated_Source\PSoC5/SPIS_PM.c **** * Function Name: SPIS_RestoreConfig
  49:Generated_Source\PSoC5/SPIS_PM.c **** ********************************************************************************
  50:Generated_Source\PSoC5/SPIS_PM.c **** *
ARM GAS  C:\Users\Tomas\AppData\Local\Temp\cckfh7Ha.s 			page 3


  51:Generated_Source\PSoC5/SPIS_PM.c **** * Summary:
  52:Generated_Source\PSoC5/SPIS_PM.c **** *  Empty function. Included for consistency with other components.
  53:Generated_Source\PSoC5/SPIS_PM.c **** *
  54:Generated_Source\PSoC5/SPIS_PM.c **** * Parameters:
  55:Generated_Source\PSoC5/SPIS_PM.c **** *  None.
  56:Generated_Source\PSoC5/SPIS_PM.c **** *
  57:Generated_Source\PSoC5/SPIS_PM.c **** * Return:
  58:Generated_Source\PSoC5/SPIS_PM.c **** *  None.
  59:Generated_Source\PSoC5/SPIS_PM.c **** *
  60:Generated_Source\PSoC5/SPIS_PM.c **** *******************************************************************************/
  61:Generated_Source\PSoC5/SPIS_PM.c **** void SPIS_RestoreConfig(void) 
  62:Generated_Source\PSoC5/SPIS_PM.c **** {
  65              		.loc 1 62 0
  66              		.cfi_startproc
  67              		@ args = 0, pretend = 0, frame = 0
  68              		@ frame_needed = 1, uses_anonymous_args = 0
  69              		@ link register save eliminated.
  70 0000 80B4     		push	{r7}
  71              		.cfi_def_cfa_offset 4
  72              		.cfi_offset 7, -4
  73 0002 00AF     		add	r7, sp, #0
  74              		.cfi_def_cfa_register 7
  63:Generated_Source\PSoC5/SPIS_PM.c **** 
  64:Generated_Source\PSoC5/SPIS_PM.c **** }
  75              		.loc 1 64 0
  76 0004 00BF     		nop
  77 0006 BD46     		mov	sp, r7
  78              		.cfi_def_cfa_register 13
  79              		@ sp needed
  80 0008 80BC     		pop	{r7}
  81              		.cfi_restore 7
  82              		.cfi_def_cfa_offset 0
  83 000a 7047     		bx	lr
  84              		.cfi_endproc
  85              	.LFE1:
  86              		.size	SPIS_RestoreConfig, .-SPIS_RestoreConfig
  87              		.section	.text.SPIS_Sleep,"ax",%progbits
  88              		.align	2
  89              		.global	SPIS_Sleep
  90              		.thumb
  91              		.thumb_func
  92              		.type	SPIS_Sleep, %function
  93              	SPIS_Sleep:
  94              	.LFB2:
  65:Generated_Source\PSoC5/SPIS_PM.c **** 
  66:Generated_Source\PSoC5/SPIS_PM.c **** 
  67:Generated_Source\PSoC5/SPIS_PM.c **** /*******************************************************************************
  68:Generated_Source\PSoC5/SPIS_PM.c **** * Function Name: SPIS_Sleep
  69:Generated_Source\PSoC5/SPIS_PM.c **** ********************************************************************************
  70:Generated_Source\PSoC5/SPIS_PM.c **** *
  71:Generated_Source\PSoC5/SPIS_PM.c **** * Summary:
  72:Generated_Source\PSoC5/SPIS_PM.c **** *  Prepare SPI Slave Component goes to sleep.
  73:Generated_Source\PSoC5/SPIS_PM.c **** *
  74:Generated_Source\PSoC5/SPIS_PM.c **** * Parameters:
  75:Generated_Source\PSoC5/SPIS_PM.c **** *  None.
  76:Generated_Source\PSoC5/SPIS_PM.c **** *
  77:Generated_Source\PSoC5/SPIS_PM.c **** * Return:
ARM GAS  C:\Users\Tomas\AppData\Local\Temp\cckfh7Ha.s 			page 4


  78:Generated_Source\PSoC5/SPIS_PM.c **** *  None.
  79:Generated_Source\PSoC5/SPIS_PM.c **** *
  80:Generated_Source\PSoC5/SPIS_PM.c **** * Global Variables:
  81:Generated_Source\PSoC5/SPIS_PM.c **** *  SPIS_backup - modified when non-retention registers are saved.
  82:Generated_Source\PSoC5/SPIS_PM.c **** *
  83:Generated_Source\PSoC5/SPIS_PM.c **** * Reentrant:
  84:Generated_Source\PSoC5/SPIS_PM.c **** *  No.
  85:Generated_Source\PSoC5/SPIS_PM.c **** *
  86:Generated_Source\PSoC5/SPIS_PM.c **** *******************************************************************************/
  87:Generated_Source\PSoC5/SPIS_PM.c **** void SPIS_Sleep(void) 
  88:Generated_Source\PSoC5/SPIS_PM.c **** {
  95              		.loc 1 88 0
  96              		.cfi_startproc
  97              		@ args = 0, pretend = 0, frame = 0
  98              		@ frame_needed = 1, uses_anonymous_args = 0
  99 0000 80B5     		push	{r7, lr}
 100              		.cfi_def_cfa_offset 8
 101              		.cfi_offset 7, -8
 102              		.cfi_offset 14, -4
 103 0002 00AF     		add	r7, sp, #0
 104              		.cfi_def_cfa_register 7
  89:Generated_Source\PSoC5/SPIS_PM.c ****     /* Save components enable state */
  90:Generated_Source\PSoC5/SPIS_PM.c ****     if ((SPIS_TX_STATUS_ACTL_REG & SPIS_INT_ENABLE) != 0u)
 105              		.loc 1 90 0
 106 0004 084B     		ldr	r3, .L6
 107 0006 1B78     		ldrb	r3, [r3]
 108 0008 DBB2     		uxtb	r3, r3
 109 000a 03F01003 		and	r3, r3, #16
 110 000e 002B     		cmp	r3, #0
 111 0010 03D0     		beq	.L4
  91:Generated_Source\PSoC5/SPIS_PM.c ****     {
  92:Generated_Source\PSoC5/SPIS_PM.c ****         SPIS_backup.enableState = 1u;
 112              		.loc 1 92 0
 113 0012 064B     		ldr	r3, .L6+4
 114 0014 0122     		movs	r2, #1
 115 0016 1A70     		strb	r2, [r3]
 116 0018 02E0     		b	.L5
 117              	.L4:
  93:Generated_Source\PSoC5/SPIS_PM.c ****     }
  94:Generated_Source\PSoC5/SPIS_PM.c ****     else /* Components block is disabled */
  95:Generated_Source\PSoC5/SPIS_PM.c ****     {
  96:Generated_Source\PSoC5/SPIS_PM.c ****         SPIS_backup.enableState = 0u;
 118              		.loc 1 96 0
 119 001a 044B     		ldr	r3, .L6+4
 120 001c 0022     		movs	r2, #0
 121 001e 1A70     		strb	r2, [r3]
 122              	.L5:
  97:Generated_Source\PSoC5/SPIS_PM.c ****     }
  98:Generated_Source\PSoC5/SPIS_PM.c **** 
  99:Generated_Source\PSoC5/SPIS_PM.c ****     SPIS_Stop();
 123              		.loc 1 99 0
 124 0020 FFF7FEFF 		bl	SPIS_Stop
 100:Generated_Source\PSoC5/SPIS_PM.c **** 
 101:Generated_Source\PSoC5/SPIS_PM.c **** }
 125              		.loc 1 101 0
 126 0024 00BF     		nop
 127 0026 80BD     		pop	{r7, pc}
ARM GAS  C:\Users\Tomas\AppData\Local\Temp\cckfh7Ha.s 			page 5


 128              	.L7:
 129              		.align	2
 130              	.L6:
 131 0028 92640040 		.word	1073767570
 132 002c 00000000 		.word	SPIS_backup
 133              		.cfi_endproc
 134              	.LFE2:
 135              		.size	SPIS_Sleep, .-SPIS_Sleep
 136              		.section	.text.SPIS_Wakeup,"ax",%progbits
 137              		.align	2
 138              		.global	SPIS_Wakeup
 139              		.thumb
 140              		.thumb_func
 141              		.type	SPIS_Wakeup, %function
 142              	SPIS_Wakeup:
 143              	.LFB3:
 102:Generated_Source\PSoC5/SPIS_PM.c **** 
 103:Generated_Source\PSoC5/SPIS_PM.c **** 
 104:Generated_Source\PSoC5/SPIS_PM.c **** /*******************************************************************************
 105:Generated_Source\PSoC5/SPIS_PM.c **** * Function Name: SPIS_Wakeup
 106:Generated_Source\PSoC5/SPIS_PM.c **** ********************************************************************************
 107:Generated_Source\PSoC5/SPIS_PM.c **** *
 108:Generated_Source\PSoC5/SPIS_PM.c **** * Summary:
 109:Generated_Source\PSoC5/SPIS_PM.c **** *  Prepare SPIM Component to wake up.
 110:Generated_Source\PSoC5/SPIS_PM.c **** *
 111:Generated_Source\PSoC5/SPIS_PM.c **** * Parameters:
 112:Generated_Source\PSoC5/SPIS_PM.c **** *  None.
 113:Generated_Source\PSoC5/SPIS_PM.c **** *
 114:Generated_Source\PSoC5/SPIS_PM.c **** * Return:
 115:Generated_Source\PSoC5/SPIS_PM.c **** *  None.
 116:Generated_Source\PSoC5/SPIS_PM.c **** *
 117:Generated_Source\PSoC5/SPIS_PM.c **** * Global Variables:
 118:Generated_Source\PSoC5/SPIS_PM.c **** *  SPIS_backup - used when non-retention registers are restored.
 119:Generated_Source\PSoC5/SPIS_PM.c **** *  SPIS_txBufferWrite - modified every function call - resets to
 120:Generated_Source\PSoC5/SPIS_PM.c **** *  zero.
 121:Generated_Source\PSoC5/SPIS_PM.c **** *  SPIS_txBufferRead - modified every function call - resets to
 122:Generated_Source\PSoC5/SPIS_PM.c **** *  zero.
 123:Generated_Source\PSoC5/SPIS_PM.c **** *  SPIS_rxBufferWrite - modified every function call - resets to
 124:Generated_Source\PSoC5/SPIS_PM.c **** *  zero.
 125:Generated_Source\PSoC5/SPIS_PM.c **** *  SPIS_rxBufferRead - modified every function call - resets to
 126:Generated_Source\PSoC5/SPIS_PM.c **** *  zero.
 127:Generated_Source\PSoC5/SPIS_PM.c **** *
 128:Generated_Source\PSoC5/SPIS_PM.c **** * Reentrant:
 129:Generated_Source\PSoC5/SPIS_PM.c **** *  No.
 130:Generated_Source\PSoC5/SPIS_PM.c **** *
 131:Generated_Source\PSoC5/SPIS_PM.c **** *******************************************************************************/
 132:Generated_Source\PSoC5/SPIS_PM.c **** void SPIS_Wakeup(void) 
 133:Generated_Source\PSoC5/SPIS_PM.c **** {
 144              		.loc 1 133 0
 145              		.cfi_startproc
 146              		@ args = 0, pretend = 0, frame = 0
 147              		@ frame_needed = 1, uses_anonymous_args = 0
 148 0000 80B5     		push	{r7, lr}
 149              		.cfi_def_cfa_offset 8
 150              		.cfi_offset 7, -8
 151              		.cfi_offset 14, -4
 152 0002 00AF     		add	r7, sp, #0
ARM GAS  C:\Users\Tomas\AppData\Local\Temp\cckfh7Ha.s 			page 6


 153              		.cfi_def_cfa_register 7
 134:Generated_Source\PSoC5/SPIS_PM.c ****     #if (SPIS_TX_SOFTWARE_BUF_ENABLED)
 135:Generated_Source\PSoC5/SPIS_PM.c ****         SPIS_txBufferFull = 0u;
 154              		.loc 1 135 0
 155 0004 0D4B     		ldr	r3, .L11
 156 0006 0022     		movs	r2, #0
 157 0008 1A70     		strb	r2, [r3]
 136:Generated_Source\PSoC5/SPIS_PM.c ****         SPIS_txBufferRead = 0u;
 158              		.loc 1 136 0
 159 000a 0D4B     		ldr	r3, .L11+4
 160 000c 0022     		movs	r2, #0
 161 000e 1A70     		strb	r2, [r3]
 137:Generated_Source\PSoC5/SPIS_PM.c ****         SPIS_txBufferWrite = 0u;
 162              		.loc 1 137 0
 163 0010 0C4B     		ldr	r3, .L11+8
 164 0012 0022     		movs	r2, #0
 165 0014 1A70     		strb	r2, [r3]
 138:Generated_Source\PSoC5/SPIS_PM.c ****     #endif /* SPIS_TX_SOFTWARE_BUF_ENABLED */
 139:Generated_Source\PSoC5/SPIS_PM.c **** 
 140:Generated_Source\PSoC5/SPIS_PM.c ****     #if (SPIS_RX_SOFTWARE_BUF_ENABLED)
 141:Generated_Source\PSoC5/SPIS_PM.c ****         SPIS_rxBufferFull = 0u;
 166              		.loc 1 141 0
 167 0016 0C4B     		ldr	r3, .L11+12
 168 0018 0022     		movs	r2, #0
 169 001a 1A70     		strb	r2, [r3]
 142:Generated_Source\PSoC5/SPIS_PM.c ****         SPIS_rxBufferRead = 0u;
 170              		.loc 1 142 0
 171 001c 0B4B     		ldr	r3, .L11+16
 172 001e 0022     		movs	r2, #0
 173 0020 1A70     		strb	r2, [r3]
 143:Generated_Source\PSoC5/SPIS_PM.c ****         SPIS_rxBufferWrite = 0u;
 174              		.loc 1 143 0
 175 0022 0B4B     		ldr	r3, .L11+20
 176 0024 0022     		movs	r2, #0
 177 0026 1A70     		strb	r2, [r3]
 144:Generated_Source\PSoC5/SPIS_PM.c ****     #endif /* SPIS_RX_SOFTWARE_BUF_ENABLED */
 145:Generated_Source\PSoC5/SPIS_PM.c **** 
 146:Generated_Source\PSoC5/SPIS_PM.c ****     SPIS_ClearFIFO();
 178              		.loc 1 146 0
 179 0028 FFF7FEFF 		bl	SPIS_ClearFIFO
 147:Generated_Source\PSoC5/SPIS_PM.c **** 
 148:Generated_Source\PSoC5/SPIS_PM.c ****     /* Restore components block enable state */
 149:Generated_Source\PSoC5/SPIS_PM.c ****     if (SPIS_backup.enableState != 0u)
 180              		.loc 1 149 0
 181 002c 094B     		ldr	r3, .L11+24
 182 002e 1B78     		ldrb	r3, [r3]	@ zero_extendqisi2
 183 0030 002B     		cmp	r3, #0
 184 0032 01D0     		beq	.L10
 150:Generated_Source\PSoC5/SPIS_PM.c ****     {
 151:Generated_Source\PSoC5/SPIS_PM.c ****          /* Components block was enabled */
 152:Generated_Source\PSoC5/SPIS_PM.c ****          SPIS_Enable();
 185              		.loc 1 152 0
 186 0034 FFF7FEFF 		bl	SPIS_Enable
 187              	.L10:
 153:Generated_Source\PSoC5/SPIS_PM.c ****     } /* Do nothing if components block was disabled */
 154:Generated_Source\PSoC5/SPIS_PM.c **** }
 188              		.loc 1 154 0
ARM GAS  C:\Users\Tomas\AppData\Local\Temp\cckfh7Ha.s 			page 7


 189 0038 00BF     		nop
 190 003a 80BD     		pop	{r7, pc}
 191              	.L12:
 192              		.align	2
 193              	.L11:
 194 003c 00000000 		.word	SPIS_txBufferFull
 195 0040 00000000 		.word	SPIS_txBufferRead
 196 0044 00000000 		.word	SPIS_txBufferWrite
 197 0048 00000000 		.word	SPIS_rxBufferFull
 198 004c 00000000 		.word	SPIS_rxBufferRead
 199 0050 00000000 		.word	SPIS_rxBufferWrite
 200 0054 00000000 		.word	SPIS_backup
 201              		.cfi_endproc
 202              	.LFE3:
 203              		.size	SPIS_Wakeup, .-SPIS_Wakeup
 204              		.text
 205              	.Letext0:
 206              		.file 2 "Generated_Source\\PSoC5\\cytypes.h"
 207              		.file 3 "Generated_Source\\PSoC5\\SPIS.h"
 208              		.file 4 "Generated_Source\\PSoC5\\SPIS_PVT.h"