ARM GAS  C:\Users\TOMAS~1.GEC\AppData\Local\Temp\ccSgUoEy.s 			page 1


   1              		.syntax unified
   2              		.cpu cortex-m3
   3              		.fpu softvfp
   4              		.eabi_attribute 20, 1
   5              		.eabi_attribute 21, 1
   6              		.eabi_attribute 23, 3
   7              		.eabi_attribute 24, 1
   8              		.eabi_attribute 25, 1
   9              		.eabi_attribute 26, 1
  10              		.eabi_attribute 30, 6
  11              		.eabi_attribute 34, 1
  12              		.eabi_attribute 18, 4
  13              		.thumb
  14              		.syntax unified
  15              		.file	"SPIS_DMA.c"
  16              		.text
  17              	.Ltext0:
  18              		.cfi_sections	.debug_frame
  19              		.comm	txChannel,1,1
  20              		.comm	rxChannel,1,1
  21              		.comm	txTD,1,1
  22              		.comm	rxTD,1,1
  23              		.global	txBuffer
  24              		.data
  25              		.align	2
  26              		.type	txBuffer, %object
  27              		.size	txBuffer, 7
  28              	txBuffer:
  29 0000 09       		.byte	9
  30 0001 0A       		.byte	10
  31 0002 0B       		.byte	11
  32 0003 0C       		.byte	12
  33 0004 0D       		.byte	13
  34 0005 0E       		.byte	14
  35 0006 0F       		.byte	15
  36              		.comm	rxBuffer,8,4
  37              		.section	.rodata
  38              		.align	2
  39              	.LC0:
  40 0000 53504920 		.ascii	"SPI Slave\000"
  40      536C6176 
  40      6500
  41 000a 0000     		.align	2
  42              	.LC1:
  43 000c 536C6176 		.ascii	"Slave Rx data:\000"
  43      65205278 
  43      20646174 
  43      613A00
  44              		.section	.text.main_SPIS_DMA,"ax",%progbits
  45              		.align	2
  46              		.global	main_SPIS_DMA
  47              		.thumb
  48              		.thumb_func
  49              		.type	main_SPIS_DMA, %function
  50              	main_SPIS_DMA:
  51              	.LFB64:
  52              		.file 1 "SPIS_DMA.c"
ARM GAS  C:\Users\TOMAS~1.GEC\AppData\Local\Temp\ccSgUoEy.s 			page 2


   1:SPIS_DMA.c    **** /*******************************************************************************
   2:SPIS_DMA.c    **** * File Name: main.c
   3:SPIS_DMA.c    **** *
   4:SPIS_DMA.c    **** * Version: 1.10
   5:SPIS_DMA.c    **** *
   6:SPIS_DMA.c    **** * Description:
   7:SPIS_DMA.c    **** *  This is source code for example project of the SPI
   8:SPIS_DMA.c    **** *  Slave component.
   9:SPIS_DMA.c    **** *  Parameters used:
  10:SPIS_DMA.c    **** *   Mode                CPHA == 0, CPOL == 0                
  11:SPIS_DMA.c    **** *   Data lines          MOSI+MISO
  12:SPIS_DMA.c    **** *   Shift direction     MSB First
  13:SPIS_DMA.c    **** *   DataBits:           8 
  14:SPIS_DMA.c    **** *   Bit Rate            1Mbit
  15:SPIS_DMA.c    **** *   Clock source        External 
  16:SPIS_DMA.c    **** *
  17:SPIS_DMA.c    **** *  SPI communication test using DMA. 8 bytes are transmitted
  18:SPIS_DMA.c    **** *  between SPI Master and SPI Slave.
  19:SPIS_DMA.c    **** *  Transmitted and received data are displayed on LCD. 
  20:SPIS_DMA.c    **** *
  21:SPIS_DMA.c    **** ********************************************************************************
  22:SPIS_DMA.c    **** * Copyright 2012-2015, Cypress Semiconductor Corporation. All rights reserved.
  23:SPIS_DMA.c    **** * This software is owned by Cypress Semiconductor Corporation and is protected
  24:SPIS_DMA.c    **** * by and subject to worldwide patent and copyright laws and treaties.
  25:SPIS_DMA.c    **** * Therefore, you may use this software only as provided in the license agreement
  26:SPIS_DMA.c    **** * accompanying the software package from which you obtained this software.
  27:SPIS_DMA.c    **** * CYPRESS AND ITS SUPPLIERS MAKE NO WARRANTY OF ANY KIND, EXPRESS OR IMPLIED,
  28:SPIS_DMA.c    **** * WITH REGARD TO THIS SOFTWARE, INCLUDING, BUT NOT LIMITED TO, NONINFRINGEMENT,
  29:SPIS_DMA.c    **** * IMPLIED WARRANTIES OF MERCHANTABILITY AND FITNESS FOR A PARTICULAR PURPOSE.
  30:SPIS_DMA.c    **** *******************************************************************************/
  31:SPIS_DMA.c    **** 
  32:SPIS_DMA.c    **** #include <device.h>
  33:SPIS_DMA.c    **** #include "SPIS_DMA.h"
  34:SPIS_DMA.c    **** 
  35:SPIS_DMA.c    **** void DmaTxConfiguration(void);
  36:SPIS_DMA.c    **** void DmaRxConfiguration(void);
  37:SPIS_DMA.c    **** 
  38:SPIS_DMA.c    **** /* DMA Configuration for DMA_TX */
  39:SPIS_DMA.c    **** #define DMA_TX_BYTES_PER_BURST      (1u)
  40:SPIS_DMA.c    **** #define DMA_TX_REQUEST_PER_BURST    (1u)
  41:SPIS_DMA.c    **** #define DMA_TX_SRC_BASE             (CYDEV_SRAM_BASE)
  42:SPIS_DMA.c    **** #define DMA_TX_DST_BASE             (CYDEV_PERIPH_BASE)
  43:SPIS_DMA.c    **** 
  44:SPIS_DMA.c    **** /* DMA Configuration for DMA_RX */
  45:SPIS_DMA.c    **** #define DMA_RX_BYTES_PER_BURST      (1u)
  46:SPIS_DMA.c    **** #define DMA_RX_REQUEST_PER_BURST    (1u)
  47:SPIS_DMA.c    **** #define DMA_RX_SRC_BASE             (CYDEV_PERIPH_BASE)
  48:SPIS_DMA.c    **** #define DMA_RX_DST_BASE             (CYDEV_SRAM_BASE)
  49:SPIS_DMA.c    **** 
  50:SPIS_DMA.c    **** #define BUFFER_SIZE                 (8u)
  51:SPIS_DMA.c    **** #define STORE_TD_CFG_ONCMPLT        (1u)
  52:SPIS_DMA.c    **** 
  53:SPIS_DMA.c    **** /* Variable declarations for DMA_TX and DMA_RX*/
  54:SPIS_DMA.c    **** uint8 txChannel, rxChannel;
  55:SPIS_DMA.c    **** uint8 txTD, rxTD;
  56:SPIS_DMA.c    **** 
  57:SPIS_DMA.c    **** /* The txBuffer size is equal (BUFFER_SIZE-1) because for SPI Mode where CPHA == 0 and
ARM GAS  C:\Users\TOMAS~1.GEC\AppData\Local\Temp\ccSgUoEy.s 			page 3


  58:SPIS_DMA.c    **** * CPOL == 0 one byte writes directly in SPI TX FIFO using SPIS_WriteTxDataZero() API.
  59:SPIS_DMA.c    **** */
  60:SPIS_DMA.c    **** uint8 txBuffer [BUFFER_SIZE-1] = {0x09u, 0x0Au, 0x0Bu, 0x0Cu, 0x0Du, 0x0Eu, 0x0Fu};
  61:SPIS_DMA.c    **** uint8 rxBuffer [BUFFER_SIZE];
  62:SPIS_DMA.c    **** 
  63:SPIS_DMA.c    **** 
  64:SPIS_DMA.c    **** /*******************************************************************************
  65:SPIS_DMA.c    **** * Function Name: main
  66:SPIS_DMA.c    **** ********************************************************************************
  67:SPIS_DMA.c    **** * Summary:
  68:SPIS_DMA.c    **** *  Main function performs following functions:
  69:SPIS_DMA.c    **** *   1. Starts Character LCD and print project info
  70:SPIS_DMA.c    **** *   2. Starts SPI Slave component
  71:SPIS_DMA.c    **** *   3. Configures the DMA transfer for RX and TX directions
  72:SPIS_DMA.c    **** *   4. Displays the results on Character LCD
  73:SPIS_DMA.c    **** *   
  74:SPIS_DMA.c    **** * Parameters:
  75:SPIS_DMA.c    **** *  None.
  76:SPIS_DMA.c    **** *
  77:SPIS_DMA.c    **** * Return:
  78:SPIS_DMA.c    **** *  None.
  79:SPIS_DMA.c    **** *
  80:SPIS_DMA.c    **** *******************************************************************************/
  81:SPIS_DMA.c    **** int main_SPIS_DMA()
  82:SPIS_DMA.c    **** {
  53              		.loc 1 82 0
  54              		.cfi_startproc
  55              		@ args = 0, pretend = 0, frame = 8
  56              		@ frame_needed = 1, uses_anonymous_args = 0
  57 0000 80B5     		push	{r7, lr}
  58              		.cfi_def_cfa_offset 8
  59              		.cfi_offset 7, -8
  60              		.cfi_offset 14, -4
  61 0002 82B0     		sub	sp, sp, #8
  62              		.cfi_def_cfa_offset 16
  63 0004 00AF     		add	r7, sp, #0
  64              		.cfi_def_cfa_register 7
  83:SPIS_DMA.c    ****     uint8 i;
  84:SPIS_DMA.c    ****     
  85:SPIS_DMA.c    **** //    DmaTxConfiguration();
  86:SPIS_DMA.c    **** //   DmaRxConfiguration();
  87:SPIS_DMA.c    **** 
  88:SPIS_DMA.c    ****     SPIS_Start();
  65              		.loc 1 88 0
  66 0006 FFF7FEFF 		bl	SPIS_Start
  89:SPIS_DMA.c    ****     SPIS_WriteTxDataZero(0x00u);
  67              		.loc 1 89 0
  68 000a 0020     		movs	r0, #0
  69 000c FFF7FEFF 		bl	SPIS_WriteTxDataZero
  90:SPIS_DMA.c    ****     
  91:SPIS_DMA.c    ****     CyDmaChEnable(rxChannel, STORE_TD_CFG_ONCMPLT);
  70              		.loc 1 91 0
  71 0010 144B     		ldr	r3, .L6
  72 0012 1B78     		ldrb	r3, [r3]	@ zero_extendqisi2
  73 0014 0121     		movs	r1, #1
  74 0016 1846     		mov	r0, r3
  75 0018 FFF7FEFF 		bl	CyDmaChEnable
ARM GAS  C:\Users\TOMAS~1.GEC\AppData\Local\Temp\ccSgUoEy.s 			page 4


  92:SPIS_DMA.c    ****     CyDmaChEnable(txChannel, STORE_TD_CFG_ONCMPLT);   
  76              		.loc 1 92 0
  77 001c 124B     		ldr	r3, .L6+4
  78 001e 1B78     		ldrb	r3, [r3]	@ zero_extendqisi2
  79 0020 0121     		movs	r1, #1
  80 0022 1846     		mov	r0, r3
  81 0024 FFF7FEFF 		bl	CyDmaChEnable
  93:SPIS_DMA.c    ****     
  94:SPIS_DMA.c    ****     //LCD_Start();
  95:SPIS_DMA.c    ****     //LCD_Position(0u,0u);
  96:SPIS_DMA.c    ****     //LCD_PrintString("SPI Slave");
  97:SPIS_DMA.c    ****     //LCD_Position(1u,0u);
  98:SPIS_DMA.c    ****     //LCD_PrintString("example");
  99:SPIS_DMA.c    ****     
 100:SPIS_DMA.c    ****     UART_1_PutString("SPI Slave");
  82              		.loc 1 100 0
  83 0028 1048     		ldr	r0, .L6+8
  84 002a FFF7FEFF 		bl	UART_1_PutString
 101:SPIS_DMA.c    ****     
 102:SPIS_DMA.c    ****     
 103:SPIS_DMA.c    ****     while(0u == (SPIS_ReadTxStatus() & SPIS_STS_SPI_DONE))
  85              		.loc 1 103 0
  86 002e 00BF     		nop
  87              	.L2:
  88              		.loc 1 103 0 is_stmt 0 discriminator 1
  89 0030 FFF7FEFF 		bl	SPIS_ReadTxStatus
  90 0034 0346     		mov	r3, r0
  91 0036 03F00103 		and	r3, r3, #1
  92 003a 002B     		cmp	r3, #0
  93 003c F8D0     		beq	.L2
 104:SPIS_DMA.c    ****     {
 105:SPIS_DMA.c    ****     }
 106:SPIS_DMA.c    ****     
 107:SPIS_DMA.c    ****    // LCD_ClearDisplay();
 108:SPIS_DMA.c    ****  //   LCD_Position(0u,0u);
 109:SPIS_DMA.c    ****   //  LCD_PrintString("Slave Rx data:");
 110:SPIS_DMA.c    ****    // LCD_Position(1u,0u);
 111:SPIS_DMA.c    ****     
 112:SPIS_DMA.c    ****    UART_1_PutString("Slave Rx data:");
  94              		.loc 1 112 0 is_stmt 1
  95 003e 0C48     		ldr	r0, .L6+12
  96 0040 FFF7FEFF 		bl	UART_1_PutString
 113:SPIS_DMA.c    ****            
 114:SPIS_DMA.c    ****     for(i=0u; i<BUFFER_SIZE; i++)
  97              		.loc 1 114 0
  98 0044 0023     		movs	r3, #0
  99 0046 FB71     		strb	r3, [r7, #7]
 100 0048 08E0     		b	.L3
 101              	.L4:
 115:SPIS_DMA.c    ****     {
 116:SPIS_DMA.c    ****         UART_1_PutChar(rxBuffer[i]);
 102              		.loc 1 116 0 discriminator 3
 103 004a FB79     		ldrb	r3, [r7, #7]	@ zero_extendqisi2
 104 004c 094A     		ldr	r2, .L6+16
 105 004e D35C     		ldrb	r3, [r2, r3]	@ zero_extendqisi2
 106 0050 1846     		mov	r0, r3
 107 0052 FFF7FEFF 		bl	UART_1_PutChar
ARM GAS  C:\Users\TOMAS~1.GEC\AppData\Local\Temp\ccSgUoEy.s 			page 5


 114:SPIS_DMA.c    ****     {
 108              		.loc 1 114 0 discriminator 3
 109 0056 FB79     		ldrb	r3, [r7, #7]	@ zero_extendqisi2
 110 0058 0133     		adds	r3, r3, #1
 111 005a FB71     		strb	r3, [r7, #7]
 112              	.L3:
 114:SPIS_DMA.c    ****     {
 113              		.loc 1 114 0 is_stmt 0 discriminator 1
 114 005c FB79     		ldrb	r3, [r7, #7]	@ zero_extendqisi2
 115 005e 072B     		cmp	r3, #7
 116 0060 F3D9     		bls	.L4
 117              	.L5:
 117:SPIS_DMA.c    ****     }        
 118:SPIS_DMA.c    ****     
 119:SPIS_DMA.c    ****     for(;;)
 120:SPIS_DMA.c    ****     {
 121:SPIS_DMA.c    ****     }
 118              		.loc 1 121 0 is_stmt 1 discriminator 1
 119 0062 FEE7     		b	.L5
 120              	.L7:
 121              		.align	2
 122              	.L6:
 123 0064 00000000 		.word	rxChannel
 124 0068 00000000 		.word	txChannel
 125 006c 00000000 		.word	.LC0
 126 0070 0C000000 		.word	.LC1
 127 0074 00000000 		.word	rxBuffer
 128              		.cfi_endproc
 129              	.LFE64:
 130              		.size	main_SPIS_DMA, .-main_SPIS_DMA
 131              		.text
 132              	.Letext0:
 133              		.file 2 "c:\\program files (x86)\\cypress\\psoc creator\\4.1\\psoc creator\\import\\gnu\\arm\\5.4.
 134              		.file 3 "c:\\program files (x86)\\cypress\\psoc creator\\4.1\\psoc creator\\import\\gnu\\arm\\5.4.
 135              		.file 4 "Generated_Source\\PSoC5/cytypes.h"
 136              		.file 5 "Generated_Source\\PSoC5/core_cm3.h"